
c:/Users/benja/OneDrive/Desktop/visualStudioCode/summerIOT/Capstone/ArgonT/target/5.3.0/argon/ArgonT.elf:     file format elf32-littlearm

Sections:
Idx Name          Size      VMA       LMA       File off  Algn
  0 .module_info  00000018  000b4000  000b4000  00004000  2**0
                  CONTENTS, ALLOC, LOAD, READONLY, DATA
  1 .dynalib      00000004  000b4018  000b4018  00004018  2**2
                  CONTENTS, ALLOC, LOAD, READONLY, DATA
  2 .text         000050ac  000b401c  000b401c  0000401c  2**2
                  CONTENTS, ALLOC, LOAD, READONLY, CODE
  3 .note.gnu.build-id 00000024  000b90c8  000b90c8  000090c8  2**2
                  CONTENTS, ALLOC, LOAD, READONLY, DATA
  4 .data         00000074  2003e548  000b90ec  0000e548  2**2
                  CONTENTS, ALLOC, LOAD, DATA
  5 .bss          00000234  2003e5bc  2003e5bc  0001e5bc  2**2
                  ALLOC
  6 .backup       00000004  2003f400  000b9160  0000f400  2**2
                  CONTENTS, ALLOC, LOAD, DATA
  7 .module_info_product 00000006  000b9164  000b9164  00019164  2**0
                  ALLOC
  8 .module_info_suffix 00000024  000b916a  000b916a  0001916a  2**0
                  CONTENTS, ALLOC, LOAD, READONLY, DATA
  9 .module_info_crc 00000004  000b918e  000b918e  0001918e  2**0
                  CONTENTS, ALLOC, LOAD, READONLY, DATA
 10 .debug_info   00140f9b  00000000  00000000  00019192  2**0
                  CONTENTS, READONLY, DEBUGGING, OCTETS
 11 .debug_abbrev 00015bd8  00000000  00000000  0015a12d  2**0
                  CONTENTS, READONLY, DEBUGGING, OCTETS
 12 .debug_loc    000420fa  00000000  00000000  0016fd05  2**0
                  CONTENTS, READONLY, DEBUGGING, OCTETS
 13 .debug_aranges 00003648  00000000  00000000  001b1dff  2**0
                  CONTENTS, READONLY, DEBUGGING, OCTETS
 14 .debug_ranges 0000baf8  00000000  00000000  001b5447  2**0
                  CONTENTS, READONLY, DEBUGGING, OCTETS
 15 .debug_macro  0003bd16  00000000  00000000  001c0f3f  2**0
                  CONTENTS, READONLY, DEBUGGING, OCTETS
 16 .debug_line   00047826  00000000  00000000  001fcc55  2**0
                  CONTENTS, READONLY, DEBUGGING, OCTETS
 17 .debug_str    001403e4  00000000  00000000  0024447b  2**0
                  CONTENTS, READONLY, DEBUGGING, OCTETS
 18 .debug_frame  00009b28  00000000  00000000  00384860  2**2
                  CONTENTS, READONLY, DEBUGGING, OCTETS

Disassembly of section .text:

000b401c <strcmp>:
   b401c:	f810 2b01 	ldrb.w	r2, [r0], #1
   b4020:	f811 3b01 	ldrb.w	r3, [r1], #1
   b4024:	2a01      	cmp	r2, #1
   b4026:	bf28      	it	cs
   b4028:	429a      	cmpcs	r2, r3
   b402a:	d0f7      	beq.n	b401c <strcmp>
   b402c:	1ad0      	subs	r0, r2, r3
   b402e:	4770      	bx	lr

000b4030 <strlen>:
   b4030:	4603      	mov	r3, r0
   b4032:	f813 2b01 	ldrb.w	r2, [r3], #1
   b4036:	2a00      	cmp	r2, #0
   b4038:	d1fb      	bne.n	b4032 <strlen+0x2>
   b403a:	1a18      	subs	r0, r3, r0
   b403c:	3801      	subs	r0, #1
   b403e:	4770      	bx	lr

000b4040 <module_user_pre_init>:
/**
 * Initializes this user module. Returns the start of the heap.
 */
void* module_user_pre_init() {

    if ( (&link_global_data_start!=&link_global_data_initial_values) && (link_global_data_size != 0))
   b4040:	4809      	ldr	r0, [pc, #36]	; (b4068 <module_user_pre_init+0x28>)
   b4042:	490a      	ldr	r1, [pc, #40]	; (b406c <module_user_pre_init+0x2c>)
   b4044:	4288      	cmp	r0, r1
void* module_user_pre_init() {
   b4046:	b508      	push	{r3, lr}
    if ( (&link_global_data_start!=&link_global_data_initial_values) && (link_global_data_size != 0))
   b4048:	d005      	beq.n	b4056 <module_user_pre_init+0x16>
   b404a:	4a09      	ldr	r2, [pc, #36]	; (b4070 <module_user_pre_init+0x30>)
   b404c:	4282      	cmp	r2, r0
   b404e:	d002      	beq.n	b4056 <module_user_pre_init+0x16>
    {
        memcpy(&link_global_data_start, &link_global_data_initial_values, link_global_data_size);
   b4050:	1a12      	subs	r2, r2, r0
   b4052:	f004 fa8b 	bl	b856c <memcpy>
    }

    memset(&link_bss_location, 0, link_bss_size );
   b4056:	4807      	ldr	r0, [pc, #28]	; (b4074 <module_user_pre_init+0x34>)
   b4058:	4a07      	ldr	r2, [pc, #28]	; (b4078 <module_user_pre_init+0x38>)
   b405a:	2100      	movs	r1, #0
   b405c:	1a12      	subs	r2, r2, r0
   b405e:	f004 faad 	bl	b85bc <memset>
    return &link_global_data_start;
}
   b4062:	4801      	ldr	r0, [pc, #4]	; (b4068 <module_user_pre_init+0x28>)
   b4064:	bd08      	pop	{r3, pc}
   b4066:	bf00      	nop
   b4068:	2003e548 	.word	0x2003e548
   b406c:	000b90ec 	.word	0x000b90ec
   b4070:	2003e5bc 	.word	0x2003e5bc
   b4074:	2003e5bc 	.word	0x2003e5bc
   b4078:	2003e7f0 	.word	0x2003e7f0

000b407c <module_user_init>:
extern constructor_ptr_t link_constructors_location[];
extern constructor_ptr_t link_constructors_end;
#define link_constructors_size   ((unsigned long)&link_constructors_end  -  (unsigned long)&link_constructors_location )

void module_user_init()
{
   b407c:	b570      	push	{r4, r5, r6, lr}
    module_user_init_hook();

    // invoke constructors
    for (size_t ctor_num=0; ctor_num < link_constructors_size/sizeof(constructor_ptr_t); ctor_num++ )
   b407e:	4e07      	ldr	r6, [pc, #28]	; (b409c <module_user_init+0x20>)
   b4080:	4c07      	ldr	r4, [pc, #28]	; (b40a0 <module_user_init+0x24>)
    module_user_init_hook();
   b4082:	f003 f8e3 	bl	b724c <module_user_init_hook>
    for (size_t ctor_num=0; ctor_num < link_constructors_size/sizeof(constructor_ptr_t); ctor_num++ )
   b4086:	1ba4      	subs	r4, r4, r6
   b4088:	08a4      	lsrs	r4, r4, #2
   b408a:	2500      	movs	r5, #0
   b408c:	42ac      	cmp	r4, r5
   b408e:	d100      	bne.n	b4092 <module_user_init+0x16>
    {
        link_constructors_location[ctor_num]();
    }
}
   b4090:	bd70      	pop	{r4, r5, r6, pc}
        link_constructors_location[ctor_num]();
   b4092:	f856 3b04 	ldr.w	r3, [r6], #4
   b4096:	4798      	blx	r3
    for (size_t ctor_num=0; ctor_num < link_constructors_size/sizeof(constructor_ptr_t); ctor_num++ )
   b4098:	3501      	adds	r5, #1
   b409a:	e7f7      	b.n	b408c <module_user_init+0x10>
   b409c:	000b90a4 	.word	0x000b90a4
   b40a0:	000b90c8 	.word	0x000b90c8

000b40a4 <module_user_setup>:

/**
 * Export these functions with a fuller name so they don't clash with the setup/loop wrappers in the system module.
 */
void module_user_setup() {
    setup();
   b40a4:	f000 b8b6 	b.w	b4214 <setup>

000b40a8 <module_user_loop>:
}

void module_user_loop() {
   b40a8:	b508      	push	{r3, lr}
    loop();
   b40aa:	f000 f90f 	bl	b42cc <loop>
    _post_loop();
}
   b40ae:	e8bd 4008 	ldmia.w	sp!, {r3, lr}
    _post_loop();
   b40b2:	f003 b883 	b.w	b71bc <_post_loop>

000b40b6 <_Znwj>:
 * Implement C++ new/delete operators using the heap
 */

void *operator new(size_t size)
{
	return malloc(size);
   b40b6:	f000 bfa1 	b.w	b4ffc <malloc>

000b40ba <_Znaj>:
   b40ba:	f000 bf9f 	b.w	b4ffc <malloc>

000b40be <_ZdaPv>:
   b40be:	f000 bfa5 	b.w	b500c <free>

000b40c2 <_ZdlPvj>:
	free(p);
}

void operator delete(void *p, size_t size)
{
	free(p);
   b40c2:	f000 bfa3 	b.w	b500c <free>
	...

000b40c8 <__cxa_pure_virtual>:
int __wrap_printf(const char* fmt, ...) {
    return -1;
}

/* Default implementation for call made to pure virtual function. */
void __cxa_pure_virtual() {
   b40c8:	b508      	push	{r3, lr}
  PANIC(PureVirtualCall,"Call on pure virtual");
   b40ca:	4a03      	ldr	r2, [pc, #12]	; (b40d8 <__cxa_pure_virtual+0x10>)
   b40cc:	4903      	ldr	r1, [pc, #12]	; (b40dc <__cxa_pure_virtual+0x14>)
   b40ce:	200c      	movs	r0, #12
   b40d0:	f000 fed8 	bl	b4e84 <panic_>
  while (1);
   b40d4:	e7fe      	b.n	b40d4 <__cxa_pure_virtual+0xc>
   b40d6:	bf00      	nop
   b40d8:	000b4acd 	.word	0x000b4acd
   b40dc:	000b88e0 	.word	0x000b88e0

000b40e0 <__cxa_guard_acquire>:

/* Provide default implemenation for __cxa_guard_acquire() and
 * __cxa_guard_release(). Note: these must be revisited if a multitasking
 * OS is ported to this platform. */
__extension__ typedef int __guard __attribute__((mode (__DI__)));
int __cxa_guard_acquire(__guard *g) {return !*(char *)(g);};
   b40e0:	7800      	ldrb	r0, [r0, #0]
   b40e2:	fab0 f080 	clz	r0, r0
   b40e6:	0940      	lsrs	r0, r0, #5
   b40e8:	4770      	bx	lr

000b40ea <__cxa_guard_release>:
void __cxa_guard_release (__guard *g) {*(char *)g = 1;};
   b40ea:	2301      	movs	r3, #1
   b40ec:	7003      	strb	r3, [r0, #0]
   b40ee:	4770      	bx	lr

000b40f0 <_ZN8particle11SPISettingsD1Ev>:
  SPISettings()
  {
  }

  virtual ~SPISettings() {
  }
   b40f0:	4770      	bx	lr

000b40f2 <_ZN5spark10LogHandler5writeEPKcj>:
    }
}

inline void spark::LogHandler::write(const char *data, size_t size) {
    // Default implementation does nothing
}
   b40f2:	4770      	bx	lr

000b40f4 <_Z8callbackPcPhj>:
#include "LIS3DH.h"

SYSTEM_THREAD(ENABLED);

//MQTT
void callback(char *topic, byte *payload, unsigned int length) {};
   b40f4:	4770      	bx	lr

000b40f6 <_ZN8particle11SPISettingsD0Ev>:
  virtual ~SPISettings() {
   b40f6:	b510      	push	{r4, lr}
  }
   b40f8:	2110      	movs	r1, #16
  virtual ~SPISettings() {
   b40fa:	4604      	mov	r4, r0
  }
   b40fc:	f7ff ffe1 	bl	b40c2 <_ZdlPvj>
   b4100:	4620      	mov	r0, r4
   b4102:	bd10      	pop	{r4, pc}

000b4104 <_ZN5spark16SerialLogHandlerD1Ev>:
            StreamLogHandler(Serial, level, filters) {
        Serial.begin(baud);
        LogManager::instance()->addHandler(this);
    }

    virtual ~SerialLogHandler() {
   b4104:	4b0a      	ldr	r3, [pc, #40]	; (b4130 <_ZN5spark16SerialLogHandlerD1Ev+0x2c>)
   b4106:	b510      	push	{r4, lr}
   b4108:	4604      	mov	r4, r0
   b410a:	6003      	str	r3, [r0, #0]
        LogManager::instance()->removeHandler(this);
   b410c:	f002 f9d6 	bl	b64bc <_ZN5spark10LogManager8instanceEv>
   b4110:	4621      	mov	r1, r4
   b4112:	f002 fc0e 	bl	b6932 <_ZN5spark10LogManager13removeHandlerEPNS_10LogHandlerE>
        Serial.end();
   b4116:	f003 f9bb 	bl	b7490 <_Z16_fetch_usbserialv>
   b411a:	f003 f9ad 	bl	b7478 <_ZN9USBSerial3endEv>
    virtual ~LogHandler() = default;
   b411e:	4620      	mov	r0, r4
   b4120:	4b04      	ldr	r3, [pc, #16]	; (b4134 <_ZN5spark16SerialLogHandlerD1Ev+0x30>)
   b4122:	f840 3b04 	str.w	r3, [r0], #4
   b4126:	f002 fa9f 	bl	b6668 <_ZN5spark6detail9LogFilterD1Ev>
    }
   b412a:	4620      	mov	r0, r4
   b412c:	bd10      	pop	{r4, pc}
   b412e:	bf00      	nop
   b4130:	000b89e8 	.word	0x000b89e8
   b4134:	000b89d0 	.word	0x000b89d0

000b4138 <_ZN5spark16SerialLogHandlerD0Ev>:
    virtual ~SerialLogHandler() {
   b4138:	b510      	push	{r4, lr}
   b413a:	4604      	mov	r4, r0
    }
   b413c:	f7ff ffe2 	bl	b4104 <_ZN5spark16SerialLogHandlerD1Ev>
   b4140:	4620      	mov	r0, r4
   b4142:	2124      	movs	r1, #36	; 0x24
   b4144:	f7ff ffbd 	bl	b40c2 <_ZdlPvj>
   b4148:	4620      	mov	r0, r4
   b414a:	bd10      	pop	{r4, pc}

000b414c <_ZN5Print6printfEPKcz>:
    size_t println(double, int = 2);
    size_t println(const Printable&);
    size_t println(void);
    size_t println(const __FlashStringHelper*);

    size_t printf(const char* format, ...) __attribute__ ((format(printf, 2, 3)))
   b414c:	b40e      	push	{r1, r2, r3}
   b414e:	b503      	push	{r0, r1, lr}
   b4150:	ab03      	add	r3, sp, #12
    {
        va_list args;
        va_start(args, format);
        auto r = this->vprintf(false, format, args);
   b4152:	2100      	movs	r1, #0
    size_t printf(const char* format, ...) __attribute__ ((format(printf, 2, 3)))
   b4154:	f853 2b04 	ldr.w	r2, [r3], #4
        va_start(args, format);
   b4158:	9301      	str	r3, [sp, #4]
        auto r = this->vprintf(false, format, args);
   b415a:	f001 fff8 	bl	b614e <_ZN5Print7vprintfEbPKcSt9__va_list>
        va_end(args);
        return r;
    }
   b415e:	b002      	add	sp, #8
   b4160:	f85d eb04 	ldr.w	lr, [sp], #4
   b4164:	b003      	add	sp, #12
   b4166:	4770      	bx	lr

000b4168 <_ZNK8particle11SPISettings7printToER5Print>:
  bool operator!=(const SPISettings& other) const
  {
    return !(other == *this);
  }

  virtual size_t printTo(Print& p) const
   b4168:	b573      	push	{r0, r1, r4, r5, r6, lr}
   b416a:	4604      	mov	r4, r0
   b416c:	4608      	mov	r0, r1
  {
    if (default_ && clock_ == 0)
   b416e:	7922      	ldrb	r2, [r4, #4]
   b4170:	68a3      	ldr	r3, [r4, #8]
   b4172:	b132      	cbz	r2, b4182 <_ZNK8particle11SPISettings7printToER5Print+0x1a>
   b4174:	b9a3      	cbnz	r3, b41a0 <_ZNK8particle11SPISettings7printToER5Print+0x38>
      return p.print("<SPISettings default>");
   b4176:	490b      	ldr	r1, [pc, #44]	; (b41a4 <_ZNK8particle11SPISettings7printToER5Print+0x3c>)
    else
      return p.printf("<SPISettings %s%u %s MODE%u>", default_ ? "default " : "", (unsigned int)clock_,
          bitOrder_ == MSBFIRST ? "MSB" : "LSB", (unsigned int)dataMode_);
  }
   b4178:	b002      	add	sp, #8
   b417a:	e8bd 4070 	ldmia.w	sp!, {r4, r5, r6, lr}
      return p.print("<SPISettings default>");
   b417e:	f001 bfab 	b.w	b60d8 <_ZN5Print5printEPKc>
      return p.printf("<SPISettings %s%u %s MODE%u>", default_ ? "default " : "", (unsigned int)clock_,
   b4182:	4a09      	ldr	r2, [pc, #36]	; (b41a8 <_ZNK8particle11SPISettings7printToER5Print+0x40>)
   b4184:	7b26      	ldrb	r6, [r4, #12]
   b4186:	4d09      	ldr	r5, [pc, #36]	; (b41ac <_ZNK8particle11SPISettings7printToER5Print+0x44>)
   b4188:	4909      	ldr	r1, [pc, #36]	; (b41b0 <_ZNK8particle11SPISettings7printToER5Print+0x48>)
   b418a:	7b64      	ldrb	r4, [r4, #13]
   b418c:	2e01      	cmp	r6, #1
   b418e:	bf18      	it	ne
   b4190:	4629      	movne	r1, r5
   b4192:	e9cd 1400 	strd	r1, r4, [sp]
   b4196:	4907      	ldr	r1, [pc, #28]	; (b41b4 <_ZNK8particle11SPISettings7printToER5Print+0x4c>)
   b4198:	f7ff ffd8 	bl	b414c <_ZN5Print6printfEPKcz>
  }
   b419c:	b002      	add	sp, #8
   b419e:	bd70      	pop	{r4, r5, r6, pc}
      return p.printf("<SPISettings %s%u %s MODE%u>", default_ ? "default " : "", (unsigned int)clock_,
   b41a0:	4a05      	ldr	r2, [pc, #20]	; (b41b8 <_ZNK8particle11SPISettings7printToER5Print+0x50>)
   b41a2:	e7ef      	b.n	b4184 <_ZNK8particle11SPISettings7printToER5Print+0x1c>
   b41a4:	000b8906 	.word	0x000b8906
   b41a8:	000b8bce 	.word	0x000b8bce
   b41ac:	000b8902 	.word	0x000b8902
   b41b0:	000b88fe 	.word	0x000b88fe
   b41b4:	000b891c 	.word	0x000b891c
   b41b8:	000b88f5 	.word	0x000b88f5

000b41bc <_ZNK5spark6Logger4infoEPKcz>:
    va_start(args, fmt);
    log(LOG_LEVEL_TRACE, fmt, args);
    va_end(args);
}

inline void spark::Logger::info(const char *fmt, ...) const {
   b41bc:	b40e      	push	{r1, r2, r3}
   b41be:	b500      	push	{lr}
   b41c0:	b08c      	sub	sp, #48	; 0x30
   b41c2:	aa0d      	add	r2, sp, #52	; 0x34
}

inline void spark::Logger::log(LogLevel level, const char *fmt, va_list args) const {
    LogAttributes attr;
    attr.size = sizeof(LogAttributes);
    attr.flags = 0;
   b41c4:	f04f 0c20 	mov.w	ip, #32
inline void spark::Logger::info(const char *fmt, ...) const {
   b41c8:	f852 1b04 	ldr.w	r1, [r2], #4
    va_start(args, fmt);
   b41cc:	9203      	str	r2, [sp, #12]
    log_message_v(level, name_, &attr, nullptr, fmt, args);
   b41ce:	e9cd 1200 	strd	r1, r2, [sp]
    attr.flags = 0;
   b41d2:	2300      	movs	r3, #0
    log_message_v(level, name_, &attr, nullptr, fmt, args);
   b41d4:	6801      	ldr	r1, [r0, #0]
   b41d6:	aa04      	add	r2, sp, #16
   b41d8:	201e      	movs	r0, #30
    attr.flags = 0;
   b41da:	e9cd c304 	strd	ip, r3, [sp, #16]
    log_message_v(level, name_, &attr, nullptr, fmt, args);
   b41de:	f000 fe61 	bl	b4ea4 <log_message_v>
}
   b41e2:	b00c      	add	sp, #48	; 0x30
   b41e4:	f85d eb04 	ldr.w	lr, [sp], #4
   b41e8:	b003      	add	sp, #12
   b41ea:	4770      	bx	lr

000b41ec <_Z17connectedCallbackRKN8particle13BlePeerDeviceEPv>:

	}
}


void connectedCallback(const BlePeerDevice& peer, void* context) {
   b41ec:	b508      	push	{r3, lr}
	Log.info("connected");
   b41ee:	4902      	ldr	r1, [pc, #8]	; (b41f8 <_Z17connectedCallbackRKN8particle13BlePeerDeviceEPv+0xc>)
   b41f0:	4802      	ldr	r0, [pc, #8]	; (b41fc <_Z17connectedCallbackRKN8particle13BlePeerDeviceEPv+0x10>)
   b41f2:	f7ff ffe3 	bl	b41bc <_ZNK5spark6Logger4infoEPKcz>

}
   b41f6:	bd08      	pop	{r3, pc}
   b41f8:	000b8b43 	.word	0x000b8b43
   b41fc:	2003e6b8 	.word	0x2003e6b8

000b4200 <_Z20disconnectedCallbackRKN8particle13BlePeerDeviceEPv>:

void disconnectedCallback(const BlePeerDevice& peer, void* context) {
   b4200:	b508      	push	{r3, lr}
	Log.info("disconnected");
   b4202:	4902      	ldr	r1, [pc, #8]	; (b420c <_Z20disconnectedCallbackRKN8particle13BlePeerDeviceEPv+0xc>)
   b4204:	4802      	ldr	r0, [pc, #8]	; (b4210 <_Z20disconnectedCallbackRKN8particle13BlePeerDeviceEPv+0x10>)
   b4206:	f7ff ffd9 	bl	b41bc <_ZNK5spark6Logger4infoEPKcz>

   b420a:	bd08      	pop	{r3, pc}
   b420c:	000b8939 	.word	0x000b8939
   b4210:	2003e6b8 	.word	0x2003e6b8

000b4214 <setup>:
void setup() {
   b4214:	b570      	push	{r4, r5, r6, lr}
   b4216:	b094      	sub	sp, #80	; 0x50
	LIS3DHConfig config;
   b4218:	a804      	add	r0, sp, #16
   b421a:	f000 fb5c 	bl	b48d6 <_ZN12LIS3DHConfigC1Ev>
	config.setAccelMode(LIS3DH::RATE_100_HZ);
   b421e:	2150      	movs	r1, #80	; 0x50
   b4220:	a804      	add	r0, sp, #16
   b4222:	f000 fb65 	bl	b48f0 <_ZN12LIS3DHConfig12setAccelModeEh>
	accel.setup(config);
   b4226:	a904      	add	r1, sp, #16
   b4228:	4824      	ldr	r0, [pc, #144]	; (b42bc <setup+0xa8>)
   b422a:	4c25      	ldr	r4, [pc, #148]	; (b42c0 <setup+0xac>)
   b422c:	f000 fbc2 	bl	b49b4 <_ZN6LIS3DH5setupER12LIS3DHConfig>
	BLE.on();
   b4230:	f001 fb38 	bl	b58a4 <_ZN8particle14BleLocalDevice11getInstanceEv>
   b4234:	f001 fb52 	bl	b58dc <_ZNK8particle14BleLocalDevice2onEv>
	BLE.onConnected(connectedCallback, NULL);
   b4238:	f001 fb34 	bl	b58a4 <_ZN8particle14BleLocalDevice11getInstanceEv>
   b423c:	4921      	ldr	r1, [pc, #132]	; (b42c4 <setup+0xb0>)
   b423e:	2200      	movs	r2, #0
   b4240:	f001 fefb 	bl	b603a <_ZNK8particle14BleLocalDevice11onConnectedEPFvRKNS_13BlePeerDeviceEPvES4_>
	BLE.onDisconnected(disconnectedCallback, NULL);
   b4244:	f001 fb2e 	bl	b58a4 <_ZN8particle14BleLocalDevice11getInstanceEv>
   b4248:	491f      	ldr	r1, [pc, #124]	; (b42c8 <setup+0xb4>)
   b424a:	2200      	movs	r2, #0
   b424c:	f001 fed6 	bl	b5ffc <_ZNK8particle14BleLocalDevice14onDisconnectedEPFvRKNS_13BlePeerDeviceEPvES4_>
    BleAdvertisingData advData;
   b4250:	a807      	add	r0, sp, #28
   b4252:	f001 fd1d 	bl	b5c90 <_ZN8particle18BleAdvertisingDataC1Ev>
    advData.appendServiceUUID(serviceUuid);
   b4256:	cc0f      	ldmia	r4!, {r0, r1, r2, r3}
   b4258:	ad0a      	add	r5, sp, #40	; 0x28
   b425a:	c50f      	stmia	r5!, {r0, r1, r2, r3}
    size_t appendLocalName(const String& name);
    size_t appendAppearance(ble_sig_appearance_t appearance);

    template<typename T>
    size_t appendServiceUUID(T uuid, bool force = false) {
        BleUuid tempUUID(uuid);
   b425c:	ad0a      	add	r5, sp, #40	; 0x28
   b425e:	cd0f      	ldmia	r5!, {r0, r1, r2, r3}
   b4260:	6826      	ldr	r6, [r4, #0]
   b4262:	ac0f      	add	r4, sp, #60	; 0x3c
   b4264:	c40f      	stmia	r4!, {r0, r1, r2, r3}
        if (tempUUID.type() == BleUuidType::SHORT) {
   b4266:	a80f      	add	r0, sp, #60	; 0x3c
        BleUuid tempUUID(uuid);
   b4268:	6026      	str	r6, [r4, #0]
        if (tempUUID.type() == BleUuidType::SHORT) {
   b426a:	f001 f9fb 	bl	b5664 <_ZNK8particle7BleUuid4typeEv>
   b426e:	4604      	mov	r4, r0
            uint16_t uuid16 = tempUUID.shorted();
   b4270:	a80f      	add	r0, sp, #60	; 0x3c
        if (tempUUID.type() == BleUuidType::SHORT) {
   b4272:	b9dc      	cbnz	r4, b42ac <setup+0x98>
            uint16_t uuid16 = tempUUID.shorted();
   b4274:	f001 f9f8 	bl	b5668 <_ZNK8particle7BleUuid7shortedEv>
            return append(BleAdvertisingDataType::SERVICE_UUID_16BIT_COMPLETE, reinterpret_cast<const uint8_t*>(&uuid16), sizeof(uint16_t), force);
   b4278:	9400      	str	r4, [sp, #0]
            uint16_t uuid16 = tempUUID.shorted();
   b427a:	f8ad 000e 	strh.w	r0, [sp, #14]
            return append(BleAdvertisingDataType::SERVICE_UUID_16BIT_COMPLETE, reinterpret_cast<const uint8_t*>(&uuid16), sizeof(uint16_t), force);
   b427e:	2302      	movs	r3, #2
   b4280:	f10d 020e 	add.w	r2, sp, #14
   b4284:	2103      	movs	r1, #3
        }
        else {
            return append(BleAdvertisingDataType::SERVICE_UUID_128BIT_COMPLETE, tempUUID.rawBytes(), BLE_SIG_UUID_128BIT_LEN, force);
   b4286:	a807      	add	r0, sp, #28
   b4288:	f001 fcf7 	bl	b5c7a <_ZN8particle18BleAdvertisingData6appendENS_22BleAdvertisingDataTypeEPKhjb>
    BLE.advertise(&advData);
   b428c:	f001 fb0a 	bl	b58a4 <_ZN8particle14BleLocalDevice11getInstanceEv>
   b4290:	2200      	movs	r2, #0
   b4292:	a907      	add	r1, sp, #28
   b4294:	f001 fb98 	bl	b59c8 <_ZNK8particle14BleLocalDevice9advertiseEPNS_18BleAdvertisingDataES2_>
	BLE.setAdvertisingInterval(20);
   b4298:	f001 fb04 	bl	b58a4 <_ZN8particle14BleLocalDevice11getInstanceEv>
   b429c:	2114      	movs	r1, #20
   b429e:	f001 fb24 	bl	b58ea <_ZNK8particle14BleLocalDevice22setAdvertisingIntervalEt>
inline void* spark::DefaultAllocator::realloc(void* ptr, size_t size) {
    return ::realloc(ptr, size);
}

inline void spark::DefaultAllocator::free(void* ptr) {
    ::free(ptr);
   b42a2:	9807      	ldr	r0, [sp, #28]
   b42a4:	f000 feb2 	bl	b500c <free>
}
   b42a8:	b014      	add	sp, #80	; 0x50
   b42aa:	bd70      	pop	{r4, r5, r6, pc}
   b42ac:	f001 f9de 	bl	b566c <_ZNK8particle7BleUuid8rawBytesEv>
   b42b0:	2300      	movs	r3, #0
   b42b2:	9300      	str	r3, [sp, #0]
   b42b4:	4602      	mov	r2, r0
   b42b6:	2310      	movs	r3, #16
   b42b8:	2107      	movs	r1, #7
   b42ba:	e7e4      	b.n	b4286 <setup+0x72>
   b42bc:	2003e5c8 	.word	0x2003e5c8
   b42c0:	2003e674 	.word	0x2003e674
   b42c4:	000b41ed 	.word	0x000b41ed
   b42c8:	000b4201 	.word	0x000b4201

000b42cc <loop>:
void loop() {
   b42cc:	b530      	push	{r4, r5, lr}
   b42ce:	b08f      	sub	sp, #60	; 0x3c
  	if (accel.getSample(sample)) {
   b42d0:	4819      	ldr	r0, [pc, #100]	; (b4338 <loop+0x6c>)
   b42d2:	4669      	mov	r1, sp
   b42d4:	f000 fb44 	bl	b4960 <_ZN6LIS3DH9getSampleER12LIS3DHSample>
   b42d8:	b358      	cbz	r0, b4332 <loop+0x66>
		int y = sample.y;
   b42da:	f9bd 5002 	ldrsh.w	r5, [sp, #2]
		int z = sample.z;
   b42de:	f9bd 4004 	ldrsh.w	r4, [sp, #4]
		String xs = String(x);
   b42e2:	f9bd 1000 	ldrsh.w	r1, [sp]
   b42e6:	220a      	movs	r2, #10
   b42e8:	a802      	add	r0, sp, #8
   b42ea:	f001 f8c8 	bl	b547e <_ZN6StringC1Eih>
		String ys = String(y);
   b42ee:	220a      	movs	r2, #10
   b42f0:	4629      	mov	r1, r5
   b42f2:	a806      	add	r0, sp, #24
   b42f4:	f001 f8c3 	bl	b547e <_ZN6StringC1Eih>
		String zs = String(z);
   b42f8:	220a      	movs	r2, #10
   b42fa:	4621      	mov	r1, r4
   b42fc:	a80a      	add	r0, sp, #40	; 0x28
   b42fe:	f001 f8be 	bl	b547e <_ZN6StringC1Eih>
		client.publish("BAR/argonT/accel/x", xs);
   b4302:	9a02      	ldr	r2, [sp, #8]
   b4304:	490d      	ldr	r1, [pc, #52]	; (b433c <loop+0x70>)
   b4306:	480e      	ldr	r0, [pc, #56]	; (b4340 <loop+0x74>)
   b4308:	f000 fa71 	bl	b47ee <_ZN4MQTT7publishEPKcS1_>
		client.publish("BAR/argonT/accel/y", ys);
   b430c:	9a06      	ldr	r2, [sp, #24]
   b430e:	490d      	ldr	r1, [pc, #52]	; (b4344 <loop+0x78>)
   b4310:	480b      	ldr	r0, [pc, #44]	; (b4340 <loop+0x74>)
   b4312:	f000 fa6c 	bl	b47ee <_ZN4MQTT7publishEPKcS1_>
		client.publish("BAR/argonT/accel/z", zs);
   b4316:	9a0a      	ldr	r2, [sp, #40]	; 0x28
   b4318:	490b      	ldr	r1, [pc, #44]	; (b4348 <loop+0x7c>)
   b431a:	4809      	ldr	r0, [pc, #36]	; (b4340 <loop+0x74>)
   b431c:	f000 fa67 	bl	b47ee <_ZN4MQTT7publishEPKcS1_>
		String zs = String(z);
   b4320:	a80a      	add	r0, sp, #40	; 0x28
   b4322:	f000 fff9 	bl	b5318 <_ZN6StringD1Ev>
		String ys = String(y);
   b4326:	a806      	add	r0, sp, #24
   b4328:	f000 fff6 	bl	b5318 <_ZN6StringD1Ev>
		String xs = String(x);
   b432c:	a802      	add	r0, sp, #8
   b432e:	f000 fff3 	bl	b5318 <_ZN6StringD1Ev>
}
   b4332:	b00f      	add	sp, #60	; 0x3c
   b4334:	bd30      	pop	{r4, r5, pc}
   b4336:	bf00      	nop
   b4338:	2003e5c8 	.word	0x2003e5c8
   b433c:	000b8946 	.word	0x000b8946
   b4340:	2003e5f0 	.word	0x2003e5f0
   b4344:	000b8959 	.word	0x000b8959
   b4348:	000b896c 	.word	0x000b896c

000b434c <_ZN5spark6VectorINS_17LogCategoryFilterENS_16DefaultAllocatorEED1Ev>:
inline spark::Vector<T, AllocatorT>::Vector(Vector<T, AllocatorT>&& vector) : Vector() {
    swap(*this, vector);
}

template<typename T, typename AllocatorT>
inline spark::Vector<T, AllocatorT>::~Vector() {
   b434c:	b570      	push	{r4, r5, r6, lr}
    destruct(data_, data_ + size_);
   b434e:	e9d0 5300 	ldrd	r5, r3, [r0]
   b4352:	2614      	movs	r6, #20
inline spark::Vector<T, AllocatorT>::~Vector() {
   b4354:	4604      	mov	r4, r0
    destruct(data_, data_ + size_);
   b4356:	fb06 5603 	mla	r6, r6, r3, r5
        for (; p != end; ++p) {
   b435a:	42ae      	cmp	r6, r5
   b435c:	d004      	beq.n	b4368 <_ZN5spark6VectorINS_17LogCategoryFilterENS_16DefaultAllocatorEED1Ev+0x1c>
class LogCategoryFilter {
   b435e:	4628      	mov	r0, r5
   b4360:	f000 ffda 	bl	b5318 <_ZN6StringD1Ev>
   b4364:	3514      	adds	r5, #20
   b4366:	e7f8      	b.n	b435a <_ZN5spark6VectorINS_17LogCategoryFilterENS_16DefaultAllocatorEED1Ev+0xe>
    ::free(ptr);
   b4368:	6820      	ldr	r0, [r4, #0]
   b436a:	f000 fe4f 	bl	b500c <free>
    AllocatorT::free(data_);
}
   b436e:	4620      	mov	r0, r4
   b4370:	bd70      	pop	{r4, r5, r6, pc}

000b4372 <_ZN5spark6VectorINS_17LogCategoryFilterENS_16DefaultAllocatorEE4moveIS1_Li0EEEvPS1_S5_S5_>:
        if (dest > p && dest < end) {
   b4372:	4288      	cmp	r0, r1
    static void move(T* dest, T* p, T* end) {
   b4374:	b5f8      	push	{r3, r4, r5, r6, r7, lr}
   b4376:	4604      	mov	r4, r0
   b4378:	460d      	mov	r5, r1
   b437a:	4616      	mov	r6, r2
        if (dest > p && dest < end) {
   b437c:	d916      	bls.n	b43ac <_ZN5spark6VectorINS_17LogCategoryFilterENS_16DefaultAllocatorEE4moveIS1_Li0EEEvPS1_S5_S5_+0x3a>
   b437e:	4290      	cmp	r0, r2
   b4380:	d215      	bcs.n	b43ae <_ZN5spark6VectorINS_17LogCategoryFilterENS_16DefaultAllocatorEE4moveIS1_Li0EEEvPS1_S5_S5_+0x3c>
            --end;
   b4382:	f1a2 0614 	sub.w	r6, r2, #20
            dest += end - p - 1;
   b4386:	1a75      	subs	r5, r6, r1
   b4388:	f1a1 0714 	sub.w	r7, r1, #20
   b438c:	442c      	add	r4, r5
            for (; end != p; --end, --dest) {
   b438e:	42b7      	cmp	r7, r6
   b4390:	d01c      	beq.n	b43cc <_ZN5spark6VectorINS_17LogCategoryFilterENS_16DefaultAllocatorEE4moveIS1_Li0EEEvPS1_S5_S5_+0x5a>
                new(dest) T(std::move(*end));
   b4392:	b12c      	cbz	r4, b43a0 <_ZN5spark6VectorINS_17LogCategoryFilterENS_16DefaultAllocatorEE4moveIS1_Li0EEEvPS1_S5_S5_+0x2e>
   b4394:	4631      	mov	r1, r6
   b4396:	4620      	mov	r0, r4
   b4398:	f001 f83a 	bl	b5410 <_ZN6StringC1EOS_>
   b439c:	7c33      	ldrb	r3, [r6, #16]
   b439e:	7423      	strb	r3, [r4, #16]
   b43a0:	4630      	mov	r0, r6
   b43a2:	f000 ffb9 	bl	b5318 <_ZN6StringD1Ev>
            for (; end != p; --end, --dest) {
   b43a6:	3e14      	subs	r6, #20
   b43a8:	3c14      	subs	r4, #20
   b43aa:	e7f0      	b.n	b438e <_ZN5spark6VectorINS_17LogCategoryFilterENS_16DefaultAllocatorEE4moveIS1_Li0EEEvPS1_S5_S5_+0x1c>
        } else if (dest != p) {
   b43ac:	d00e      	beq.n	b43cc <_ZN5spark6VectorINS_17LogCategoryFilterENS_16DefaultAllocatorEE4moveIS1_Li0EEEvPS1_S5_S5_+0x5a>
            for (; p != end; ++p, ++dest) {
   b43ae:	42b5      	cmp	r5, r6
   b43b0:	d00c      	beq.n	b43cc <_ZN5spark6VectorINS_17LogCategoryFilterENS_16DefaultAllocatorEE4moveIS1_Li0EEEvPS1_S5_S5_+0x5a>
                new(dest) T(std::move(*p));
   b43b2:	b12c      	cbz	r4, b43c0 <_ZN5spark6VectorINS_17LogCategoryFilterENS_16DefaultAllocatorEE4moveIS1_Li0EEEvPS1_S5_S5_+0x4e>
   b43b4:	4629      	mov	r1, r5
   b43b6:	4620      	mov	r0, r4
   b43b8:	f001 f82a 	bl	b5410 <_ZN6StringC1EOS_>
   b43bc:	7c2b      	ldrb	r3, [r5, #16]
   b43be:	7423      	strb	r3, [r4, #16]
   b43c0:	4628      	mov	r0, r5
   b43c2:	f000 ffa9 	bl	b5318 <_ZN6StringD1Ev>
            for (; p != end; ++p, ++dest) {
   b43c6:	3514      	adds	r5, #20
   b43c8:	3414      	adds	r4, #20
   b43ca:	e7f0      	b.n	b43ae <_ZN5spark6VectorINS_17LogCategoryFilterENS_16DefaultAllocatorEE4moveIS1_Li0EEEvPS1_S5_S5_+0x3c>
    }
   b43cc:	bdf8      	pop	{r3, r4, r5, r6, r7, pc}

000b43ce <_ZN5spark6VectorINS_17LogCategoryFilterENS_16DefaultAllocatorEEC1ERKS3_>:
inline spark::Vector<T, AllocatorT>::Vector(const Vector<T, AllocatorT>& vector) : Vector() {
   b43ce:	e92d 41f0 	stmdb	sp!, {r4, r5, r6, r7, r8, lr}
        capacity_(0) {
   b43d2:	2300      	movs	r3, #0
   b43d4:	e9c0 3300 	strd	r3, r3, [r0]
   b43d8:	6083      	str	r3, [r0, #8]
    if (vector.size_ > 0 && realloc(vector.size_)) {
   b43da:	684f      	ldr	r7, [r1, #4]
   b43dc:	429f      	cmp	r7, r3
inline spark::Vector<T, AllocatorT>::Vector(const Vector<T, AllocatorT>& vector) : Vector() {
   b43de:	4604      	mov	r4, r0
   b43e0:	460e      	mov	r6, r1
    if (vector.size_ > 0 && realloc(vector.size_)) {
   b43e2:	dd23      	ble.n	b442c <_ZN5spark6VectorINS_17LogCategoryFilterENS_16DefaultAllocatorEEC1ERKS3_+0x5e>
            d = (T*)AllocatorT::malloc(n * sizeof(T));
   b43e4:	f04f 0814 	mov.w	r8, #20
    return ::malloc(size);
   b43e8:	fb08 f007 	mul.w	r0, r8, r7
   b43ec:	f000 fe06 	bl	b4ffc <malloc>
            if (!d) {
   b43f0:	4605      	mov	r5, r0
   b43f2:	b1d8      	cbz	r0, b442c <_ZN5spark6VectorINS_17LogCategoryFilterENS_16DefaultAllocatorEEC1ERKS3_+0x5e>
            move(d, data_, data_ + size_);
   b43f4:	e9d4 1200 	ldrd	r1, r2, [r4]
   b43f8:	fb08 1202 	mla	r2, r8, r2, r1
   b43fc:	f7ff ffb9 	bl	b4372 <_ZN5spark6VectorINS_17LogCategoryFilterENS_16DefaultAllocatorEE4moveIS1_Li0EEEvPS1_S5_S5_>
    ::free(ptr);
   b4400:	6820      	ldr	r0, [r4, #0]
   b4402:	f000 fe03 	bl	b500c <free>
        data_ = d;
   b4406:	6025      	str	r5, [r4, #0]
        capacity_ = n;
   b4408:	60a7      	str	r7, [r4, #8]
        copy(data_, vector.data_, vector.data_ + vector.size_);
   b440a:	e9d6 7300 	ldrd	r7, r3, [r6]
   b440e:	fb08 7803 	mla	r8, r8, r3, r7
        for (; it != end; ++it, ++dest) {
   b4412:	45b8      	cmp	r8, r7
   b4414:	d008      	beq.n	b4428 <_ZN5spark6VectorINS_17LogCategoryFilterENS_16DefaultAllocatorEEC1ERKS3_+0x5a>
   b4416:	4639      	mov	r1, r7
   b4418:	4628      	mov	r0, r5
   b441a:	f001 f813 	bl	b5444 <_ZN6StringC1ERKS_>
   b441e:	7c3b      	ldrb	r3, [r7, #16]
   b4420:	742b      	strb	r3, [r5, #16]
   b4422:	3714      	adds	r7, #20
   b4424:	3514      	adds	r5, #20
   b4426:	e7f4      	b.n	b4412 <_ZN5spark6VectorINS_17LogCategoryFilterENS_16DefaultAllocatorEEC1ERKS3_+0x44>
        size_ = vector.size_;
   b4428:	6873      	ldr	r3, [r6, #4]
   b442a:	6063      	str	r3, [r4, #4]
}
   b442c:	4620      	mov	r0, r4
   b442e:	e8bd 81f0 	ldmia.w	sp!, {r4, r5, r6, r7, r8, pc}
	...

000b4434 <_GLOBAL__sub_I__Z8callbackPcPhj>:
   b4434:	b530      	push	{r4, r5, lr}
SYSTEM_THREAD(ENABLED);
   b4436:	2100      	movs	r1, #0
   b4438:	b091      	sub	sp, #68	; 0x44
SYSTEM_THREAD(ENABLED);
   b443a:	2001      	movs	r0, #1
   b443c:	f000 fd5a 	bl	b4ef4 <system_thread_set_state>

#ifdef SYSTEM_VERSION_v151RC1
	// In 1.5.0-rc.1, SPI interfaces are handled differently. You can still pass in SPI, SPI1, etc.
	// but the code to handle it varies
	LIS3DHSPI(::particle::SpiProxy<HAL_SPI_INTERFACE1> &spiProxy, int ss = A2, int intPin = -1) : 
		LIS3DH(intPin), spi(spiProxy.instance()), ss(ss), spiSettings(10 * MHZ, MSBFIRST, SPI_MODE0){};
   b4440:	4c36      	ldr	r4, [pc, #216]	; (b451c <_GLOBAL__sub_I__Z8callbackPcPhj+0xe8>)
MQTT client("lab.thewcl.com", 1883, callback);
   b4442:	4937      	ldr	r1, [pc, #220]	; (b4520 <_GLOBAL__sub_I__Z8callbackPcPhj+0xec>)
   b4444:	4837      	ldr	r0, [pc, #220]	; (b4524 <_GLOBAL__sub_I__Z8callbackPcPhj+0xf0>)

template <hal_spi_interface_t Interface>
class SpiProxy {
public:
    static SPIClass& instance() {
        static SPIClass instance(Interface);
   b4446:	4d38      	ldr	r5, [pc, #224]	; (b4528 <_GLOBAL__sub_I__Z8callbackPcPhj+0xf4>)
   b4448:	2300      	movs	r3, #0
   b444a:	9300      	str	r3, [sp, #0]
   b444c:	f240 725b 	movw	r2, #1883	; 0x75b
   b4450:	4b36      	ldr	r3, [pc, #216]	; (b452c <_GLOBAL__sub_I__Z8callbackPcPhj+0xf8>)
   b4452:	f000 f8c5 	bl	b45e0 <_ZN4MQTTC1EPKctPFvPcPhjEb>
   b4456:	2108      	movs	r1, #8
   b4458:	4620      	mov	r0, r4
   b445a:	f000 fa53 	bl	b4904 <_ZN6LIS3DHC1Ei>
   b445e:	4b34      	ldr	r3, [pc, #208]	; (b4530 <_GLOBAL__sub_I__Z8callbackPcPhj+0xfc>)
   b4460:	6023      	str	r3, [r4, #0]
   b4462:	7829      	ldrb	r1, [r5, #0]
   b4464:	f3bf 8f5b 	dmb	ish
   b4468:	f011 0101 	ands.w	r1, r1, #1
   b446c:	d10b      	bne.n	b4486 <_GLOBAL__sub_I__Z8callbackPcPhj+0x52>
   b446e:	4628      	mov	r0, r5
   b4470:	9103      	str	r1, [sp, #12]
   b4472:	f7ff fe35 	bl	b40e0 <__cxa_guard_acquire>
   b4476:	9903      	ldr	r1, [sp, #12]
   b4478:	b128      	cbz	r0, b4486 <_GLOBAL__sub_I__Z8callbackPcPhj+0x52>
   b447a:	482e      	ldr	r0, [pc, #184]	; (b4534 <_GLOBAL__sub_I__Z8callbackPcPhj+0x100>)
   b447c:	f000 fe42 	bl	b5104 <_ZN8SPIClassC1E19hal_spi_interface_t>
   b4480:	4628      	mov	r0, r5
   b4482:	f7ff fe32 	bl	b40ea <__cxa_guard_release>
   b4486:	4b2b      	ldr	r3, [pc, #172]	; (b4534 <_GLOBAL__sub_I__Z8callbackPcPhj+0x100>)
      dataMode_{dataMode}
   b4488:	4a2b      	ldr	r2, [pc, #172]	; (b4538 <_GLOBAL__sub_I__Z8callbackPcPhj+0x104>)
   b448a:	60e3      	str	r3, [r4, #12]
   b448c:	61a2      	str	r2, [r4, #24]
   b448e:	2303      	movs	r3, #3
   b4490:	4a2a      	ldr	r2, [pc, #168]	; (b453c <_GLOBAL__sub_I__Z8callbackPcPhj+0x108>)
   b4492:	6123      	str	r3, [r4, #16]
   b4494:	6222      	str	r2, [r4, #32]
   b4496:	2300      	movs	r3, #0
   b4498:	2201      	movs	r2, #1
   b449a:	84a2      	strh	r2, [r4, #36]	; 0x24
   b449c:	7523      	strb	r3, [r4, #20]
   b449e:	7723      	strb	r3, [r4, #28]
        capacity_(0) {
   b44a0:	e9cd 3304 	strd	r3, r3, [sp, #16]
   b44a4:	9306      	str	r3, [sp, #24]
            StreamLogHandler(Serial, level, filters) {
   b44a6:	f002 fff3 	bl	b7490 <_Z16_fetch_usbserialv>
   b44aa:	a904      	add	r1, sp, #16
   b44ac:	4605      	mov	r5, r0
   b44ae:	a807      	add	r0, sp, #28
        filter_(level, filters) {
   b44b0:	4c23      	ldr	r4, [pc, #140]	; (b4540 <_GLOBAL__sub_I__Z8callbackPcPhj+0x10c>)
   b44b2:	f7ff ff8c 	bl	b43ce <_ZN5spark6VectorINS_17LogCategoryFilterENS_16DefaultAllocatorEEC1ERKS3_>
        stream_(&stream) {
   b44b6:	a907      	add	r1, sp, #28
   b44b8:	a80a      	add	r0, sp, #40	; 0x28
   b44ba:	f7ff ff88 	bl	b43ce <_ZN5spark6VectorINS_17LogCategoryFilterENS_16DefaultAllocatorEEC1ERKS3_>
        filter_(level, filters) {
   b44be:	4b21      	ldr	r3, [pc, #132]	; (b4544 <_GLOBAL__sub_I__Z8callbackPcPhj+0x110>)
   b44c0:	6023      	str	r3, [r4, #0]
   b44c2:	a90a      	add	r1, sp, #40	; 0x28
   b44c4:	a80d      	add	r0, sp, #52	; 0x34
   b44c6:	f7ff ff82 	bl	b43ce <_ZN5spark6VectorINS_17LogCategoryFilterENS_16DefaultAllocatorEEC1ERKS3_>
   b44ca:	aa0d      	add	r2, sp, #52	; 0x34
   b44cc:	211e      	movs	r1, #30
   b44ce:	1d20      	adds	r0, r4, #4
   b44d0:	f002 fb12 	bl	b6af8 <_ZN5spark6detail9LogFilterC1E8LogLevelNS_6VectorINS_17LogCategoryFilterENS_16DefaultAllocatorEEE>
   b44d4:	a80d      	add	r0, sp, #52	; 0x34
   b44d6:	f7ff ff39 	bl	b434c <_ZN5spark6VectorINS_17LogCategoryFilterENS_16DefaultAllocatorEED1Ev>
        stream_(&stream) {
   b44da:	a80a      	add	r0, sp, #40	; 0x28
   b44dc:	f7ff ff36 	bl	b434c <_ZN5spark6VectorINS_17LogCategoryFilterENS_16DefaultAllocatorEED1Ev>
   b44e0:	4b19      	ldr	r3, [pc, #100]	; (b4548 <_GLOBAL__sub_I__Z8callbackPcPhj+0x114>)
   b44e2:	6023      	str	r3, [r4, #0]
   b44e4:	6225      	str	r5, [r4, #32]
   b44e6:	a807      	add	r0, sp, #28
   b44e8:	f7ff ff30 	bl	b434c <_ZN5spark6VectorINS_17LogCategoryFilterENS_16DefaultAllocatorEED1Ev>
   b44ec:	4b17      	ldr	r3, [pc, #92]	; (b454c <_GLOBAL__sub_I__Z8callbackPcPhj+0x118>)
   b44ee:	6023      	str	r3, [r4, #0]
        Serial.begin();
   b44f0:	f002 ffce 	bl	b7490 <_Z16_fetch_usbserialv>
   b44f4:	f44f 5116 	mov.w	r1, #9600	; 0x2580
   b44f8:	f002 ffba 	bl	b7470 <_ZN9USBSerial5beginEl>
        LogManager::instance()->addHandler(this);
   b44fc:	f001 ffde 	bl	b64bc <_ZN5spark10LogManager8instanceEv>
   b4500:	4621      	mov	r1, r4
   b4502:	f002 f9cf 	bl	b68a4 <_ZN5spark10LogManager10addHandlerEPNS_10LogHandlerE>
SerialLogHandler logHandler;
   b4506:	a804      	add	r0, sp, #16
   b4508:	f7ff ff20 	bl	b434c <_ZN5spark6VectorINS_17LogCategoryFilterENS_16DefaultAllocatorEED1Ev>
BleUuid serviceUuid("afe7acc5-33a9-478f-bbe1-8944aa08e884");
   b450c:	4910      	ldr	r1, [pc, #64]	; (b4550 <_GLOBAL__sub_I__Z8callbackPcPhj+0x11c>)
   b450e:	4811      	ldr	r0, [pc, #68]	; (b4554 <_GLOBAL__sub_I__Z8callbackPcPhj+0x120>)
   b4510:	b011      	add	sp, #68	; 0x44
   b4512:	e8bd 4030 	ldmia.w	sp!, {r4, r5, lr}
BleUuid serviceUuid("afe7acc5-33a9-478f-bbe1-8944aa08e884");
   b4516:	f001 b91b 	b.w	b5750 <_ZN8particle7BleUuidC1EPKc>
   b451a:	bf00      	nop
   b451c:	2003e5c8 	.word	0x2003e5c8
   b4520:	000b897f 	.word	0x000b897f
   b4524:	2003e5f0 	.word	0x2003e5f0
   b4528:	2003e5bc 	.word	0x2003e5bc
   b452c:	000b40f5 	.word	0x000b40f5
   b4530:	000b8a30 	.word	0x000b8a30
   b4534:	2003e5c0 	.word	0x2003e5c0
   b4538:	000b89bc 	.word	0x000b89bc
   b453c:	00989680 	.word	0x00989680
   b4540:	2003e650 	.word	0x2003e650
   b4544:	000b89d0 	.word	0x000b89d0
   b4548:	000b8c08 	.word	0x000b8c08
   b454c:	000b89e8 	.word	0x000b89e8
   b4550:	000b898e 	.word	0x000b898e
   b4554:	2003e674 	.word	0x2003e674

000b4558 <_ZN4MQTT11MutexLockerC1EPS_>:
#if defined(SPARK)
#if defined(PLATFORM_ID)
#if (PLATFORM_ID == 0)
#else
            this->mqtt = mqtt;
            if (mqtt->thread)
   b4558:	f891 305c 	ldrb.w	r3, [r1, #92]	; 0x5c
        MutexLocker(MQTT *mqtt) {
   b455c:	b510      	push	{r4, lr}
   b455e:	4604      	mov	r4, r0
            this->mqtt = mqtt;
   b4560:	6001      	str	r1, [r0, #0]
            if (mqtt->thread)
   b4562:	b113      	cbz	r3, b456a <_ZN4MQTT11MutexLockerC1EPS_+0x12>
                os_mutex_lock(mqtt->mutex_lock);
   b4564:	6d88      	ldr	r0, [r1, #88]	; 0x58
   b4566:	f000 fb0d 	bl	b4b84 <os_mutex_lock>
#endif
#endif
#endif
        }
   b456a:	4620      	mov	r0, r4
   b456c:	bd10      	pop	{r4, pc}

000b456e <_ZN4MQTT11MutexLockerD1Ev>:
        ~MutexLocker() {
   b456e:	b510      	push	{r4, lr}
#if defined(SPARK)
#if defined(PLATFORM_ID)
#if (PLATFORM_ID == 0)
#else
            if (mqtt->thread)
   b4570:	6803      	ldr	r3, [r0, #0]
   b4572:	f893 205c 	ldrb.w	r2, [r3, #92]	; 0x5c
        ~MutexLocker() {
   b4576:	4604      	mov	r4, r0
            if (mqtt->thread)
   b4578:	b112      	cbz	r2, b4580 <_ZN4MQTT11MutexLockerD1Ev+0x12>
                os_mutex_unlock(mqtt->mutex_lock);
   b457a:	6d98      	ldr	r0, [r3, #88]	; 0x58
   b457c:	f000 fb0a 	bl	b4b94 <os_mutex_unlock>
#endif
#endif
#endif
        }
   b4580:	4620      	mov	r0, r4
   b4582:	bd10      	pop	{r4, pc}

000b4584 <_ZN4MQTT10initializeEPKcPKhtiiPFvPcPhjEb>:
    if (buffer != NULL)
      delete[] buffer;
}

void MQTT::initialize(const char* domain, const uint8_t *ip, uint16_t port, int keepalive, int maxpacketsize, 
                    void (*callback)(char*,uint8_t*,unsigned int), bool thread) {
   b4584:	b5f8      	push	{r3, r4, r5, r6, r7, lr}
   b4586:	461f      	mov	r7, r3
   b4588:	f89d 3024 	ldrb.w	r3, [sp, #36]	; 0x24
   b458c:	4604      	mov	r4, r0
   b458e:	460d      	mov	r5, r1
   b4590:	4616      	mov	r6, r2
    if (thread) {
   b4592:	b12b      	cbz	r3, b45a0 <_ZN4MQTT10initializeEPKcPKhtiiPFvPcPhjEb+0x1c>
        this->thread = true;
   b4594:	2301      	movs	r3, #1
   b4596:	f880 305c 	strb.w	r3, [r0, #92]	; 0x5c
        os_mutex_create(&mutex_lock);
   b459a:	3058      	adds	r0, #88	; 0x58
   b459c:	f000 faea 	bl	b4b74 <os_mutex_create>
    }
    this->callback = callback;
   b45a0:	9b08      	ldr	r3, [sp, #32]
   b45a2:	6323      	str	r3, [r4, #48]	; 0x30
    this->qoscallback = NULL;
   b45a4:	2300      	movs	r3, #0
   b45a6:	6363      	str	r3, [r4, #52]	; 0x34
    if (ip != NULL)
   b45a8:	b106      	cbz	r6, b45ac <_ZN4MQTT10initializeEPKcPKhtiiPFvPcPhjEb+0x28>
        this->ip = ip;
   b45aa:	64a6      	str	r6, [r4, #72]	; 0x48
    if (domain != NULL)
   b45ac:	b125      	cbz	r5, b45b8 <_ZN4MQTT10initializeEPKcPKhtiiPFvPcPhjEb+0x34>
        this->domain = domain;
   b45ae:	4629      	mov	r1, r5
   b45b0:	f104 0038 	add.w	r0, r4, #56	; 0x38
   b45b4:	f000 ff51 	bl	b545a <_ZN6StringaSEPKc>
    this->port = port;
    this->keepalive = keepalive;
   b45b8:	9b06      	ldr	r3, [sp, #24]
   b45ba:	6523      	str	r3, [r4, #80]	; 0x50

    // if maxpacketsize is over MQTT_MAX_PACKET_SIZE.
    this->maxpacketsize = (maxpacketsize <= MQTT_MAX_PACKET_SIZE ? MQTT_MAX_PACKET_SIZE : maxpacketsize);
   b45bc:	9b07      	ldr	r3, [sp, #28]
    if (buffer != NULL)
   b45be:	69e0      	ldr	r0, [r4, #28]
    this->port = port;
   b45c0:	f8a4 704c 	strh.w	r7, [r4, #76]	; 0x4c
    this->maxpacketsize = (maxpacketsize <= MQTT_MAX_PACKET_SIZE ? MQTT_MAX_PACKET_SIZE : maxpacketsize);
   b45c4:	2bff      	cmp	r3, #255	; 0xff
   b45c6:	bfb8      	it	lt
   b45c8:	23ff      	movlt	r3, #255	; 0xff
   b45ca:	f8a4 3054 	strh.w	r3, [r4, #84]	; 0x54
    if (buffer != NULL)
   b45ce:	b108      	cbz	r0, b45d4 <_ZN4MQTT10initializeEPKcPKhtiiPFvPcPhjEb+0x50>
      delete[] buffer;
   b45d0:	f7ff fd75 	bl	b40be <_ZdaPv>
    buffer = new uint8_t[this->maxpacketsize];
   b45d4:	f8b4 0054 	ldrh.w	r0, [r4, #84]	; 0x54
   b45d8:	f7ff fd6f 	bl	b40ba <_Znaj>
   b45dc:	61e0      	str	r0, [r4, #28]
}
   b45de:	bdf8      	pop	{r3, r4, r5, r6, r7, pc}

000b45e0 <_ZN4MQTTC1EPKctPFvPcPhjEb>:
MQTT::MQTT(const char* domain, uint16_t port, void (*callback)(char*,uint8_t*,unsigned int),
   b45e0:	e92d 41ff 	stmdb	sp!, {r0, r1, r2, r3, r4, r5, r6, r7, r8, lr}
   b45e4:	4604      	mov	r4, r0
            bool thread) {
   b45e6:	2500      	movs	r5, #0
MQTT::MQTT(const char* domain, uint16_t port, void (*callback)(char*,uint8_t*,unsigned int),
   b45e8:	4617      	mov	r7, r2
   b45ea:	4698      	mov	r8, r3
   b45ec:	460e      	mov	r6, r1
            bool thread) {
   b45ee:	f003 fad3 	bl	b7b98 <_ZN9TCPClientC1Ev>
   b45f2:	490d      	ldr	r1, [pc, #52]	; (b4628 <_ZN4MQTTC1EPKctPFvPcPhjEb+0x48>)
   b45f4:	61e5      	str	r5, [r4, #28]
   b45f6:	f104 0038 	add.w	r0, r4, #56	; 0x38
   b45fa:	f000 fed8 	bl	b53ae <_ZN6StringC1EPK19__FlashStringHelper>
    this->initialize(domain, NULL, port, MQTT_DEFAULT_KEEPALIVE, MQTT_MAX_PACKET_SIZE, callback, thread);
   b45fe:	f89d 3028 	ldrb.w	r3, [sp, #40]	; 0x28
            bool thread) {
   b4602:	64a5      	str	r5, [r4, #72]	; 0x48
    this->initialize(domain, NULL, port, MQTT_DEFAULT_KEEPALIVE, MQTT_MAX_PACKET_SIZE, callback, thread);
   b4604:	e9cd 8302 	strd	r8, r3, [sp, #8]
   b4608:	22ff      	movs	r2, #255	; 0xff
   b460a:	230f      	movs	r3, #15
   b460c:	e9cd 3200 	strd	r3, r2, [sp]
   b4610:	4620      	mov	r0, r4
            bool thread) {
   b4612:	f884 505c 	strb.w	r5, [r4, #92]	; 0x5c
    this->initialize(domain, NULL, port, MQTT_DEFAULT_KEEPALIVE, MQTT_MAX_PACKET_SIZE, callback, thread);
   b4616:	463b      	mov	r3, r7
   b4618:	462a      	mov	r2, r5
   b461a:	4631      	mov	r1, r6
   b461c:	f7ff ffb2 	bl	b4584 <_ZN4MQTT10initializeEPKcPKhtiiPFvPcPhjEb>
}
   b4620:	4620      	mov	r0, r4
   b4622:	b004      	add	sp, #16
   b4624:	e8bd 81f0 	ldmia.w	sp!, {r4, r5, r6, r7, r8, pc}
   b4628:	000b8bce 	.word	0x000b8bce

000b462c <_ZN4MQTT5writeEhPht>:
        return _client.write(buffer, length);
    }
    return false;
}

bool MQTT::write(uint8_t header, uint8_t* buf, uint16_t length) {
   b462c:	e92d 41f3 	stmdb	sp!, {r0, r1, r4, r5, r6, r7, r8, lr}
   b4630:	4615      	mov	r5, r2
   b4632:	461e      	mov	r6, r3
    uint8_t lenBuf[4];
    uint8_t llen = 0;
    uint8_t digit;
    uint8_t pos = 0;
    uint16_t rc;
    uint16_t len = length;
   b4634:	461a      	mov	r2, r3
bool MQTT::write(uint8_t header, uint8_t* buf, uint16_t length) {
   b4636:	4607      	mov	r7, r0
    uint8_t llen = 0;
   b4638:	2300      	movs	r3, #0
    do {
        digit = len % 128;
   b463a:	4696      	mov	lr, r2
        len = len / 128;
        if (len > 0) {
            digit |= 0x80;
        }
        lenBuf[pos++] = digit;
   b463c:	a802      	add	r0, sp, #8
        digit = len % 128;
   b463e:	f002 0c7f 	and.w	ip, r2, #127	; 0x7f
        if (len > 0) {
   b4642:	f1be 0f7f 	cmp.w	lr, #127	; 0x7f
        lenBuf[pos++] = digit;
   b4646:	f103 0401 	add.w	r4, r3, #1
   b464a:	4403      	add	r3, r0
            digit |= 0x80;
   b464c:	bf88      	it	hi
   b464e:	f04c 0c80 	orrhi.w	ip, ip, #128	; 0x80
        llen++;
    } while(len > 0);
   b4652:	f1be 0f7f 	cmp.w	lr, #127	; 0x7f
        len = len / 128;
   b4656:	ea4f 12d2 	mov.w	r2, r2, lsr #7
        lenBuf[pos++] = digit;
   b465a:	b2e4      	uxtb	r4, r4
   b465c:	f803 cc04 	strb.w	ip, [r3, #-4]
    } while(len > 0);
   b4660:	d81e      	bhi.n	b46a0 <_ZN4MQTT5writeEhPht+0x74>

    buf[4-llen] = header;
   b4662:	f1c4 0304 	rsb	r3, r4, #4
    for (int i = 0; i < llen; i++) {
        buf[5-llen+i] = lenBuf[i];
   b4666:	f1c4 0005 	rsb	r0, r4, #5
    buf[4-llen] = header;
   b466a:	54e9      	strb	r1, [r5, r3]
        buf[5-llen+i] = lenBuf[i];
   b466c:	4622      	mov	r2, r4
   b466e:	a901      	add	r1, sp, #4
   b4670:	4428      	add	r0, r5
    buf[4-llen] = header;
   b4672:	eb05 0803 	add.w	r8, r5, r3
        buf[5-llen+i] = lenBuf[i];
   b4676:	f003 ff79 	bl	b856c <memcpy>
    }
    rc = _client.write(buf+(4-llen), length+1+llen);
   b467a:	1c72      	adds	r2, r6, #1
   b467c:	4422      	add	r2, r4
   b467e:	4641      	mov	r1, r8
   b4680:	4638      	mov	r0, r7
   b4682:	f002 ffde 	bl	b7642 <_ZN9TCPClient5writeEPKhj>
   b4686:	4605      	mov	r5, r0

#ifdef __cplusplus
extern "C" {
#endif

inline system_tick_t millis(void) { return HAL_Timer_Get_Milli_Seconds(); }
   b4688:	f000 fa28 	bl	b4adc <HAL_Timer_Get_Milli_Seconds>

    lastOutActivity = millis();
    return (rc == 1+llen+length);
   b468c:	1c62      	adds	r2, r4, #1
    lastOutActivity = millis();
   b468e:	6278      	str	r0, [r7, #36]	; 0x24
    return (rc == 1+llen+length);
   b4690:	4432      	add	r2, r6
   b4692:	b2a8      	uxth	r0, r5
}
   b4694:	1a13      	subs	r3, r2, r0
   b4696:	4258      	negs	r0, r3
   b4698:	4158      	adcs	r0, r3
   b469a:	b002      	add	sp, #8
   b469c:	e8bd 81f0 	ldmia.w	sp!, {r4, r5, r6, r7, r8, pc}
        lenBuf[pos++] = digit;
   b46a0:	4623      	mov	r3, r4
   b46a2:	e7ca      	b.n	b463a <_ZN4MQTT5writeEhPht+0xe>

000b46a4 <_ZN4MQTT11writeStringEPKcPht>:
}

uint16_t MQTT::writeString(const char* string, uint8_t* buf, uint16_t pos) {
    const char* idp = string;
    uint16_t i = 0;
    pos += 2;
   b46a4:	3302      	adds	r3, #2
uint16_t MQTT::writeString(const char* string, uint8_t* buf, uint16_t pos) {
   b46a6:	b5f0      	push	{r4, r5, r6, r7, lr}
   b46a8:	4605      	mov	r5, r0
    pos += 2;
   b46aa:	b298      	uxth	r0, r3
   b46ac:	2300      	movs	r3, #0
    while (*idp && pos < this->maxpacketsize) {
   b46ae:	5cce      	ldrb	r6, [r1, r3]
   b46b0:	b29c      	uxth	r4, r3
   b46b2:	b156      	cbz	r6, b46ca <_ZN4MQTT11writeStringEPKcPht+0x26>
   b46b4:	f8b5 c054 	ldrh.w	ip, [r5, #84]	; 0x54
   b46b8:	4584      	cmp	ip, r0
   b46ba:	f103 0701 	add.w	r7, r3, #1
   b46be:	d904      	bls.n	b46ca <_ZN4MQTT11writeStringEPKcPht+0x26>
        buf[pos++] = *idp++;
   b46c0:	1c44      	adds	r4, r0, #1
   b46c2:	5416      	strb	r6, [r2, r0]
    while (*idp && pos < this->maxpacketsize) {
   b46c4:	463b      	mov	r3, r7
        buf[pos++] = *idp++;
   b46c6:	b2a0      	uxth	r0, r4
    while (*idp && pos < this->maxpacketsize) {
   b46c8:	e7f1      	b.n	b46ae <_ZN4MQTT11writeStringEPKcPht+0xa>
        i++;
    }
    buf[pos-i-2] = (i >> 8);
   b46ca:	b299      	uxth	r1, r3
   b46cc:	1a41      	subs	r1, r0, r1
   b46ce:	440a      	add	r2, r1
   b46d0:	0a21      	lsrs	r1, r4, #8
   b46d2:	f802 1c02 	strb.w	r1, [r2, #-2]
    buf[pos-i-1] = (i & 0xFF);
   b46d6:	f802 3c01 	strb.w	r3, [r2, #-1]
    return pos;
}
   b46da:	bdf0      	pop	{r4, r5, r6, r7, pc}

000b46dc <_ZN4MQTT11isConnectedEv>:


bool MQTT::isConnected() {
   b46dc:	b538      	push	{r3, r4, r5, lr}
   b46de:	4604      	mov	r4, r0
    bool rc = (int)_client.connected();
   b46e0:	f003 f8d8 	bl	b7894 <_ZN9TCPClient9connectedEv>
   b46e4:	2800      	cmp	r0, #0
   b46e6:	bf14      	ite	ne
   b46e8:	2501      	movne	r5, #1
   b46ea:	2500      	moveq	r5, #0
    if (!rc) _client.stop();
   b46ec:	d102      	bne.n	b46f4 <_ZN4MQTT11isConnectedEv+0x18>
   b46ee:	4620      	mov	r0, r4
   b46f0:	f003 fa08 	bl	b7b04 <_ZN9TCPClient4stopEv>
    return rc;
}
   b46f4:	4628      	mov	r0, r5
   b46f6:	bd38      	pop	{r3, r4, r5, pc}

000b46f8 <_ZN4MQTT7publishEPKcPKhjbNS_9EMQTT_QOSEbPt>:
bool MQTT::publish(const char* topic, const uint8_t* payload, unsigned int plength, bool retain, EMQTT_QOS qos, bool dup, uint16_t *messageid) {
   b46f8:	e92d 4ff7 	stmdb	sp!, {r0, r1, r2, r4, r5, r6, r7, r8, r9, sl, fp, lr}
   b46fc:	f8dd 803c 	ldr.w	r8, [sp, #60]	; 0x3c
   b4700:	f89d 5034 	ldrb.w	r5, [sp, #52]	; 0x34
   b4704:	f89d 9038 	ldrb.w	r9, [sp, #56]	; 0x38
   b4708:	4604      	mov	r4, r0
   b470a:	468b      	mov	fp, r1
   b470c:	4616      	mov	r6, r2
   b470e:	461f      	mov	r7, r3
    if (isConnected()) {
   b4710:	f7ff ffe4 	bl	b46dc <_ZN4MQTT11isConnectedEv>
   b4714:	4682      	mov	sl, r0
   b4716:	2800      	cmp	r0, #0
   b4718:	d051      	beq.n	b47be <_ZN4MQTT7publishEPKcPKhjbNS_9EMQTT_QOSEbPt+0xc6>
        MutexLocker lock(this);
   b471a:	4621      	mov	r1, r4
   b471c:	a801      	add	r0, sp, #4
   b471e:	f7ff ff1b 	bl	b4558 <_ZN4MQTT11MutexLockerC1EPS_>
        memset(buffer, 0, this->maxpacketsize);
   b4722:	f8b4 2054 	ldrh.w	r2, [r4, #84]	; 0x54
   b4726:	69e0      	ldr	r0, [r4, #28]
   b4728:	2100      	movs	r1, #0
   b472a:	f003 ff47 	bl	b85bc <memset>
        length = writeString(topic, buffer, length);
   b472e:	2305      	movs	r3, #5
   b4730:	69e2      	ldr	r2, [r4, #28]
   b4732:	4659      	mov	r1, fp
   b4734:	4620      	mov	r0, r4
   b4736:	f7ff ffb5 	bl	b46a4 <_ZN4MQTT11writeStringEPKcPht>
        if (qos == QOS2 || qos == QOS1) {
   b473a:	1e6b      	subs	r3, r5, #1
   b473c:	2b01      	cmp	r3, #1
   b473e:	d815      	bhi.n	b476c <_ZN4MQTT7publishEPKcPKhjbNS_9EMQTT_QOSEbPt+0x74>
            nextMsgId += 1;
   b4740:	8c21      	ldrh	r1, [r4, #32]
            buffer[length++] = (nextMsgId >> 8);
   b4742:	69e3      	ldr	r3, [r4, #28]
            nextMsgId += 1;
   b4744:	3101      	adds	r1, #1
   b4746:	b289      	uxth	r1, r1
   b4748:	8421      	strh	r1, [r4, #32]
            buffer[length++] = (nextMsgId >> 8);
   b474a:	0a09      	lsrs	r1, r1, #8
   b474c:	5419      	strb	r1, [r3, r0]
   b474e:	1c42      	adds	r2, r0, #1
            buffer[length++] = (nextMsgId & 0xFF);
   b4750:	69e3      	ldr	r3, [r4, #28]
   b4752:	8c21      	ldrh	r1, [r4, #32]
            buffer[length++] = (nextMsgId >> 8);
   b4754:	b292      	uxth	r2, r2
            buffer[length++] = (nextMsgId & 0xFF);
   b4756:	3002      	adds	r0, #2
   b4758:	5499      	strb	r1, [r3, r2]
   b475a:	b280      	uxth	r0, r0
            if (messageid != NULL)
   b475c:	f1b8 0f00 	cmp.w	r8, #0
   b4760:	d004      	beq.n	b476c <_ZN4MQTT7publishEPKcPKhjbNS_9EMQTT_QOSEbPt+0x74>
                *messageid = nextMsgId++;
   b4762:	8c23      	ldrh	r3, [r4, #32]
   b4764:	1c5a      	adds	r2, r3, #1
   b4766:	8422      	strh	r2, [r4, #32]
   b4768:	f8a8 3000 	strh.w	r3, [r8]
bool MQTT::publish(const char* topic, const uint8_t* payload, unsigned int plength, bool retain, EMQTT_QOS qos, bool dup, uint16_t *messageid) {
   b476c:	2100      	movs	r1, #0
   b476e:	180b      	adds	r3, r1, r0
        for (uint16_t i=0; i < plength && length < this->maxpacketsize; i++) {
   b4770:	428f      	cmp	r7, r1
            buffer[length++] = payload[i];
   b4772:	69e2      	ldr	r2, [r4, #28]
   b4774:	b29b      	uxth	r3, r3
        for (uint16_t i=0; i < plength && length < this->maxpacketsize; i++) {
   b4776:	d90a      	bls.n	b478e <_ZN4MQTT7publishEPKcPKhjbNS_9EMQTT_QOSEbPt+0x96>
   b4778:	f8b4 c054 	ldrh.w	ip, [r4, #84]	; 0x54
   b477c:	459c      	cmp	ip, r3
   b477e:	d906      	bls.n	b478e <_ZN4MQTT7publishEPKcPKhjbNS_9EMQTT_QOSEbPt+0x96>
            buffer[length++] = payload[i];
   b4780:	f816 c001 	ldrb.w	ip, [r6, r1]
   b4784:	f802 c003 	strb.w	ip, [r2, r3]
        for (uint16_t i=0; i < plength && length < this->maxpacketsize; i++) {
   b4788:	3101      	adds	r1, #1
   b478a:	b289      	uxth	r1, r1
   b478c:	e7ef      	b.n	b476e <_ZN4MQTT7publishEPKcPKhjbNS_9EMQTT_QOSEbPt+0x76>
            header |= 1;
   b478e:	f89d 1030 	ldrb.w	r1, [sp, #48]	; 0x30
   b4792:	2900      	cmp	r1, #0
   b4794:	bf0c      	ite	eq
   b4796:	2130      	moveq	r1, #48	; 0x30
   b4798:	2131      	movne	r1, #49	; 0x31
        if (dup) {
   b479a:	f1b9 0f00 	cmp.w	r9, #0
   b479e:	d001      	beq.n	b47a4 <_ZN4MQTT7publishEPKcPKhjbNS_9EMQTT_QOSEbPt+0xac>
            header |= DUP_FLAG_ON_MASK;
   b47a0:	f041 0108 	orr.w	r1, r1, #8
        if (qos == QOS2)
   b47a4:	2d02      	cmp	r5, #2
   b47a6:	d10e      	bne.n	b47c6 <_ZN4MQTT7publishEPKcPKhjbNS_9EMQTT_QOSEbPt+0xce>
            header |= MQTTQOS2_HEADER_MASK;
   b47a8:	f041 0104 	orr.w	r1, r1, #4
        return write(header, buffer, length-5);
   b47ac:	3b05      	subs	r3, #5
   b47ae:	b29b      	uxth	r3, r3
   b47b0:	4620      	mov	r0, r4
   b47b2:	f7ff ff3b 	bl	b462c <_ZN4MQTT5writeEhPht>
   b47b6:	4682      	mov	sl, r0
        MutexLocker lock(this);
   b47b8:	a801      	add	r0, sp, #4
   b47ba:	f7ff fed8 	bl	b456e <_ZN4MQTT11MutexLockerD1Ev>
}
   b47be:	4650      	mov	r0, sl
   b47c0:	b003      	add	sp, #12
   b47c2:	e8bd 8ff0 	ldmia.w	sp!, {r4, r5, r6, r7, r8, r9, sl, fp, pc}
        else if (qos == QOS1)
   b47c6:	2d01      	cmp	r5, #1
            header |= MQTTQOS1_HEADER_MASK;
   b47c8:	bf08      	it	eq
   b47ca:	f041 0102 	orreq.w	r1, r1, #2
   b47ce:	e7ed      	b.n	b47ac <_ZN4MQTT7publishEPKcPKhjbNS_9EMQTT_QOSEbPt+0xb4>

000b47d0 <_ZN4MQTT7publishEPKcPKhjbNS_9EMQTT_QOSEPt>:
bool MQTT::publish(const char* topic, const uint8_t* payload, unsigned int plength, bool retain, EMQTT_QOS qos, uint16_t *messageid) {
   b47d0:	b51f      	push	{r0, r1, r2, r3, r4, lr}
    return publish(topic, payload, plength, retain, qos, false, messageid);
   b47d2:	9c08      	ldr	r4, [sp, #32]
   b47d4:	9403      	str	r4, [sp, #12]
   b47d6:	2400      	movs	r4, #0
   b47d8:	9402      	str	r4, [sp, #8]
   b47da:	f89d 401c 	ldrb.w	r4, [sp, #28]
   b47de:	9401      	str	r4, [sp, #4]
   b47e0:	f89d 4018 	ldrb.w	r4, [sp, #24]
   b47e4:	9400      	str	r4, [sp, #0]
   b47e6:	f7ff ff87 	bl	b46f8 <_ZN4MQTT7publishEPKcPKhjbNS_9EMQTT_QOSEbPt>
}
   b47ea:	b004      	add	sp, #16
   b47ec:	bd10      	pop	{r4, pc}

000b47ee <_ZN4MQTT7publishEPKcS1_>:
bool MQTT::publish(const char* topic, const char* payload) {
   b47ee:	b530      	push	{r4, r5, lr}
   b47f0:	b087      	sub	sp, #28
   b47f2:	4604      	mov	r4, r0
    return publish(topic, (uint8_t*)payload, strlen(payload), false, QOS0, NULL);
   b47f4:	4610      	mov	r0, r2
bool MQTT::publish(const char* topic, const char* payload) {
   b47f6:	9105      	str	r1, [sp, #20]
    return publish(topic, (uint8_t*)payload, strlen(payload), false, QOS0, NULL);
   b47f8:	9204      	str	r2, [sp, #16]
   b47fa:	f7ff fc19 	bl	b4030 <strlen>
   b47fe:	2500      	movs	r5, #0
   b4800:	4603      	mov	r3, r0
   b4802:	e9cd 5501 	strd	r5, r5, [sp, #4]
   b4806:	e9dd 2104 	ldrd	r2, r1, [sp, #16]
   b480a:	9500      	str	r5, [sp, #0]
   b480c:	4620      	mov	r0, r4
   b480e:	f7ff ffdf 	bl	b47d0 <_ZN4MQTT7publishEPKcPKhjbNS_9EMQTT_QOSEPt>
}
   b4812:	b007      	add	sp, #28
   b4814:	bd30      	pop	{r4, r5, pc}

000b4816 <_ZN9LIS3DHSPID1Ev>:

LIS3DHSPI::LIS3DHSPI(SPIClass &spi, int ss, int intPin) : LIS3DH(intPin), spi(spi), ss(ss), spiSettings(10 * MHZ, MSBFIRST, SPI_MODE0) {
}

LIS3DHSPI::~LIS3DHSPI() {
}
   b4816:	4770      	bx	lr

000b4818 <_ZN9LIS3DHSPID0Ev>:
LIS3DHSPI::~LIS3DHSPI() {
   b4818:	b510      	push	{r4, lr}
}
   b481a:	2128      	movs	r1, #40	; 0x28
LIS3DHSPI::~LIS3DHSPI() {
   b481c:	4604      	mov	r4, r0
}
   b481e:	f7ff fc50 	bl	b40c2 <_ZdlPvj>
   b4822:	4620      	mov	r0, r4
   b4824:	bd10      	pop	{r4, pc}

000b4826 <_ZN9LIS3DHSPI16beginTransactionEv>:

void LIS3DHSPI::spiSetup() {
	// No longer used; SPI transactions are always used now
}

void LIS3DHSPI::beginTransaction() {
   b4826:	b510      	push	{r4, lr}
   b4828:	4604      	mov	r4, r0
	spi.beginTransaction(spiSettings);
   b482a:	f100 0118 	add.w	r1, r0, #24
   b482e:	68c0      	ldr	r0, [r0, #12]
   b4830:	f000 fca0 	bl	b5174 <_ZN8SPIClass16beginTransactionERKN8particle11SPISettingsE>

	digitalWrite(ss, LOW);
   b4834:	8a20      	ldrh	r0, [r4, #16]
   b4836:	2100      	movs	r1, #0
}
   b4838:	e8bd 4010 	ldmia.w	sp!, {r4, lr}
	digitalWrite(ss, LOW);
   b483c:	f003 bcc6 	b.w	b81cc <digitalWrite>

000b4840 <_ZN9LIS3DHSPI14endTransactionEv>:

void LIS3DHSPI::endTransaction() {
   b4840:	b510      	push	{r4, lr}
   b4842:	4604      	mov	r4, r0
	digitalWrite(ss, HIGH);
   b4844:	2101      	movs	r1, #1
   b4846:	8a00      	ldrh	r0, [r0, #16]
   b4848:	f003 fcc0 	bl	b81cc <digitalWrite>

	spi.endTransaction();
   b484c:	68e0      	ldr	r0, [r4, #12]
}
   b484e:	e8bd 4010 	ldmia.w	sp!, {r4, lr}
	spi.endTransaction();
   b4852:	f000 bc75 	b.w	b5140 <_ZN8SPIClass14endTransactionEv>

000b4856 <_ZN9LIS3DHSPI8readDataEhPhj>:

bool LIS3DHSPI::readData(uint8_t addr, uint8_t *buf, size_t numBytes) {
   b4856:	b5f8      	push	{r3, r4, r5, r6, r7, lr}
   b4858:	461e      	mov	r6, r3
	beginTransaction();
   b485a:	6803      	ldr	r3, [r0, #0]
   b485c:	695b      	ldr	r3, [r3, #20]
bool LIS3DHSPI::readData(uint8_t addr, uint8_t *buf, size_t numBytes) {
   b485e:	460f      	mov	r7, r1
   b4860:	4614      	mov	r4, r2
   b4862:	4605      	mov	r5, r0
	beginTransaction();
   b4864:	4798      	blx	r3

	if (numBytes > 1) {
   b4866:	2e01      	cmp	r6, #1
		addr |= SPI_INCREMENT;
   b4868:	bf88      	it	hi
   b486a:	f047 0740 	orrhi.w	r7, r7, #64	; 0x40
	}

	spi.transfer(SPI_READ | addr);
   b486e:	68e8      	ldr	r0, [r5, #12]
   b4870:	f047 0180 	orr.w	r1, r7, #128	; 0x80
   b4874:	f000 fcec 	bl	b5250 <_ZN8SPIClass8transferEh>

	for(size_t ii = 0; ii < numBytes; ii++) {
   b4878:	4426      	add	r6, r4
   b487a:	42b4      	cmp	r4, r6
   b487c:	d006      	beq.n	b488c <_ZN9LIS3DHSPI8readDataEhPhj+0x36>
		buf[ii] = spi.transfer(0);
   b487e:	68e8      	ldr	r0, [r5, #12]
   b4880:	2100      	movs	r1, #0
   b4882:	f000 fce5 	bl	b5250 <_ZN8SPIClass8transferEh>
   b4886:	f804 0b01 	strb.w	r0, [r4], #1
	for(size_t ii = 0; ii < numBytes; ii++) {
   b488a:	e7f6      	b.n	b487a <_ZN9LIS3DHSPI8readDataEhPhj+0x24>
	}

	endTransaction();
   b488c:	682b      	ldr	r3, [r5, #0]
   b488e:	4628      	mov	r0, r5
   b4890:	699b      	ldr	r3, [r3, #24]
   b4892:	4798      	blx	r3

	return true;
}
   b4894:	2001      	movs	r0, #1
   b4896:	bdf8      	pop	{r3, r4, r5, r6, r7, pc}

000b4898 <_ZN9LIS3DHSPI9writeDataEhPKhj>:

bool LIS3DHSPI::writeData(uint8_t addr, const uint8_t *buf, size_t numBytes) {
   b4898:	b5f8      	push	{r3, r4, r5, r6, r7, lr}
   b489a:	461e      	mov	r6, r3
	beginTransaction();
   b489c:	6803      	ldr	r3, [r0, #0]
   b489e:	695b      	ldr	r3, [r3, #20]
bool LIS3DHSPI::writeData(uint8_t addr, const uint8_t *buf, size_t numBytes) {
   b48a0:	460f      	mov	r7, r1
   b48a2:	4614      	mov	r4, r2
   b48a4:	4605      	mov	r5, r0
	beginTransaction();
   b48a6:	4798      	blx	r3

	if (numBytes > 1) {
   b48a8:	2e01      	cmp	r6, #1
		addr |= SPI_INCREMENT;
   b48aa:	bf88      	it	hi
   b48ac:	f047 0740 	orrhi.w	r7, r7, #64	; 0x40
	}

	spi.transfer(addr);
   b48b0:	68e8      	ldr	r0, [r5, #12]
   b48b2:	4639      	mov	r1, r7
   b48b4:	f000 fccc 	bl	b5250 <_ZN8SPIClass8transferEh>
	for(size_t ii = 0; ii < numBytes; ii++) {
   b48b8:	4426      	add	r6, r4
   b48ba:	42b4      	cmp	r4, r6
   b48bc:	d005      	beq.n	b48ca <_ZN9LIS3DHSPI9writeDataEhPKhj+0x32>
		spi.transfer(buf[ii]);
   b48be:	f814 1b01 	ldrb.w	r1, [r4], #1
   b48c2:	68e8      	ldr	r0, [r5, #12]
   b48c4:	f000 fcc4 	bl	b5250 <_ZN8SPIClass8transferEh>
	for(size_t ii = 0; ii < numBytes; ii++) {
   b48c8:	e7f7      	b.n	b48ba <_ZN9LIS3DHSPI9writeDataEhPKhj+0x22>
	}

	endTransaction();
   b48ca:	682b      	ldr	r3, [r5, #0]
   b48cc:	4628      	mov	r0, r5
   b48ce:	699b      	ldr	r3, [r3, #24]
   b48d0:	4798      	blx	r3

	return true;
}
   b48d2:	2001      	movs	r0, #1
   b48d4:	bdf8      	pop	{r3, r4, r5, r6, r7, pc}

000b48d6 <_ZN12LIS3DHConfigC1Ev>:
LIS3DHConfig::LIS3DHConfig() {
   b48d6:	2200      	movs	r2, #0
   b48d8:	7002      	strb	r2, [r0, #0]
   b48da:	7042      	strb	r2, [r0, #1]
   b48dc:	7082      	strb	r2, [r0, #2]
   b48de:	70c2      	strb	r2, [r0, #3]
   b48e0:	7102      	strb	r2, [r0, #4]
   b48e2:	7142      	strb	r2, [r0, #5]
   b48e4:	7182      	strb	r2, [r0, #6]
   b48e6:	71c2      	strb	r2, [r0, #7]
   b48e8:	7202      	strb	r2, [r0, #8]
   b48ea:	7242      	strb	r2, [r0, #9]
   b48ec:	7282      	strb	r2, [r0, #10]
}
   b48ee:	4770      	bx	lr

000b48f0 <_ZN12LIS3DHConfig12setAccelModeEh>:
	reg2 = reg3 = reg5 = 0;
   b48f0:	2200      	movs	r2, #0
	reg1 = rate | LIS3DH::CTRL_REG1_ZEN | LIS3DH::CTRL_REG1_YEN | LIS3DH::CTRL_REG1_XEN;
   b48f2:	f041 0107 	orr.w	r1, r1, #7
   b48f6:	7001      	strb	r1, [r0, #0]
	reg2 = reg3 = reg5 = 0;
   b48f8:	7102      	strb	r2, [r0, #4]
   b48fa:	7082      	strb	r2, [r0, #2]
   b48fc:	7042      	strb	r2, [r0, #1]
	int1_ths = 0;
   b48fe:	71c2      	strb	r2, [r0, #7]
	int1_cfg = 0;
   b4900:	7242      	strb	r2, [r0, #9]
}
   b4902:	4770      	bx	lr

000b4904 <_ZN6LIS3DHC1Ei>:
LIS3DH::LIS3DH(int intPin) : intPin(intPin) {
   b4904:	4a02      	ldr	r2, [pc, #8]	; (b4910 <_ZN6LIS3DHC1Ei+0xc>)
   b4906:	e9c0 2100 	strd	r2, r1, [r0]
   b490a:	2200      	movs	r2, #0
   b490c:	7202      	strb	r2, [r0, #8]
}
   b490e:	4770      	bx	lr
   b4910:	000b8a14 	.word	0x000b8a14

000b4914 <_ZN6LIS3DH13readRegister8Eh>:
uint8_t LIS3DH::readRegister8(uint8_t addr) {
   b4914:	b513      	push	{r0, r1, r4, lr}
	readData(addr, resp, sizeof(resp));
   b4916:	6803      	ldr	r3, [r0, #0]
   b4918:	aa01      	add	r2, sp, #4
   b491a:	68dc      	ldr	r4, [r3, #12]
   b491c:	2301      	movs	r3, #1
   b491e:	47a0      	blx	r4
}
   b4920:	f89d 0004 	ldrb.w	r0, [sp, #4]
   b4924:	b002      	add	sp, #8
   b4926:	bd10      	pop	{r4, pc}

000b4928 <_ZN6LIS3DH9hasDeviceEv>:
bool LIS3DH::hasDevice() {
   b4928:	b538      	push	{r3, r4, r5, lr}
   b492a:	4605      	mov	r5, r0
   b492c:	240a      	movs	r4, #10
		uint8_t whoami = readRegister8(REG_WHO_AM_I);
   b492e:	210f      	movs	r1, #15
   b4930:	4628      	mov	r0, r5
   b4932:	f7ff ffef 	bl	b4914 <_ZN6LIS3DH13readRegister8Eh>
		if (whoami == WHO_AM_I) {
   b4936:	2833      	cmp	r0, #51	; 0x33
			found = true;
   b4938:	f04f 0001 	mov.w	r0, #1
		if (whoami == WHO_AM_I) {
   b493c:	d004      	beq.n	b4948 <_ZN6LIS3DH9hasDeviceEv+0x20>
		delay(1);
   b493e:	f002 fbfb 	bl	b7138 <delay>
	for(int tries = 0; tries < 10; tries++) {
   b4942:	3c01      	subs	r4, #1
   b4944:	d1f3      	bne.n	b492e <_ZN6LIS3DH9hasDeviceEv+0x6>
	bool found = false;
   b4946:	4620      	mov	r0, r4
}
   b4948:	bd38      	pop	{r3, r4, r5, pc}

000b494a <_ZN9LIS3DHSPI9hasDeviceEv>:
bool LIS3DHSPI::hasDevice() {
   b494a:	b510      	push	{r4, lr}
   b494c:	4604      	mov	r4, r0
	spi.begin(ss);
   b494e:	8a01      	ldrh	r1, [r0, #16]
   b4950:	68c0      	ldr	r0, [r0, #12]
   b4952:	f000 fbe1 	bl	b5118 <_ZN8SPIClass5beginEt>
	return LIS3DH::hasDevice();
   b4956:	4620      	mov	r0, r4
}
   b4958:	e8bd 4010 	ldmia.w	sp!, {r4, lr}
	return LIS3DH::hasDevice();
   b495c:	f7ff bfe4 	b.w	b4928 <_ZN6LIS3DH9hasDeviceEv>

000b4960 <_ZN6LIS3DH9getSampleER12LIS3DHSample>:
bool LIS3DH::getSample(LIS3DHSample &sample) {
   b4960:	b5f7      	push	{r0, r1, r2, r4, r5, r6, r7, lr}
   b4962:	460c      	mov	r4, r1
	uint8_t statusAuxReg = readRegister8(REG_STATUS_REG);
   b4964:	2127      	movs	r1, #39	; 0x27
bool LIS3DH::getSample(LIS3DHSample &sample) {
   b4966:	4605      	mov	r5, r0
	uint8_t statusAuxReg = readRegister8(REG_STATUS_REG);
   b4968:	f7ff ffd4 	bl	b4914 <_ZN6LIS3DH13readRegister8Eh>
	bool hasData = ((statusAuxReg & STATUS_ZYXDA) != 0);
   b496c:	f000 0008 	and.w	r0, r0, #8
   b4970:	2800      	cmp	r0, #0
   b4972:	bf14      	ite	ne
   b4974:	2601      	movne	r6, #1
   b4976:	2600      	moveq	r6, #0
	if (hasData) {
   b4978:	d00f      	beq.n	b499a <_ZN6LIS3DH9getSampleER12LIS3DHSample+0x3a>
		readData(REG_OUT_X_L, resp, sizeof(resp));
   b497a:	682b      	ldr	r3, [r5, #0]
   b497c:	466a      	mov	r2, sp
   b497e:	68df      	ldr	r7, [r3, #12]
   b4980:	2128      	movs	r1, #40	; 0x28
   b4982:	2306      	movs	r3, #6
   b4984:	4628      	mov	r0, r5
   b4986:	47b8      	blx	r7
		sample.x = (int16_t) (resp[0] | (((uint16_t)resp[1]) << 8));
   b4988:	f8bd 3000 	ldrh.w	r3, [sp]
   b498c:	8023      	strh	r3, [r4, #0]
		sample.y = (int16_t) (resp[2] | (((uint16_t)resp[3]) << 8));
   b498e:	f8bd 3002 	ldrh.w	r3, [sp, #2]
   b4992:	8063      	strh	r3, [r4, #2]
		sample.z = (int16_t) (resp[4] | (((uint16_t)resp[5]) << 8));
   b4994:	f8bd 3004 	ldrh.w	r3, [sp, #4]
   b4998:	80a3      	strh	r3, [r4, #4]
}
   b499a:	4630      	mov	r0, r6
   b499c:	b003      	add	sp, #12
   b499e:	bdf0      	pop	{r4, r5, r6, r7, pc}

000b49a0 <_ZN6LIS3DH14writeRegister8Ehh>:
void LIS3DH::writeRegister8(uint8_t addr, uint8_t value) {
   b49a0:	b513      	push	{r0, r1, r4, lr}
	writeData(addr, req, sizeof(req));
   b49a2:	6803      	ldr	r3, [r0, #0]
	req[0] = value;
   b49a4:	f88d 2004 	strb.w	r2, [sp, #4]
	writeData(addr, req, sizeof(req));
   b49a8:	691c      	ldr	r4, [r3, #16]
   b49aa:	aa01      	add	r2, sp, #4
   b49ac:	2301      	movs	r3, #1
   b49ae:	47a0      	blx	r4
}
   b49b0:	b002      	add	sp, #8
   b49b2:	bd10      	pop	{r4, pc}

000b49b4 <_ZN6LIS3DH5setupER12LIS3DHConfig>:
bool LIS3DH::setup(LIS3DHConfig &config) {
   b49b4:	b570      	push	{r4, r5, r6, lr}
	if (!hasDevice()) {
   b49b6:	6803      	ldr	r3, [r0, #0]
   b49b8:	689b      	ldr	r3, [r3, #8]
bool LIS3DH::setup(LIS3DHConfig &config) {
   b49ba:	4604      	mov	r4, r0
   b49bc:	460d      	mov	r5, r1
	if (!hasDevice()) {
   b49be:	4798      	blx	r3
   b49c0:	4606      	mov	r6, r0
   b49c2:	b930      	cbnz	r0, b49d2 <_ZN6LIS3DH5setupER12LIS3DHConfig+0x1e>
		Serial.println("device not found");
   b49c4:	f002 fd64 	bl	b7490 <_Z16_fetch_usbserialv>
   b49c8:	4927      	ldr	r1, [pc, #156]	; (b4a68 <_ZN6LIS3DH5setupER12LIS3DHConfig+0xb4>)
   b49ca:	f001 fb98 	bl	b60fe <_ZN5Print7printlnEPKc>
}
   b49ce:	4630      	mov	r0, r6
   b49d0:	bd70      	pop	{r4, r5, r6, pc}
	writeRegister8(REG_CTRL_REG1, config.reg1);
   b49d2:	782a      	ldrb	r2, [r5, #0]
   b49d4:	2120      	movs	r1, #32
   b49d6:	4620      	mov	r0, r4
   b49d8:	f7ff ffe2 	bl	b49a0 <_ZN6LIS3DH14writeRegister8Ehh>
	writeRegister8(REG_CTRL_REG2, config.reg2);
   b49dc:	786a      	ldrb	r2, [r5, #1]
   b49de:	2121      	movs	r1, #33	; 0x21
   b49e0:	4620      	mov	r0, r4
   b49e2:	f7ff ffdd 	bl	b49a0 <_ZN6LIS3DH14writeRegister8Ehh>
	writeRegister8(REG_CTRL_REG3, config.reg3);
   b49e6:	78aa      	ldrb	r2, [r5, #2]
   b49e8:	2122      	movs	r1, #34	; 0x22
   b49ea:	4620      	mov	r0, r4
   b49ec:	f7ff ffd8 	bl	b49a0 <_ZN6LIS3DH14writeRegister8Ehh>
	writeRegister8(REG_CTRL_REG4, config.reg4);
   b49f0:	78ea      	ldrb	r2, [r5, #3]
   b49f2:	2123      	movs	r1, #35	; 0x23
   b49f4:	4620      	mov	r0, r4
   b49f6:	f7ff ffd3 	bl	b49a0 <_ZN6LIS3DH14writeRegister8Ehh>
	writeRegister8(REG_CTRL_REG5, config.reg5);
   b49fa:	792a      	ldrb	r2, [r5, #4]
   b49fc:	2124      	movs	r1, #36	; 0x24
   b49fe:	4620      	mov	r0, r4
   b4a00:	f7ff ffce 	bl	b49a0 <_ZN6LIS3DH14writeRegister8Ehh>
	writeRegister8(REG_CTRL_REG6, config.reg6);
   b4a04:	796a      	ldrb	r2, [r5, #5]
   b4a06:	2125      	movs	r1, #37	; 0x25
   b4a08:	4620      	mov	r0, r4
   b4a0a:	f7ff ffc9 	bl	b49a0 <_ZN6LIS3DH14writeRegister8Ehh>
	if (config.setReference) {
   b4a0e:	79ab      	ldrb	r3, [r5, #6]
   b4a10:	b11b      	cbz	r3, b4a1a <_ZN6LIS3DH5setupER12LIS3DHConfig+0x66>
		readRegister8(REG_REFERENCE);
   b4a12:	2126      	movs	r1, #38	; 0x26
   b4a14:	4620      	mov	r0, r4
   b4a16:	f7ff ff7d 	bl	b4914 <_ZN6LIS3DH13readRegister8Eh>
	writeRegister8(REG_FIFO_CTRL_REG, config.fifoCtrlReg);
   b4a1a:	7aaa      	ldrb	r2, [r5, #10]
   b4a1c:	212e      	movs	r1, #46	; 0x2e
   b4a1e:	4620      	mov	r0, r4
   b4a20:	f7ff ffbe 	bl	b49a0 <_ZN6LIS3DH14writeRegister8Ehh>
	if ((config.reg3 & CTRL_REG3_I1_INT1) != 0) {
   b4a24:	78ab      	ldrb	r3, [r5, #2]
   b4a26:	065b      	lsls	r3, r3, #25
   b4a28:	d5d1      	bpl.n	b49ce <_ZN6LIS3DH5setupER12LIS3DHConfig+0x1a>
		writeRegister8(REG_INT1_THS, config.int1_ths);
   b4a2a:	79ea      	ldrb	r2, [r5, #7]
   b4a2c:	2132      	movs	r1, #50	; 0x32
   b4a2e:	4620      	mov	r0, r4
   b4a30:	f7ff ffb6 	bl	b49a0 <_ZN6LIS3DH14writeRegister8Ehh>
		writeRegister8(REG_INT1_DURATION, config.int1_duration);
   b4a34:	7a2a      	ldrb	r2, [r5, #8]
   b4a36:	2133      	movs	r1, #51	; 0x33
   b4a38:	4620      	mov	r0, r4
   b4a3a:	f7ff ffb1 	bl	b49a0 <_ZN6LIS3DH14writeRegister8Ehh>
		if (intPin >= 0) {
   b4a3e:	6863      	ldr	r3, [r4, #4]
   b4a40:	2b00      	cmp	r3, #0
   b4a42:	db0a      	blt.n	b4a5a <_ZN6LIS3DH5setupER12LIS3DHConfig+0xa6>
			int1_cfg = config.int1_cfg;
   b4a44:	7a6a      	ldrb	r2, [r5, #9]
   b4a46:	7222      	strb	r2, [r4, #8]
			writeRegister8(REG_INT1_CFG, int1_cfg);
   b4a48:	4620      	mov	r0, r4
   b4a4a:	2130      	movs	r1, #48	; 0x30
   b4a4c:	f7ff ffa8 	bl	b49a0 <_ZN6LIS3DH14writeRegister8Ehh>
			readRegister8(REG_INT1_SRC);
   b4a50:	2131      	movs	r1, #49	; 0x31
   b4a52:	4620      	mov	r0, r4
   b4a54:	f7ff ff5e 	bl	b4914 <_ZN6LIS3DH13readRegister8Eh>
   b4a58:	e7b9      	b.n	b49ce <_ZN6LIS3DH5setupER12LIS3DHConfig+0x1a>
			int1_cfg = 0;
   b4a5a:	2200      	movs	r2, #0
   b4a5c:	7222      	strb	r2, [r4, #8]
			writeRegister8(REG_INT1_CFG, 0);
   b4a5e:	2130      	movs	r1, #48	; 0x30
   b4a60:	4620      	mov	r0, r4
   b4a62:	f7ff ff9d 	bl	b49a0 <_ZN6LIS3DH14writeRegister8Ehh>
   b4a66:	e7b2      	b.n	b49ce <_ZN6LIS3DH5setupER12LIS3DHConfig+0x1a>
   b4a68:	000b89f8 	.word	0x000b89f8

000b4a6c <netdb_freeaddrinfo>:

DYNALIB_BEGIN(hal_netdb)

DYNALIB_FN(0, hal_netdb, netdb_gethostbyname, struct hostent*(const char*))
DYNALIB_FN(1, hal_netdb, netdb_gethostbyname_r, int(const char*, struct hostent*, char*, size_t, struct hostent**, int*))
DYNALIB_FN(2, hal_netdb, netdb_freeaddrinfo, void(struct addrinfo*))
   b4a6c:	b508      	push	{r3, lr}
   b4a6e:	4b02      	ldr	r3, [pc, #8]	; (b4a78 <netdb_freeaddrinfo+0xc>)
   b4a70:	681b      	ldr	r3, [r3, #0]
   b4a72:	689b      	ldr	r3, [r3, #8]
   b4a74:	9301      	str	r3, [sp, #4]
   b4a76:	bd08      	pop	{r3, pc}
   b4a78:	00030268 	.word	0x00030268

000b4a7c <netdb_getaddrinfo>:
DYNALIB_FN(3, hal_netdb, netdb_getaddrinfo, int(const char*, const char*, const struct addrinfo*, struct addrinfo**))
   b4a7c:	b508      	push	{r3, lr}
   b4a7e:	4b02      	ldr	r3, [pc, #8]	; (b4a88 <netdb_getaddrinfo+0xc>)
   b4a80:	681b      	ldr	r3, [r3, #0]
   b4a82:	68db      	ldr	r3, [r3, #12]
   b4a84:	9301      	str	r3, [sp, #4]
   b4a86:	bd08      	pop	{r3, pc}
   b4a88:	00030268 	.word	0x00030268

000b4a8c <hal_gpio_get_mode>:
DYNALIB_BEGIN(hal_gpio)

DYNALIB_FN(0, hal_gpio, hal_pin_map, hal_pin_info_t*(void))
DYNALIB_FN(1, hal_gpio, hal_pin_validate_function, PinFunction(hal_pin_t, PinFunction))
DYNALIB_FN(2, hal_gpio, hal_gpio_mode, void(hal_pin_t, PinMode))
DYNALIB_FN(3, hal_gpio, hal_gpio_get_mode, PinMode(hal_pin_t))
   b4a8c:	b508      	push	{r3, lr}
   b4a8e:	4b02      	ldr	r3, [pc, #8]	; (b4a98 <hal_gpio_get_mode+0xc>)
   b4a90:	681b      	ldr	r3, [r3, #0]
   b4a92:	68db      	ldr	r3, [r3, #12]
   b4a94:	9301      	str	r3, [sp, #4]
   b4a96:	bd08      	pop	{r3, pc}
   b4a98:	0003022c 	.word	0x0003022c

000b4a9c <hal_gpio_write>:
DYNALIB_FN(4, hal_gpio, hal_gpio_write, void(hal_pin_t, uint8_t))
   b4a9c:	b508      	push	{r3, lr}
   b4a9e:	4b02      	ldr	r3, [pc, #8]	; (b4aa8 <hal_gpio_write+0xc>)
   b4aa0:	681b      	ldr	r3, [r3, #0]
   b4aa2:	691b      	ldr	r3, [r3, #16]
   b4aa4:	9301      	str	r3, [sp, #4]
   b4aa6:	bd08      	pop	{r3, pc}
   b4aa8:	0003022c 	.word	0x0003022c

000b4aac <if_index_to_name>:
DYNALIB_FN(0, hal_ifapi, if_get_list, int(struct if_list**))
DYNALIB_FN(1, hal_ifapi, if_free_list, int(struct if_list*))
DYNALIB_FN(2, hal_ifapi, if_get_name_index, int(struct if_nameindex**))
DYNALIB_FN(3, hal_ifapi, if_free_name_index, int(struct if_nameindex*))
DYNALIB_FN(4, hal_ifapi, if_name_to_index, int(const char*, uint8_t*))
DYNALIB_FN(5, hal_ifapi, if_index_to_name, int(uint8_t, char*))
   b4aac:	b508      	push	{r3, lr}
   b4aae:	4b02      	ldr	r3, [pc, #8]	; (b4ab8 <if_index_to_name+0xc>)
   b4ab0:	681b      	ldr	r3, [r3, #0]
   b4ab2:	695b      	ldr	r3, [r3, #20]
   b4ab4:	9301      	str	r3, [sp, #4]
   b4ab6:	bd08      	pop	{r3, pc}
   b4ab8:	0003026c 	.word	0x0003026c

000b4abc <HAL_RNG_GetRandomNumber>:

DYNALIB_BEGIN(hal)

#if PLATFORM_ID > PLATFORM_GCC
DYNALIB_FN(0, hal, HAL_RNG_Configuration, void(void))
DYNALIB_FN(1, hal, HAL_RNG_GetRandomNumber, uint32_t(void))
   b4abc:	b508      	push	{r3, lr}
   b4abe:	4b02      	ldr	r3, [pc, #8]	; (b4ac8 <HAL_RNG_GetRandomNumber+0xc>)
   b4ac0:	681b      	ldr	r3, [r3, #0]
   b4ac2:	685b      	ldr	r3, [r3, #4]
   b4ac4:	9301      	str	r3, [sp, #4]
   b4ac6:	bd08      	pop	{r3, pc}
   b4ac8:	00030218 	.word	0x00030218

000b4acc <HAL_Delay_Microseconds>:
#else
#define BASE_IDX 0
#endif // PLATFORM_ID > PLATFORM_GCC

DYNALIB_FN(BASE_IDX + 0, hal, HAL_Delay_Milliseconds, void(uint32_t))
DYNALIB_FN(BASE_IDX + 1, hal, HAL_Delay_Microseconds, void(uint32_t))
   b4acc:	b508      	push	{r3, lr}
   b4ace:	4b02      	ldr	r3, [pc, #8]	; (b4ad8 <HAL_Delay_Microseconds+0xc>)
   b4ad0:	681b      	ldr	r3, [r3, #0]
   b4ad2:	68db      	ldr	r3, [r3, #12]
   b4ad4:	9301      	str	r3, [sp, #4]
   b4ad6:	bd08      	pop	{r3, pc}
   b4ad8:	00030218 	.word	0x00030218

000b4adc <HAL_Timer_Get_Milli_Seconds>:
DYNALIB_FN(BASE_IDX + 2, hal, HAL_Timer_Get_Micro_Seconds, system_tick_t(void))
DYNALIB_FN(BASE_IDX + 3, hal, HAL_Timer_Get_Milli_Seconds, system_tick_t(void))
   b4adc:	b508      	push	{r3, lr}
   b4ade:	4b02      	ldr	r3, [pc, #8]	; (b4ae8 <HAL_Timer_Get_Milli_Seconds+0xc>)
   b4ae0:	681b      	ldr	r3, [r3, #0]
   b4ae2:	695b      	ldr	r3, [r3, #20]
   b4ae4:	9301      	str	r3, [sp, #4]
   b4ae6:	bd08      	pop	{r3, pc}
   b4ae8:	00030218 	.word	0x00030218

000b4aec <hal_ble_stack_init>:

DYNALIB_BEGIN(hal_ble)

DYNALIB_FN(0, hal_ble, hal_ble_lock, int(void*))
DYNALIB_FN(1, hal_ble, hal_ble_unlock, int(void*))
DYNALIB_FN(2, hal_ble, hal_ble_stack_init, int(void*))
   b4aec:	b508      	push	{r3, lr}
   b4aee:	4b02      	ldr	r3, [pc, #8]	; (b4af8 <hal_ble_stack_init+0xc>)
   b4af0:	681b      	ldr	r3, [r3, #0]
   b4af2:	689b      	ldr	r3, [r3, #8]
   b4af4:	9301      	str	r3, [sp, #4]
   b4af6:	bd08      	pop	{r3, pc}
   b4af8:	00030278 	.word	0x00030278

000b4afc <hal_ble_gap_set_advertising_parameters>:
DYNALIB_FN(13, hal_ble, hal_ble_gap_get_ppcp, int(hal_ble_conn_params_t*, void*))
DYNALIB_FN(14, hal_ble, hal_ble_gap_add_whitelist, int(const hal_ble_addr_t*, size_t, void*))
DYNALIB_FN(15, hal_ble, hal_ble_gap_delete_whitelist, int(void*))
DYNALIB_FN(16, hal_ble, hal_ble_gap_set_tx_power, int(int8_t, void*))
DYNALIB_FN(17, hal_ble, hal_ble_gap_get_tx_power, int(int8_t*, void*))
DYNALIB_FN(18, hal_ble, hal_ble_gap_set_advertising_parameters, int(const hal_ble_adv_params_t*, void*))
   b4afc:	b508      	push	{r3, lr}
   b4afe:	4b02      	ldr	r3, [pc, #8]	; (b4b08 <hal_ble_gap_set_advertising_parameters+0xc>)
   b4b00:	681b      	ldr	r3, [r3, #0]
   b4b02:	6c9b      	ldr	r3, [r3, #72]	; 0x48
   b4b04:	9301      	str	r3, [sp, #4]
   b4b06:	bd08      	pop	{r3, pc}
   b4b08:	00030278 	.word	0x00030278

000b4b0c <hal_ble_gap_get_advertising_parameters>:
DYNALIB_FN(19, hal_ble, hal_ble_gap_get_advertising_parameters, int(hal_ble_adv_params_t*, void*))
   b4b0c:	b508      	push	{r3, lr}
   b4b0e:	4b02      	ldr	r3, [pc, #8]	; (b4b18 <hal_ble_gap_get_advertising_parameters+0xc>)
   b4b10:	681b      	ldr	r3, [r3, #0]
   b4b12:	6cdb      	ldr	r3, [r3, #76]	; 0x4c
   b4b14:	9301      	str	r3, [sp, #4]
   b4b16:	bd08      	pop	{r3, pc}
   b4b18:	00030278 	.word	0x00030278

000b4b1c <hal_ble_gap_set_advertising_data>:
DYNALIB_FN(20, hal_ble, hal_ble_gap_set_advertising_data, int(const uint8_t*, size_t, void*))
   b4b1c:	b508      	push	{r3, lr}
   b4b1e:	4b02      	ldr	r3, [pc, #8]	; (b4b28 <hal_ble_gap_set_advertising_data+0xc>)
   b4b20:	681b      	ldr	r3, [r3, #0]
   b4b22:	6d1b      	ldr	r3, [r3, #80]	; 0x50
   b4b24:	9301      	str	r3, [sp, #4]
   b4b26:	bd08      	pop	{r3, pc}
   b4b28:	00030278 	.word	0x00030278

000b4b2c <hal_ble_gap_set_scan_response_data>:
DYNALIB_FN(21, hal_ble, hal_ble_gap_get_advertising_data, ssize_t(uint8_t*, size_t, void*))
DYNALIB_FN(22, hal_ble, hal_ble_gap_set_scan_response_data, int(const uint8_t*, size_t, void*))
   b4b2c:	b508      	push	{r3, lr}
   b4b2e:	4b02      	ldr	r3, [pc, #8]	; (b4b38 <hal_ble_gap_set_scan_response_data+0xc>)
   b4b30:	681b      	ldr	r3, [r3, #0]
   b4b32:	6d9b      	ldr	r3, [r3, #88]	; 0x58
   b4b34:	9301      	str	r3, [sp, #4]
   b4b36:	bd08      	pop	{r3, pc}
   b4b38:	00030278 	.word	0x00030278

000b4b3c <hal_ble_gap_start_advertising>:
DYNALIB_FN(23, hal_ble, hal_ble_gap_get_scan_response_data, ssize_t(uint8_t*, size_t, void*))
DYNALIB_FN(24, hal_ble, hal_ble_gap_start_advertising, int(void*))
   b4b3c:	b508      	push	{r3, lr}
   b4b3e:	4b02      	ldr	r3, [pc, #8]	; (b4b48 <hal_ble_gap_start_advertising+0xc>)
   b4b40:	681b      	ldr	r3, [r3, #0]
   b4b42:	6e1b      	ldr	r3, [r3, #96]	; 0x60
   b4b44:	9301      	str	r3, [sp, #4]
   b4b46:	bd08      	pop	{r3, pc}
   b4b48:	00030278 	.word	0x00030278

000b4b4c <hal_ble_gap_disconnect>:
DYNALIB_FN(33, hal_ble, hal_ble_gap_stop_scan, int(void*))
DYNALIB_FN(34, hal_ble, hal_ble_gap_connect_deprecated, int(const hal_ble_addr_t*, void*))
DYNALIB_FN(35, hal_ble, hal_ble_gap_is_connecting, bool(const hal_ble_addr_t*, void*))
DYNALIB_FN(36, hal_ble, hal_ble_gap_is_connected, bool(const hal_ble_addr_t*, void*))
DYNALIB_FN(37, hal_ble, hal_ble_gap_connect_cancel, int(const hal_ble_addr_t*, void*))
DYNALIB_FN(38, hal_ble, hal_ble_gap_disconnect, int(hal_ble_conn_handle_t, void*))
   b4b4c:	b508      	push	{r3, lr}
   b4b4e:	4b03      	ldr	r3, [pc, #12]	; (b4b5c <hal_ble_gap_disconnect+0x10>)
   b4b50:	681b      	ldr	r3, [r3, #0]
   b4b52:	f8d3 3098 	ldr.w	r3, [r3, #152]	; 0x98
   b4b56:	9301      	str	r3, [sp, #4]
   b4b58:	bd08      	pop	{r3, pc}
   b4b5a:	0000      	.short	0x0000
   b4b5c:	00030278 	.word	0x00030278

000b4b60 <hal_ble_set_callback_on_periph_link_events>:
DYNALIB_FN(56, hal_ble, hal_ble_gatt_client_read, ssize_t(hal_ble_conn_handle_t, hal_ble_attr_handle_t, uint8_t*, size_t, void*))

DYNALIB_FN(57, hal_ble, hal_ble_gap_connect, int(const hal_ble_conn_cfg_t*, hal_ble_conn_handle_t*, void*))
DYNALIB_FN(58, hal_ble, hal_ble_gap_get_connection_info, int(hal_ble_conn_handle_t, hal_ble_conn_info_t*, void*))
DYNALIB_FN(59, hal_ble, hal_ble_gatt_server_add_characteristic, int(const hal_ble_char_init_t*, hal_ble_char_handles_t*, void*))
DYNALIB_FN(60, hal_ble, hal_ble_set_callback_on_periph_link_events, int(hal_ble_on_link_evt_cb_t, void*, void*))
   b4b60:	b508      	push	{r3, lr}
   b4b62:	4b03      	ldr	r3, [pc, #12]	; (b4b70 <hal_ble_set_callback_on_periph_link_events+0x10>)
   b4b64:	681b      	ldr	r3, [r3, #0]
   b4b66:	f8d3 30f0 	ldr.w	r3, [r3, #240]	; 0xf0
   b4b6a:	9301      	str	r3, [sp, #4]
   b4b6c:	bd08      	pop	{r3, pc}
   b4b6e:	0000      	.short	0x0000
   b4b70:	00030278 	.word	0x00030278

000b4b74 <os_mutex_create>:
DYNALIB_FN(8, hal_concurrent, os_timer_create, int(os_timer_t*, unsigned, void(*)(os_timer_t), void*, bool, void*))
DYNALIB_FN(9, hal_concurrent, os_timer_destroy, int(os_timer_t, void*))
DYNALIB_FN(10, hal_concurrent, os_timer_get_id, int(os_timer_t, void**))
DYNALIB_FN(11, hal_concurrent, os_timer_change, int(os_timer_t, os_timer_change_t, bool, unsigned, unsigned, void*))

DYNALIB_FN(12, hal_concurrent, os_mutex_create, int(os_mutex_t*))
   b4b74:	b508      	push	{r3, lr}
   b4b76:	4b02      	ldr	r3, [pc, #8]	; (b4b80 <os_mutex_create+0xc>)
   b4b78:	681b      	ldr	r3, [r3, #0]
   b4b7a:	6b1b      	ldr	r3, [r3, #48]	; 0x30
   b4b7c:	9301      	str	r3, [sp, #4]
   b4b7e:	bd08      	pop	{r3, pc}
   b4b80:	00030248 	.word	0x00030248

000b4b84 <os_mutex_lock>:
DYNALIB_FN(13, hal_concurrent, os_mutex_destroy, int(os_mutex_t))
DYNALIB_FN(14, hal_concurrent, os_mutex_lock, int(os_mutex_t))
   b4b84:	b508      	push	{r3, lr}
   b4b86:	4b02      	ldr	r3, [pc, #8]	; (b4b90 <os_mutex_lock+0xc>)
   b4b88:	681b      	ldr	r3, [r3, #0]
   b4b8a:	6b9b      	ldr	r3, [r3, #56]	; 0x38
   b4b8c:	9301      	str	r3, [sp, #4]
   b4b8e:	bd08      	pop	{r3, pc}
   b4b90:	00030248 	.word	0x00030248

000b4b94 <os_mutex_unlock>:
DYNALIB_FN(15, hal_concurrent, os_mutex_trylock, int(os_mutex_t))
DYNALIB_FN(16, hal_concurrent, os_mutex_unlock, int(os_mutex_t))
   b4b94:	b508      	push	{r3, lr}
   b4b96:	4b02      	ldr	r3, [pc, #8]	; (b4ba0 <os_mutex_unlock+0xc>)
   b4b98:	681b      	ldr	r3, [r3, #0]
   b4b9a:	6c1b      	ldr	r3, [r3, #64]	; 0x40
   b4b9c:	9301      	str	r3, [sp, #4]
   b4b9e:	bd08      	pop	{r3, pc}
   b4ba0:	00030248 	.word	0x00030248

000b4ba4 <os_mutex_recursive_create>:

DYNALIB_FN(17, hal_concurrent, os_mutex_recursive_create, int(os_mutex_recursive_t*))
   b4ba4:	b508      	push	{r3, lr}
   b4ba6:	4b02      	ldr	r3, [pc, #8]	; (b4bb0 <os_mutex_recursive_create+0xc>)
   b4ba8:	681b      	ldr	r3, [r3, #0]
   b4baa:	6c5b      	ldr	r3, [r3, #68]	; 0x44
   b4bac:	9301      	str	r3, [sp, #4]
   b4bae:	bd08      	pop	{r3, pc}
   b4bb0:	00030248 	.word	0x00030248

000b4bb4 <os_mutex_recursive_destroy>:
DYNALIB_FN(18, hal_concurrent, os_mutex_recursive_destroy, int(os_mutex_recursive_t))
   b4bb4:	b508      	push	{r3, lr}
   b4bb6:	4b02      	ldr	r3, [pc, #8]	; (b4bc0 <os_mutex_recursive_destroy+0xc>)
   b4bb8:	681b      	ldr	r3, [r3, #0]
   b4bba:	6c9b      	ldr	r3, [r3, #72]	; 0x48
   b4bbc:	9301      	str	r3, [sp, #4]
   b4bbe:	bd08      	pop	{r3, pc}
   b4bc0:	00030248 	.word	0x00030248

000b4bc4 <os_mutex_recursive_lock>:
DYNALIB_FN(19, hal_concurrent, os_mutex_recursive_lock, int(os_mutex_recursive_t))
   b4bc4:	b508      	push	{r3, lr}
   b4bc6:	4b02      	ldr	r3, [pc, #8]	; (b4bd0 <os_mutex_recursive_lock+0xc>)
   b4bc8:	681b      	ldr	r3, [r3, #0]
   b4bca:	6cdb      	ldr	r3, [r3, #76]	; 0x4c
   b4bcc:	9301      	str	r3, [sp, #4]
   b4bce:	bd08      	pop	{r3, pc}
   b4bd0:	00030248 	.word	0x00030248

000b4bd4 <os_mutex_recursive_unlock>:
DYNALIB_FN(20, hal_concurrent, os_mutex_recursive_trylock, int(os_mutex_recursive_t))
DYNALIB_FN(21, hal_concurrent, os_mutex_recursive_unlock, int(os_mutex_recursive_t))
   b4bd4:	b508      	push	{r3, lr}
   b4bd6:	4b02      	ldr	r3, [pc, #8]	; (b4be0 <os_mutex_recursive_unlock+0xc>)
   b4bd8:	681b      	ldr	r3, [r3, #0]
   b4bda:	6d5b      	ldr	r3, [r3, #84]	; 0x54
   b4bdc:	9301      	str	r3, [sp, #4]
   b4bde:	bd08      	pop	{r3, pc}
   b4be0:	00030248 	.word	0x00030248

000b4be4 <inet_inet_ntop>:
DYNALIB_FN(0, hal_inet, inet_inet_addr, in_addr_t(const char*))
DYNALIB_FN(1, hal_inet, inet_inet_aton, int(const char*, struct in_addr*))
DYNALIB_FN(2, hal_inet, inet_inet_network, in_addr_t(const char*))
DYNALIB_FN(3, hal_inet, inet_inet_ntoa, char*(struct in_addr))
DYNALIB_FN(4, hal_inet, inet_inet_ntoa_r, char*(struct in_addr, char*, socklen_t))
DYNALIB_FN(5, hal_inet, inet_inet_ntop, const char*(int, const void*, char*, socklen_t))
   b4be4:	b508      	push	{r3, lr}
   b4be6:	4b02      	ldr	r3, [pc, #8]	; (b4bf0 <inet_inet_ntop+0xc>)
   b4be8:	681b      	ldr	r3, [r3, #0]
   b4bea:	695b      	ldr	r3, [r3, #20]
   b4bec:	9301      	str	r3, [sp, #4]
   b4bee:	bd08      	pop	{r3, pc}
   b4bf0:	00030264 	.word	0x00030264

000b4bf4 <inet_htonl>:
DYNALIB_FN(6, hal_inet, inet_inet_pton, int(int, const char*, void*))
DYNALIB_FN(7, hal_inet, inet_ntohl, uint32_t(uint32_t))
DYNALIB_FN(8, hal_inet, inet_htonl, uint32_t(uint32_t))
   b4bf4:	b508      	push	{r3, lr}
   b4bf6:	4b02      	ldr	r3, [pc, #8]	; (b4c00 <inet_htonl+0xc>)
   b4bf8:	681b      	ldr	r3, [r3, #0]
   b4bfa:	6a1b      	ldr	r3, [r3, #32]
   b4bfc:	9301      	str	r3, [sp, #4]
   b4bfe:	bd08      	pop	{r3, pc}
   b4c00:	00030264 	.word	0x00030264

000b4c04 <inet_htons>:
DYNALIB_FN(9, hal_inet, inet_ntohs, uint16_t(uint16_t))
DYNALIB_FN(10, hal_inet, inet_htons, uint16_t(uint16_t))
   b4c04:	b508      	push	{r3, lr}
   b4c06:	4b02      	ldr	r3, [pc, #8]	; (b4c10 <inet_htons+0xc>)
   b4c08:	681b      	ldr	r3, [r3, #0]
   b4c0a:	6a9b      	ldr	r3, [r3, #40]	; 0x28
   b4c0c:	9301      	str	r3, [sp, #4]
   b4c0e:	bd08      	pop	{r3, pc}
   b4c10:	00030264 	.word	0x00030264

000b4c14 <hal_usart_end>:
#define BASE_IDX 0
#endif

DYNALIB_FN(BASE_IDX + 0, hal_usart, hal_usart_init, void(hal_usart_interface_t, hal_usart_ring_buffer_t*, hal_usart_ring_buffer_t*))
DYNALIB_FN(BASE_IDX + 1, hal_usart, hal_usart_begin, void(hal_usart_interface_t, uint32_t))
DYNALIB_FN(BASE_IDX + 2, hal_usart, hal_usart_end, void(hal_usart_interface_t))
   b4c14:	b508      	push	{r3, lr}
   b4c16:	4b02      	ldr	r3, [pc, #8]	; (b4c20 <hal_usart_end+0xc>)
   b4c18:	681b      	ldr	r3, [r3, #0]
   b4c1a:	689b      	ldr	r3, [r3, #8]
   b4c1c:	9301      	str	r3, [sp, #4]
   b4c1e:	bd08      	pop	{r3, pc}
   b4c20:	0003023c 	.word	0x0003023c

000b4c24 <hal_usart_write>:
DYNALIB_FN(BASE_IDX + 3, hal_usart, hal_usart_write, uint32_t(hal_usart_interface_t, uint8_t))
   b4c24:	b508      	push	{r3, lr}
   b4c26:	4b02      	ldr	r3, [pc, #8]	; (b4c30 <hal_usart_write+0xc>)
   b4c28:	681b      	ldr	r3, [r3, #0]
   b4c2a:	68db      	ldr	r3, [r3, #12]
   b4c2c:	9301      	str	r3, [sp, #4]
   b4c2e:	bd08      	pop	{r3, pc}
   b4c30:	0003023c 	.word	0x0003023c

000b4c34 <hal_usart_available>:
DYNALIB_FN(BASE_IDX + 4, hal_usart, hal_usart_available, int32_t(hal_usart_interface_t))
   b4c34:	b508      	push	{r3, lr}
   b4c36:	4b02      	ldr	r3, [pc, #8]	; (b4c40 <hal_usart_available+0xc>)
   b4c38:	681b      	ldr	r3, [r3, #0]
   b4c3a:	691b      	ldr	r3, [r3, #16]
   b4c3c:	9301      	str	r3, [sp, #4]
   b4c3e:	bd08      	pop	{r3, pc}
   b4c40:	0003023c 	.word	0x0003023c

000b4c44 <hal_usart_read>:
DYNALIB_FN(BASE_IDX + 5, hal_usart, hal_usart_read, int32_t(hal_usart_interface_t))
   b4c44:	b508      	push	{r3, lr}
   b4c46:	4b02      	ldr	r3, [pc, #8]	; (b4c50 <hal_usart_read+0xc>)
   b4c48:	681b      	ldr	r3, [r3, #0]
   b4c4a:	695b      	ldr	r3, [r3, #20]
   b4c4c:	9301      	str	r3, [sp, #4]
   b4c4e:	bd08      	pop	{r3, pc}
   b4c50:	0003023c 	.word	0x0003023c

000b4c54 <hal_usart_peek>:
DYNALIB_FN(BASE_IDX + 6, hal_usart, hal_usart_peek, int32_t(hal_usart_interface_t))
   b4c54:	b508      	push	{r3, lr}
   b4c56:	4b02      	ldr	r3, [pc, #8]	; (b4c60 <hal_usart_peek+0xc>)
   b4c58:	681b      	ldr	r3, [r3, #0]
   b4c5a:	699b      	ldr	r3, [r3, #24]
   b4c5c:	9301      	str	r3, [sp, #4]
   b4c5e:	bd08      	pop	{r3, pc}
   b4c60:	0003023c 	.word	0x0003023c

000b4c64 <hal_usart_flush>:
DYNALIB_FN(BASE_IDX + 7, hal_usart, hal_usart_flush, void(hal_usart_interface_t))
   b4c64:	b508      	push	{r3, lr}
   b4c66:	4b02      	ldr	r3, [pc, #8]	; (b4c70 <hal_usart_flush+0xc>)
   b4c68:	681b      	ldr	r3, [r3, #0]
   b4c6a:	69db      	ldr	r3, [r3, #28]
   b4c6c:	9301      	str	r3, [sp, #4]
   b4c6e:	bd08      	pop	{r3, pc}
   b4c70:	0003023c 	.word	0x0003023c

000b4c74 <hal_usart_is_enabled>:
DYNALIB_FN(BASE_IDX + 8, hal_usart, hal_usart_is_enabled, bool(hal_usart_interface_t))
   b4c74:	b508      	push	{r3, lr}
   b4c76:	4b02      	ldr	r3, [pc, #8]	; (b4c80 <hal_usart_is_enabled+0xc>)
   b4c78:	681b      	ldr	r3, [r3, #0]
   b4c7a:	6a1b      	ldr	r3, [r3, #32]
   b4c7c:	9301      	str	r3, [sp, #4]
   b4c7e:	bd08      	pop	{r3, pc}
   b4c80:	0003023c 	.word	0x0003023c

000b4c84 <hal_usart_available_data_for_write>:
DYNALIB_FN(BASE_IDX + 9, hal_usart, hal_usart_half_duplex, void(hal_usart_interface_t, bool))
DYNALIB_FN(BASE_IDX + 10, hal_usart, hal_usart_available_data_for_write, int32_t(hal_usart_interface_t))
   b4c84:	b508      	push	{r3, lr}
   b4c86:	4b02      	ldr	r3, [pc, #8]	; (b4c90 <hal_usart_available_data_for_write+0xc>)
   b4c88:	681b      	ldr	r3, [r3, #0]
   b4c8a:	6a9b      	ldr	r3, [r3, #40]	; 0x28
   b4c8c:	9301      	str	r3, [sp, #4]
   b4c8e:	bd08      	pop	{r3, pc}
   b4c90:	0003023c 	.word	0x0003023c

000b4c94 <hal_usart_begin_config>:
#define BASE_IDX2 (BASE_IDX+13)
#else
#define BASE_IDX2 (BASE_IDX+11)
#endif

DYNALIB_FN(BASE_IDX2 + 0, hal_usart, hal_usart_begin_config, void(hal_usart_interface_t serial, uint32_t baud, uint32_t config, void *ptr))
   b4c94:	b508      	push	{r3, lr}
   b4c96:	4b02      	ldr	r3, [pc, #8]	; (b4ca0 <hal_usart_begin_config+0xc>)
   b4c98:	681b      	ldr	r3, [r3, #0]
   b4c9a:	6adb      	ldr	r3, [r3, #44]	; 0x2c
   b4c9c:	9301      	str	r3, [sp, #4]
   b4c9e:	bd08      	pop	{r3, pc}
   b4ca0:	0003023c 	.word	0x0003023c

000b4ca4 <hal_usart_init_ex>:
DYNALIB_FN(BASE_IDX2 + 1, hal_usart, hal_usart_write_nine_bits, uint32_t(hal_usart_interface_t serial, uint16_t data))
DYNALIB_FN(BASE_IDX2 + 2, hal_usart, hal_usart_send_break, void(hal_usart_interface_t, void*))
DYNALIB_FN(BASE_IDX2 + 3, hal_usart, hal_usart_break_detected, uint8_t(hal_usart_interface_t))
DYNALIB_FN(BASE_IDX2 + 4, hal_usart, hal_usart_sleep, int(hal_usart_interface_t serial, bool, void*))
DYNALIB_FN(BASE_IDX2 + 5, hal_usart, hal_usart_init_ex, int(hal_usart_interface_t, const hal_usart_buffer_config_t*, void*))
   b4ca4:	b508      	push	{r3, lr}
   b4ca6:	4b02      	ldr	r3, [pc, #8]	; (b4cb0 <hal_usart_init_ex+0xc>)
   b4ca8:	681b      	ldr	r3, [r3, #0]
   b4caa:	6c1b      	ldr	r3, [r3, #64]	; 0x40
   b4cac:	9301      	str	r3, [sp, #4]
   b4cae:	bd08      	pop	{r3, pc}
   b4cb0:	0003023c 	.word	0x0003023c

000b4cb4 <hal_i2c_write>:
DYNALIB_FN(3, hal_i2c, hal_i2c_begin, void(hal_i2c_interface_t, hal_i2c_mode_t, uint8_t, void*))
DYNALIB_FN(4, hal_i2c, hal_i2c_end, void(hal_i2c_interface_t, void*))
DYNALIB_FN(5, hal_i2c, hal_i2c_request, uint32_t(hal_i2c_interface_t, uint8_t, uint8_t, uint8_t, void*))
DYNALIB_FN(6, hal_i2c, hal_i2c_begin_transmission, void(hal_i2c_interface_t, uint8_t, const hal_i2c_transmission_config_t*))
DYNALIB_FN(7, hal_i2c, hal_i2c_end_transmission, uint8_t(hal_i2c_interface_t, uint8_t, void*))
DYNALIB_FN(8, hal_i2c, hal_i2c_write, uint32_t(hal_i2c_interface_t, uint8_t, void*))
   b4cb4:	b508      	push	{r3, lr}
   b4cb6:	4b02      	ldr	r3, [pc, #8]	; (b4cc0 <hal_i2c_write+0xc>)
   b4cb8:	681b      	ldr	r3, [r3, #0]
   b4cba:	6a1b      	ldr	r3, [r3, #32]
   b4cbc:	9301      	str	r3, [sp, #4]
   b4cbe:	bd08      	pop	{r3, pc}
   b4cc0:	00030228 	.word	0x00030228

000b4cc4 <hal_i2c_available>:
DYNALIB_FN(9, hal_i2c, hal_i2c_available, int32_t(hal_i2c_interface_t, void*))
   b4cc4:	b508      	push	{r3, lr}
   b4cc6:	4b02      	ldr	r3, [pc, #8]	; (b4cd0 <hal_i2c_available+0xc>)
   b4cc8:	681b      	ldr	r3, [r3, #0]
   b4cca:	6a5b      	ldr	r3, [r3, #36]	; 0x24
   b4ccc:	9301      	str	r3, [sp, #4]
   b4cce:	bd08      	pop	{r3, pc}
   b4cd0:	00030228 	.word	0x00030228

000b4cd4 <hal_i2c_read>:
DYNALIB_FN(10, hal_i2c, hal_i2c_read, int32_t(hal_i2c_interface_t, void*))
   b4cd4:	b508      	push	{r3, lr}
   b4cd6:	4b02      	ldr	r3, [pc, #8]	; (b4ce0 <hal_i2c_read+0xc>)
   b4cd8:	681b      	ldr	r3, [r3, #0]
   b4cda:	6a9b      	ldr	r3, [r3, #40]	; 0x28
   b4cdc:	9301      	str	r3, [sp, #4]
   b4cde:	bd08      	pop	{r3, pc}
   b4ce0:	00030228 	.word	0x00030228

000b4ce4 <hal_i2c_peek>:
DYNALIB_FN(11, hal_i2c, hal_i2c_peek, int32_t(hal_i2c_interface_t, void*))
   b4ce4:	b508      	push	{r3, lr}
   b4ce6:	4b02      	ldr	r3, [pc, #8]	; (b4cf0 <hal_i2c_peek+0xc>)
   b4ce8:	681b      	ldr	r3, [r3, #0]
   b4cea:	6adb      	ldr	r3, [r3, #44]	; 0x2c
   b4cec:	9301      	str	r3, [sp, #4]
   b4cee:	bd08      	pop	{r3, pc}
   b4cf0:	00030228 	.word	0x00030228

000b4cf4 <hal_i2c_flush>:
DYNALIB_FN(12, hal_i2c, hal_i2c_flush, void(hal_i2c_interface_t, void*))
   b4cf4:	b508      	push	{r3, lr}
   b4cf6:	4b02      	ldr	r3, [pc, #8]	; (b4d00 <hal_i2c_flush+0xc>)
   b4cf8:	681b      	ldr	r3, [r3, #0]
   b4cfa:	6b1b      	ldr	r3, [r3, #48]	; 0x30
   b4cfc:	9301      	str	r3, [sp, #4]
   b4cfe:	bd08      	pop	{r3, pc}
   b4d00:	00030228 	.word	0x00030228

000b4d04 <hal_i2c_is_enabled>:
DYNALIB_FN(13, hal_i2c, hal_i2c_is_enabled, bool(hal_i2c_interface_t, void*))
   b4d04:	b508      	push	{r3, lr}
   b4d06:	4b02      	ldr	r3, [pc, #8]	; (b4d10 <hal_i2c_is_enabled+0xc>)
   b4d08:	681b      	ldr	r3, [r3, #0]
   b4d0a:	6b5b      	ldr	r3, [r3, #52]	; 0x34
   b4d0c:	9301      	str	r3, [sp, #4]
   b4d0e:	bd08      	pop	{r3, pc}
   b4d10:	00030228 	.word	0x00030228

000b4d14 <hal_i2c_init>:
DYNALIB_FN(14, hal_i2c, hal_i2c_set_callback_on_received, void(hal_i2c_interface_t, void(*)(int), void*))
DYNALIB_FN(15, hal_i2c, hal_i2c_set_callback_on_requested, void(hal_i2c_interface_t, void(*)(void), void*))
DYNALIB_FN(16, hal_i2c, hal_i2c_init, int(hal_i2c_interface_t, const hal_i2c_config_t*))
   b4d14:	b508      	push	{r3, lr}
   b4d16:	4b02      	ldr	r3, [pc, #8]	; (b4d20 <hal_i2c_init+0xc>)
   b4d18:	681b      	ldr	r3, [r3, #0]
   b4d1a:	6c1b      	ldr	r3, [r3, #64]	; 0x40
   b4d1c:	9301      	str	r3, [sp, #4]
   b4d1e:	bd08      	pop	{r3, pc}
   b4d20:	00030228 	.word	0x00030228

000b4d24 <sock_setsockopt>:
DYNALIB_FN(1, hal_socket, sock_bind, int(int, const struct sockaddr*, socklen_t))
DYNALIB_FN(2, hal_socket, sock_shutdown, int(int, int))
DYNALIB_FN(3, hal_socket, sock_getpeername, int(int, struct sockaddr*, socklen_t*))
DYNALIB_FN(4, hal_socket, sock_getsockname, int(int, struct sockaddr*, socklen_t*))
DYNALIB_FN(5, hal_socket, sock_getsockopt, int(int, int, int, void*, socklen_t*))
DYNALIB_FN(6, hal_socket, sock_setsockopt, int(int, int, int, const void*, socklen_t))
   b4d24:	b508      	push	{r3, lr}
   b4d26:	4b02      	ldr	r3, [pc, #8]	; (b4d30 <sock_setsockopt+0xc>)
   b4d28:	681b      	ldr	r3, [r3, #0]
   b4d2a:	699b      	ldr	r3, [r3, #24]
   b4d2c:	9301      	str	r3, [sp, #4]
   b4d2e:	bd08      	pop	{r3, pc}
   b4d30:	00030238 	.word	0x00030238

000b4d34 <sock_close>:
DYNALIB_FN(7, hal_socket, sock_close, int(int))
   b4d34:	b508      	push	{r3, lr}
   b4d36:	4b02      	ldr	r3, [pc, #8]	; (b4d40 <sock_close+0xc>)
   b4d38:	681b      	ldr	r3, [r3, #0]
   b4d3a:	69db      	ldr	r3, [r3, #28]
   b4d3c:	9301      	str	r3, [sp, #4]
   b4d3e:	bd08      	pop	{r3, pc}
   b4d40:	00030238 	.word	0x00030238

000b4d44 <sock_connect>:
DYNALIB_FN(8, hal_socket, sock_connect, int(int, const struct sockaddr*, socklen_t))
   b4d44:	b508      	push	{r3, lr}
   b4d46:	4b02      	ldr	r3, [pc, #8]	; (b4d50 <sock_connect+0xc>)
   b4d48:	681b      	ldr	r3, [r3, #0]
   b4d4a:	6a1b      	ldr	r3, [r3, #32]
   b4d4c:	9301      	str	r3, [sp, #4]
   b4d4e:	bd08      	pop	{r3, pc}
   b4d50:	00030238 	.word	0x00030238

000b4d54 <sock_recv>:
DYNALIB_FN(9, hal_socket, sock_listen, int(int, int))
DYNALIB_FN(10, hal_socket, sock_recv, int(int, void*, size_t, int))
   b4d54:	b508      	push	{r3, lr}
   b4d56:	4b02      	ldr	r3, [pc, #8]	; (b4d60 <sock_recv+0xc>)
   b4d58:	681b      	ldr	r3, [r3, #0]
   b4d5a:	6a9b      	ldr	r3, [r3, #40]	; 0x28
   b4d5c:	9301      	str	r3, [sp, #4]
   b4d5e:	bd08      	pop	{r3, pc}
   b4d60:	00030238 	.word	0x00030238

000b4d64 <sock_send>:
DYNALIB_FN(11, hal_socket, sock_recvfrom, int(int, void*, size_t, int, struct sockaddr*, socklen_t*))
DYNALIB_FN(12, hal_socket, sock_send, int(int, const void*, size_t, int))
   b4d64:	b508      	push	{r3, lr}
   b4d66:	4b02      	ldr	r3, [pc, #8]	; (b4d70 <sock_send+0xc>)
   b4d68:	681b      	ldr	r3, [r3, #0]
   b4d6a:	6b1b      	ldr	r3, [r3, #48]	; 0x30
   b4d6c:	9301      	str	r3, [sp, #4]
   b4d6e:	bd08      	pop	{r3, pc}
   b4d70:	00030238 	.word	0x00030238

000b4d74 <sock_socket>:
DYNALIB_FN(13, hal_socket, sock_sendto, int(int, const void*, size_t, int, const struct sockaddr*, socklen_t))
DYNALIB_FN(14, hal_socket, sock_socket, int(int, int, int))
   b4d74:	b508      	push	{r3, lr}
   b4d76:	4b02      	ldr	r3, [pc, #8]	; (b4d80 <sock_socket+0xc>)
   b4d78:	681b      	ldr	r3, [r3, #0]
   b4d7a:	6b9b      	ldr	r3, [r3, #56]	; 0x38
   b4d7c:	9301      	str	r3, [sp, #4]
   b4d7e:	bd08      	pop	{r3, pc}
   b4d80:	00030238 	.word	0x00030238

000b4d84 <hal_spi_begin>:
// New HAL functions must be added to the end of this list.
// GNINRAW

DYNALIB_BEGIN(hal_spi)

DYNALIB_FN(0, hal_spi, hal_spi_begin, void(hal_spi_interface_t, uint16_t))
   b4d84:	b508      	push	{r3, lr}
   b4d86:	4b02      	ldr	r3, [pc, #8]	; (b4d90 <hal_spi_begin+0xc>)
   b4d88:	681b      	ldr	r3, [r3, #0]
   b4d8a:	681b      	ldr	r3, [r3, #0]
   b4d8c:	9301      	str	r3, [sp, #4]
   b4d8e:	bd08      	pop	{r3, pc}
   b4d90:	00030230 	.word	0x00030230

000b4d94 <hal_spi_transfer>:
DYNALIB_FN(1, hal_spi, hal_spi_end, void(hal_spi_interface_t))
DYNALIB_FN(2, hal_spi, hal_spi_set_bit_order, void(hal_spi_interface_t, uint8_t))
DYNALIB_FN(3, hal_spi, hal_spi_set_data_mode, void(hal_spi_interface_t, uint8_t))
DYNALIB_FN(4, hal_spi, hal_spi_set_clock_divider, void(hal_spi_interface_t, uint8_t))
DYNALIB_FN(5, hal_spi, hal_spi_transfer, uint16_t(hal_spi_interface_t, uint16_t))
   b4d94:	b508      	push	{r3, lr}
   b4d96:	4b02      	ldr	r3, [pc, #8]	; (b4da0 <hal_spi_transfer+0xc>)
   b4d98:	681b      	ldr	r3, [r3, #0]
   b4d9a:	695b      	ldr	r3, [r3, #20]
   b4d9c:	9301      	str	r3, [sp, #4]
   b4d9e:	bd08      	pop	{r3, pc}
   b4da0:	00030230 	.word	0x00030230

000b4da4 <hal_spi_init>:
DYNALIB_FN(6, hal_spi, hal_spi_is_enabled_deprecated, bool(void))
DYNALIB_FN(7, hal_spi, hal_spi_init, void(hal_spi_interface_t))
   b4da4:	b508      	push	{r3, lr}
   b4da6:	4b02      	ldr	r3, [pc, #8]	; (b4db0 <hal_spi_init+0xc>)
   b4da8:	681b      	ldr	r3, [r3, #0]
   b4daa:	69db      	ldr	r3, [r3, #28]
   b4dac:	9301      	str	r3, [sp, #4]
   b4dae:	bd08      	pop	{r3, pc}
   b4db0:	00030230 	.word	0x00030230

000b4db4 <hal_spi_is_enabled>:
DYNALIB_FN(8, hal_spi, hal_spi_is_enabled, bool(hal_spi_interface_t))
   b4db4:	b508      	push	{r3, lr}
   b4db6:	4b02      	ldr	r3, [pc, #8]	; (b4dc0 <hal_spi_is_enabled+0xc>)
   b4db8:	681b      	ldr	r3, [r3, #0]
   b4dba:	6a1b      	ldr	r3, [r3, #32]
   b4dbc:	9301      	str	r3, [sp, #4]
   b4dbe:	bd08      	pop	{r3, pc}
   b4dc0:	00030230 	.word	0x00030230

000b4dc4 <hal_spi_info>:
DYNALIB_FN(9, hal_spi, hal_spi_info, void(hal_spi_interface_t, hal_spi_info_t*, void*))
   b4dc4:	b508      	push	{r3, lr}
   b4dc6:	4b02      	ldr	r3, [pc, #8]	; (b4dd0 <hal_spi_info+0xc>)
   b4dc8:	681b      	ldr	r3, [r3, #0]
   b4dca:	6a5b      	ldr	r3, [r3, #36]	; 0x24
   b4dcc:	9301      	str	r3, [sp, #4]
   b4dce:	bd08      	pop	{r3, pc}
   b4dd0:	00030230 	.word	0x00030230

000b4dd4 <hal_spi_set_settings>:
DYNALIB_FN(10, hal_spi, hal_spi_transfer_dma, void(hal_spi_interface_t, const void*, void*, uint32_t, hal_spi_dma_user_callback))
DYNALIB_FN(11, hal_spi, hal_spi_begin_ext, void(hal_spi_interface_t, hal_spi_mode_t, uint16_t, void*))
DYNALIB_FN(12, hal_spi, hal_spi_set_callback_on_selected, void(hal_spi_interface_t, hal_spi_select_user_callback, void*))
DYNALIB_FN(13, hal_spi, hal_spi_transfer_dma_cancel, void(hal_spi_interface_t))
DYNALIB_FN(14, hal_spi, hal_spi_transfer_dma_status, int32_t(hal_spi_interface_t, hal_spi_transfer_status_t*))
DYNALIB_FN(15, hal_spi, hal_spi_set_settings, int32_t(hal_spi_interface_t, uint8_t, uint8_t, uint8_t, uint8_t, void*))
   b4dd4:	b508      	push	{r3, lr}
   b4dd6:	4b02      	ldr	r3, [pc, #8]	; (b4de0 <hal_spi_set_settings+0xc>)
   b4dd8:	681b      	ldr	r3, [r3, #0]
   b4dda:	6bdb      	ldr	r3, [r3, #60]	; 0x3c
   b4ddc:	9301      	str	r3, [sp, #4]
   b4dde:	bd08      	pop	{r3, pc}
   b4de0:	00030230 	.word	0x00030230

000b4de4 <hal_spi_acquire>:
#if HAL_PLATFORM_SPI_HAL_THREAD_SAFETY
DYNALIB_FN(16, hal_spi, hal_spi_acquire, int32_t(hal_spi_interface_t, const hal_spi_acquire_config_t*))
   b4de4:	b508      	push	{r3, lr}
   b4de6:	4b02      	ldr	r3, [pc, #8]	; (b4df0 <hal_spi_acquire+0xc>)
   b4de8:	681b      	ldr	r3, [r3, #0]
   b4dea:	6c1b      	ldr	r3, [r3, #64]	; 0x40
   b4dec:	9301      	str	r3, [sp, #4]
   b4dee:	bd08      	pop	{r3, pc}
   b4df0:	00030230 	.word	0x00030230

000b4df4 <hal_spi_release>:
DYNALIB_FN(17, hal_spi, hal_spi_release, int32_t(hal_spi_interface_t, void*))
   b4df4:	b508      	push	{r3, lr}
   b4df6:	4b02      	ldr	r3, [pc, #8]	; (b4e00 <hal_spi_release+0xc>)
   b4df8:	681b      	ldr	r3, [r3, #0]
   b4dfa:	6c5b      	ldr	r3, [r3, #68]	; 0x44
   b4dfc:	9301      	str	r3, [sp, #4]
   b4dfe:	bd08      	pop	{r3, pc}
   b4e00:	00030230 	.word	0x00030230

000b4e04 <HAL_USB_USART_Init>:
// GNINRAW

DYNALIB_BEGIN(hal_usb)

#ifdef USB_CDC_ENABLE
DYNALIB_FN(0, hal_usb, HAL_USB_USART_Init, void(HAL_USB_USART_Serial, const HAL_USB_USART_Config*))
   b4e04:	b508      	push	{r3, lr}
   b4e06:	4b02      	ldr	r3, [pc, #8]	; (b4e10 <HAL_USB_USART_Init+0xc>)
   b4e08:	681b      	ldr	r3, [r3, #0]
   b4e0a:	681b      	ldr	r3, [r3, #0]
   b4e0c:	9301      	str	r3, [sp, #4]
   b4e0e:	bd08      	pop	{r3, pc}
   b4e10:	0003024c 	.word	0x0003024c

000b4e14 <HAL_USB_USART_Begin>:
DYNALIB_FN(1, hal_usb, HAL_USB_USART_Begin, void(HAL_USB_USART_Serial, uint32_t, void *))
   b4e14:	b508      	push	{r3, lr}
   b4e16:	4b02      	ldr	r3, [pc, #8]	; (b4e20 <HAL_USB_USART_Begin+0xc>)
   b4e18:	681b      	ldr	r3, [r3, #0]
   b4e1a:	685b      	ldr	r3, [r3, #4]
   b4e1c:	9301      	str	r3, [sp, #4]
   b4e1e:	bd08      	pop	{r3, pc}
   b4e20:	0003024c 	.word	0x0003024c

000b4e24 <HAL_USB_USART_End>:
DYNALIB_FN(2, hal_usb, HAL_USB_USART_End, void(HAL_USB_USART_Serial))
   b4e24:	b508      	push	{r3, lr}
   b4e26:	4b02      	ldr	r3, [pc, #8]	; (b4e30 <HAL_USB_USART_End+0xc>)
   b4e28:	681b      	ldr	r3, [r3, #0]
   b4e2a:	689b      	ldr	r3, [r3, #8]
   b4e2c:	9301      	str	r3, [sp, #4]
   b4e2e:	bd08      	pop	{r3, pc}
   b4e30:	0003024c 	.word	0x0003024c

000b4e34 <HAL_USB_USART_Available_Data>:
DYNALIB_FN(3, hal_usb, HAL_USB_USART_Baud_Rate, unsigned int(HAL_USB_USART_Serial))
DYNALIB_FN(4, hal_usb, HAL_USB_USART_Available_Data, int32_t(HAL_USB_USART_Serial))
   b4e34:	b508      	push	{r3, lr}
   b4e36:	4b02      	ldr	r3, [pc, #8]	; (b4e40 <HAL_USB_USART_Available_Data+0xc>)
   b4e38:	681b      	ldr	r3, [r3, #0]
   b4e3a:	691b      	ldr	r3, [r3, #16]
   b4e3c:	9301      	str	r3, [sp, #4]
   b4e3e:	bd08      	pop	{r3, pc}
   b4e40:	0003024c 	.word	0x0003024c

000b4e44 <HAL_USB_USART_Available_Data_For_Write>:
DYNALIB_FN(5, hal_usb, HAL_USB_USART_Available_Data_For_Write, int32_t(HAL_USB_USART_Serial))
   b4e44:	b508      	push	{r3, lr}
   b4e46:	4b02      	ldr	r3, [pc, #8]	; (b4e50 <HAL_USB_USART_Available_Data_For_Write+0xc>)
   b4e48:	681b      	ldr	r3, [r3, #0]
   b4e4a:	695b      	ldr	r3, [r3, #20]
   b4e4c:	9301      	str	r3, [sp, #4]
   b4e4e:	bd08      	pop	{r3, pc}
   b4e50:	0003024c 	.word	0x0003024c

000b4e54 <HAL_USB_USART_Receive_Data>:
DYNALIB_FN(6, hal_usb, HAL_USB_USART_Receive_Data, int32_t(HAL_USB_USART_Serial, uint8_t))
   b4e54:	b508      	push	{r3, lr}
   b4e56:	4b02      	ldr	r3, [pc, #8]	; (b4e60 <HAL_USB_USART_Receive_Data+0xc>)
   b4e58:	681b      	ldr	r3, [r3, #0]
   b4e5a:	699b      	ldr	r3, [r3, #24]
   b4e5c:	9301      	str	r3, [sp, #4]
   b4e5e:	bd08      	pop	{r3, pc}
   b4e60:	0003024c 	.word	0x0003024c

000b4e64 <HAL_USB_USART_Send_Data>:
DYNALIB_FN(7, hal_usb, HAL_USB_USART_Send_Data, int32_t(HAL_USB_USART_Serial, uint8_t))
   b4e64:	b508      	push	{r3, lr}
   b4e66:	4b02      	ldr	r3, [pc, #8]	; (b4e70 <HAL_USB_USART_Send_Data+0xc>)
   b4e68:	681b      	ldr	r3, [r3, #0]
   b4e6a:	69db      	ldr	r3, [r3, #28]
   b4e6c:	9301      	str	r3, [sp, #4]
   b4e6e:	bd08      	pop	{r3, pc}
   b4e70:	0003024c 	.word	0x0003024c

000b4e74 <HAL_USB_USART_Flush_Data>:
DYNALIB_FN(8, hal_usb, HAL_USB_USART_Flush_Data, void(HAL_USB_USART_Serial))
   b4e74:	b508      	push	{r3, lr}
   b4e76:	4b02      	ldr	r3, [pc, #8]	; (b4e80 <HAL_USB_USART_Flush_Data+0xc>)
   b4e78:	681b      	ldr	r3, [r3, #0]
   b4e7a:	6a1b      	ldr	r3, [r3, #32]
   b4e7c:	9301      	str	r3, [sp, #4]
   b4e7e:	bd08      	pop	{r3, pc}
   b4e80:	0003024c 	.word	0x0003024c

000b4e84 <panic_>:
DYNALIB_FN(9, services, LED_Toggle, void(Led_TypeDef))
DYNALIB_FN(10, services, LED_Fade, void(Led_TypeDef))
DYNALIB_FN(11, services, Get_LED_Brightness, uint8_t(void))

DYNALIB_FN(12, services, set_logger_output, void(debug_output_fn, LoggerOutputLevel)) // Deprecated
DYNALIB_FN(13, services, panic_, void(ePanicCode, void*, void(*)(uint32_t)))
   b4e84:	b508      	push	{r3, lr}
   b4e86:	4b02      	ldr	r3, [pc, #8]	; (b4e90 <panic_+0xc>)
   b4e88:	681b      	ldr	r3, [r3, #0]
   b4e8a:	6b5b      	ldr	r3, [r3, #52]	; 0x34
   b4e8c:	9301      	str	r3, [sp, #4]
   b4e8e:	bd08      	pop	{r3, pc}
   b4e90:	00030260 	.word	0x00030260

000b4e94 <log_message>:
DYNALIB_FN(16, services, log_print_, void(int, int, const char*, const char*, const char*, ...)) // Deprecated
DYNALIB_FN(17, services, LED_RGB_SetChangeHandler, void(led_update_handler_fn, void*))
DYNALIB_FN(18, services, log_print_direct_, void(int, void*, const char*, ...)) // Deprecated
DYNALIB_FN(19, services, LED_GetColor, uint32_t(uint32_t, void*))

DYNALIB_FN(20, services, log_message, void(int, const char*, LogAttributes*, void*, const char*, ...))
   b4e94:	b508      	push	{r3, lr}
   b4e96:	4b02      	ldr	r3, [pc, #8]	; (b4ea0 <log_message+0xc>)
   b4e98:	681b      	ldr	r3, [r3, #0]
   b4e9a:	6d1b      	ldr	r3, [r3, #80]	; 0x50
   b4e9c:	9301      	str	r3, [sp, #4]
   b4e9e:	bd08      	pop	{r3, pc}
   b4ea0:	00030260 	.word	0x00030260

000b4ea4 <log_message_v>:
DYNALIB_FN(21, services, log_message_v, void(int, const char*, LogAttributes*, void*, const char*, va_list))
   b4ea4:	b508      	push	{r3, lr}
   b4ea6:	4b02      	ldr	r3, [pc, #8]	; (b4eb0 <log_message_v+0xc>)
   b4ea8:	681b      	ldr	r3, [r3, #0]
   b4eaa:	6d5b      	ldr	r3, [r3, #84]	; 0x54
   b4eac:	9301      	str	r3, [sp, #4]
   b4eae:	bd08      	pop	{r3, pc}
   b4eb0:	00030260 	.word	0x00030260

000b4eb4 <log_level_name>:
DYNALIB_FN(22, services, log_write, void(int, const char*, const char*, size_t, void*))
DYNALIB_FN(23, services, log_printf, void(int, const char*, void*, const char*, ...))
DYNALIB_FN(24, services, log_printf_v, void(int, const char*, void*, const char*, va_list))
DYNALIB_FN(25, services, log_dump, void(int, const char*, const void*, size_t, int, void*))
DYNALIB_FN(26, services, log_enabled, int(int, const char*, void*))
DYNALIB_FN(27, services, log_level_name, const char*(int, void*))
   b4eb4:	b508      	push	{r3, lr}
   b4eb6:	4b02      	ldr	r3, [pc, #8]	; (b4ec0 <log_level_name+0xc>)
   b4eb8:	681b      	ldr	r3, [r3, #0]
   b4eba:	6edb      	ldr	r3, [r3, #108]	; 0x6c
   b4ebc:	9301      	str	r3, [sp, #4]
   b4ebe:	bd08      	pop	{r3, pc}
   b4ec0:	00030260 	.word	0x00030260

000b4ec4 <log_set_callbacks>:
DYNALIB_FN(28, services, log_set_callbacks, void(log_message_callback_type, log_write_callback_type, log_enabled_callback_type, void*))
   b4ec4:	b508      	push	{r3, lr}
   b4ec6:	4b02      	ldr	r3, [pc, #8]	; (b4ed0 <log_set_callbacks+0xc>)
   b4ec8:	681b      	ldr	r3, [r3, #0]
   b4eca:	6f1b      	ldr	r3, [r3, #112]	; 0x70
   b4ecc:	9301      	str	r3, [sp, #4]
   b4ece:	bd08      	pop	{r3, pc}
   b4ed0:	00030260 	.word	0x00030260

000b4ed4 <set_system_mode>:
#endif

DYNALIB_BEGIN(system)

DYNALIB_FN(0, system, system_mode, System_Mode_TypeDef(void))
DYNALIB_FN(1, system, set_system_mode, void(System_Mode_TypeDef))
   b4ed4:	b508      	push	{r3, lr}
   b4ed6:	4b02      	ldr	r3, [pc, #8]	; (b4ee0 <set_system_mode+0xc>)
   b4ed8:	681b      	ldr	r3, [r3, #0]
   b4eda:	685b      	ldr	r3, [r3, #4]
   b4edc:	9301      	str	r3, [sp, #4]
   b4ede:	bd08      	pop	{r3, pc}
   b4ee0:	00030220 	.word	0x00030220

000b4ee4 <system_delay_ms>:

DYNALIB_FN(2, system, set_ymodem_serial_flash_update_handler, void(ymodem_serial_flash_update_handler))
DYNALIB_FN(3, system, system_firmwareUpdate, bool(Stream*, void*))
DYNALIB_FN(4, system, system_fileTransfer, bool(system_file_transfer_t*, void*))

DYNALIB_FN(5, system, system_delay_ms, void(unsigned long, bool))
   b4ee4:	b508      	push	{r3, lr}
   b4ee6:	4b02      	ldr	r3, [pc, #8]	; (b4ef0 <system_delay_ms+0xc>)
   b4ee8:	681b      	ldr	r3, [r3, #0]
   b4eea:	695b      	ldr	r3, [r3, #20]
   b4eec:	9301      	str	r3, [sp, #4]
   b4eee:	bd08      	pop	{r3, pc}
   b4ef0:	00030220 	.word	0x00030220

000b4ef4 <system_thread_set_state>:
DYNALIB_FN(6, system, system_sleep, int(Spark_Sleep_TypeDef, long, uint32_t, void*))
DYNALIB_FN(7, system, system_sleep_pin, int(uint16_t, uint16_t, long, uint32_t, void*))
DYNALIB_FN(8, system, system_subscribe_event, int(system_event_t, system_event_handler_t*, SystemEventContext*))
DYNALIB_FN(9, system, system_unsubscribe_event, void(system_event_t, system_event_handler_t*, const SystemEventContext*))
DYNALIB_FN(10, system, system_button_pushed_duration, uint16_t(uint8_t, void*))
DYNALIB_FN(11, system, system_thread_set_state, void(spark::feature::State, void*))
   b4ef4:	b508      	push	{r3, lr}
   b4ef6:	4b02      	ldr	r3, [pc, #8]	; (b4f00 <system_thread_set_state+0xc>)
   b4ef8:	681b      	ldr	r3, [r3, #0]
   b4efa:	6adb      	ldr	r3, [r3, #44]	; 0x2c
   b4efc:	9301      	str	r3, [sp, #4]
   b4efe:	bd08      	pop	{r3, pc}
   b4f00:	00030220 	.word	0x00030220

000b4f04 <system_ctrl_set_app_request_handler>:
DYNALIB_FN(BASE_IDX + 6, system, led_pattern_period, uint16_t(int, int, void*))
DYNALIB_FN(BASE_IDX + 7, system, system_set_tester_handlers, int(system_tester_handlers_t*, void*))
DYNALIB_FN(BASE_IDX + 8, system, system_format_diag_data, int(const uint16_t*, size_t, unsigned, appender_fn, void*, void*))

// Control requests
DYNALIB_FN(BASE_IDX + 9, system, system_ctrl_set_app_request_handler, int(ctrl_request_handler_fn, void*))
   b4f04:	b508      	push	{r3, lr}
   b4f06:	4b03      	ldr	r3, [pc, #12]	; (b4f14 <system_ctrl_set_app_request_handler+0x10>)
   b4f08:	681b      	ldr	r3, [r3, #0]
   b4f0a:	f8d3 3088 	ldr.w	r3, [r3, #136]	; 0x88
   b4f0e:	9301      	str	r3, [sp, #4]
   b4f10:	bd08      	pop	{r3, pc}
   b4f12:	0000      	.short	0x0000
   b4f14:	00030220 	.word	0x00030220

000b4f18 <system_ctrl_set_result>:
DYNALIB_FN(BASE_IDX + 10, system, system_ctrl_alloc_reply_data, int(ctrl_request*, size_t, void*))
DYNALIB_FN(BASE_IDX + 11, system, system_ctrl_free_request_data, void(ctrl_request*, void*))
DYNALIB_FN(BASE_IDX + 12, system, system_ctrl_set_result, void(ctrl_request*, int, ctrl_completion_handler_fn, void*, void*))
   b4f18:	b508      	push	{r3, lr}
   b4f1a:	4b03      	ldr	r3, [pc, #12]	; (b4f28 <system_ctrl_set_result+0x10>)
   b4f1c:	681b      	ldr	r3, [r3, #0]
   b4f1e:	f8d3 3094 	ldr.w	r3, [r3, #148]	; 0x94
   b4f22:	9301      	str	r3, [sp, #4]
   b4f24:	bd08      	pop	{r3, pc}
   b4f26:	0000      	.short	0x0000
   b4f28:	00030220 	.word	0x00030220

000b4f2c <network_connect>:
#endif

DYNALIB_BEGIN(system_net)

DYNALIB_FN(0, system_net, network_config, const void*(network_handle_t, uint32_t, void*))
DYNALIB_FN(1, system_net, network_connect, void(network_handle_t, uint32_t, uint32_t, void*))
   b4f2c:	b508      	push	{r3, lr}
   b4f2e:	4b02      	ldr	r3, [pc, #8]	; (b4f38 <network_connect+0xc>)
   b4f30:	681b      	ldr	r3, [r3, #0]
   b4f32:	685b      	ldr	r3, [r3, #4]
   b4f34:	9301      	str	r3, [sp, #4]
   b4f36:	bd08      	pop	{r3, pc}
   b4f38:	00030240 	.word	0x00030240

000b4f3c <network_connecting>:
DYNALIB_FN(2, system_net, network_connecting, bool(network_handle_t, uint32_t, void*))
   b4f3c:	b508      	push	{r3, lr}
   b4f3e:	4b02      	ldr	r3, [pc, #8]	; (b4f48 <network_connecting+0xc>)
   b4f40:	681b      	ldr	r3, [r3, #0]
   b4f42:	689b      	ldr	r3, [r3, #8]
   b4f44:	9301      	str	r3, [sp, #4]
   b4f46:	bd08      	pop	{r3, pc}
   b4f48:	00030240 	.word	0x00030240

000b4f4c <network_disconnect>:
DYNALIB_FN(3, system_net, network_disconnect, void(network_handle_t, uint32_t, void*))
   b4f4c:	b508      	push	{r3, lr}
   b4f4e:	4b02      	ldr	r3, [pc, #8]	; (b4f58 <network_disconnect+0xc>)
   b4f50:	681b      	ldr	r3, [r3, #0]
   b4f52:	68db      	ldr	r3, [r3, #12]
   b4f54:	9301      	str	r3, [sp, #4]
   b4f56:	bd08      	pop	{r3, pc}
   b4f58:	00030240 	.word	0x00030240

000b4f5c <network_ready>:
DYNALIB_FN(4, system_net, network_ready, bool(network_handle_t, uint32_t, void*))
   b4f5c:	b508      	push	{r3, lr}
   b4f5e:	4b02      	ldr	r3, [pc, #8]	; (b4f68 <network_ready+0xc>)
   b4f60:	681b      	ldr	r3, [r3, #0]
   b4f62:	691b      	ldr	r3, [r3, #16]
   b4f64:	9301      	str	r3, [sp, #4]
   b4f66:	bd08      	pop	{r3, pc}
   b4f68:	00030240 	.word	0x00030240

000b4f6c <network_on>:
DYNALIB_FN(5, system_net, network_on, void(network_handle_t, uint32_t, uint32_t, void*))
   b4f6c:	b508      	push	{r3, lr}
   b4f6e:	4b02      	ldr	r3, [pc, #8]	; (b4f78 <network_on+0xc>)
   b4f70:	681b      	ldr	r3, [r3, #0]
   b4f72:	695b      	ldr	r3, [r3, #20]
   b4f74:	9301      	str	r3, [sp, #4]
   b4f76:	bd08      	pop	{r3, pc}
   b4f78:	00030240 	.word	0x00030240

000b4f7c <network_off>:
DYNALIB_FN(6, system_net, network_off, void(network_handle_t, uint32_t, uint32_t, void*))
   b4f7c:	b508      	push	{r3, lr}
   b4f7e:	4b02      	ldr	r3, [pc, #8]	; (b4f88 <network_off+0xc>)
   b4f80:	681b      	ldr	r3, [r3, #0]
   b4f82:	699b      	ldr	r3, [r3, #24]
   b4f84:	9301      	str	r3, [sp, #4]
   b4f86:	bd08      	pop	{r3, pc}
   b4f88:	00030240 	.word	0x00030240

000b4f8c <network_listen>:
DYNALIB_FN(7, system_net, network_listen, void(network_handle_t, uint32_t, void*))
   b4f8c:	b508      	push	{r3, lr}
   b4f8e:	4b02      	ldr	r3, [pc, #8]	; (b4f98 <network_listen+0xc>)
   b4f90:	681b      	ldr	r3, [r3, #0]
   b4f92:	69db      	ldr	r3, [r3, #28]
   b4f94:	9301      	str	r3, [sp, #4]
   b4f96:	bd08      	pop	{r3, pc}
   b4f98:	00030240 	.word	0x00030240

000b4f9c <network_listening>:
DYNALIB_FN(8, system_net, network_listening, bool(network_handle_t, uint32_t, void*))
   b4f9c:	b508      	push	{r3, lr}
   b4f9e:	4b02      	ldr	r3, [pc, #8]	; (b4fa8 <network_listening+0xc>)
   b4fa0:	681b      	ldr	r3, [r3, #0]
   b4fa2:	6a1b      	ldr	r3, [r3, #32]
   b4fa4:	9301      	str	r3, [sp, #4]
   b4fa6:	bd08      	pop	{r3, pc}
   b4fa8:	00030240 	.word	0x00030240

000b4fac <network_set_listen_timeout>:
DYNALIB_FN(9, system_net, network_has_credentials, bool(network_handle_t, uint32_t, void*))
DYNALIB_FN(10, system_net, network_set_credentials, int(network_handle_t, uint32_t, NetworkCredentials*, void*))
DYNALIB_FN(11, system_net, network_clear_credentials, bool(network_handle_t, uint32_t, NetworkCredentials*, void*))
DYNALIB_FN(12, system_net, network_set_listen_timeout, void(network_handle_t, uint16_t, void*))
   b4fac:	b508      	push	{r3, lr}
   b4fae:	4b02      	ldr	r3, [pc, #8]	; (b4fb8 <network_set_listen_timeout+0xc>)
   b4fb0:	681b      	ldr	r3, [r3, #0]
   b4fb2:	6b1b      	ldr	r3, [r3, #48]	; 0x30
   b4fb4:	9301      	str	r3, [sp, #4]
   b4fb6:	bd08      	pop	{r3, pc}
   b4fb8:	00030240 	.word	0x00030240

000b4fbc <network_get_listen_timeout>:
DYNALIB_FN(13, system_net, network_get_listen_timeout, uint16_t(network_handle_t, uint32_t, void*))
   b4fbc:	b508      	push	{r3, lr}
   b4fbe:	4b02      	ldr	r3, [pc, #8]	; (b4fc8 <network_get_listen_timeout+0xc>)
   b4fc0:	681b      	ldr	r3, [r3, #0]
   b4fc2:	6b5b      	ldr	r3, [r3, #52]	; 0x34
   b4fc4:	9301      	str	r3, [sp, #4]
   b4fc6:	bd08      	pop	{r3, pc}
   b4fc8:	00030240 	.word	0x00030240

000b4fcc <network_is_on>:
DYNALIB_FN(14, system_net, network_set_hostname, int(network_handle_t, uint32_t, const char*, void*))
DYNALIB_FN(15, system_net, network_get_hostname, int(network_handle_t, uint32_t, char*, size_t, void*))
DYNALIB_FN(16, system_net, network_is_on, bool(network_handle_t, void*))
   b4fcc:	b508      	push	{r3, lr}
   b4fce:	4b02      	ldr	r3, [pc, #8]	; (b4fd8 <network_is_on+0xc>)
   b4fd0:	681b      	ldr	r3, [r3, #0]
   b4fd2:	6c1b      	ldr	r3, [r3, #64]	; 0x40
   b4fd4:	9301      	str	r3, [sp, #4]
   b4fd6:	bd08      	pop	{r3, pc}
   b4fd8:	00030240 	.word	0x00030240

000b4fdc <network_is_off>:
DYNALIB_FN(17, system_net, network_is_off, bool(network_handle_t, void*))
   b4fdc:	b508      	push	{r3, lr}
   b4fde:	4b02      	ldr	r3, [pc, #8]	; (b4fe8 <network_is_off+0xc>)
   b4fe0:	681b      	ldr	r3, [r3, #0]
   b4fe2:	6c5b      	ldr	r3, [r3, #68]	; 0x44
   b4fe4:	9301      	str	r3, [sp, #4]
   b4fe6:	bd08      	pop	{r3, pc}
   b4fe8:	00030240 	.word	0x00030240

000b4fec <spark_set_random_seed_from_cloud_handler>:
DYNALIB_FN(10, system_cloud, spark_unsubscribe, void(void*))
DYNALIB_FN(11, system_cloud, spark_sync_time, bool(void*))
DYNALIB_FN(12, system_cloud, spark_sync_time_pending, bool(void*))
DYNALIB_FN(13, system_cloud, spark_sync_time_last, system_tick_t(time32_t*, time_t*))
DYNALIB_FN(14, system_cloud, spark_set_connection_property, int(unsigned, unsigned, const void*, void*))
DYNALIB_FN(15, system_cloud, spark_set_random_seed_from_cloud_handler, int(void (*handler)(unsigned int), void*))
   b4fec:	b508      	push	{r3, lr}
   b4fee:	4b02      	ldr	r3, [pc, #8]	; (b4ff8 <spark_set_random_seed_from_cloud_handler+0xc>)
   b4ff0:	681b      	ldr	r3, [r3, #0]
   b4ff2:	6bdb      	ldr	r3, [r3, #60]	; 0x3c
   b4ff4:	9301      	str	r3, [sp, #4]
   b4ff6:	bd08      	pop	{r3, pc}
   b4ff8:	00030244 	.word	0x00030244

000b4ffc <malloc>:
#include "hal_platform.h"
#endif // defined(DYNALIB_EXPORT) || (defined(DYNALIB_IMPORT) && !defined(RT_DYNALIB_NO_DEPENDENCY_BREAKING_IMPORTS))

DYNALIB_BEGIN(rt)

DYNALIB_FN(0, rt, malloc, void*(size_t))
   b4ffc:	b508      	push	{r3, lr}
   b4ffe:	4b02      	ldr	r3, [pc, #8]	; (b5008 <malloc+0xc>)
   b5000:	681b      	ldr	r3, [r3, #0]
   b5002:	681b      	ldr	r3, [r3, #0]
   b5004:	9301      	str	r3, [sp, #4]
   b5006:	bd08      	pop	{r3, pc}
   b5008:	0003021c 	.word	0x0003021c

000b500c <free>:
DYNALIB_FN(1, rt, free, void(void*))
   b500c:	b508      	push	{r3, lr}
   b500e:	4b02      	ldr	r3, [pc, #8]	; (b5018 <free+0xc>)
   b5010:	681b      	ldr	r3, [r3, #0]
   b5012:	685b      	ldr	r3, [r3, #4]
   b5014:	9301      	str	r3, [sp, #4]
   b5016:	bd08      	pop	{r3, pc}
   b5018:	0003021c 	.word	0x0003021c

000b501c <realloc>:
DYNALIB_FN(2, rt, realloc, void*(void*, size_t))
   b501c:	b508      	push	{r3, lr}
   b501e:	4b02      	ldr	r3, [pc, #8]	; (b5028 <realloc+0xc>)
   b5020:	681b      	ldr	r3, [r3, #0]
   b5022:	689b      	ldr	r3, [r3, #8]
   b5024:	9301      	str	r3, [sp, #4]
   b5026:	bd08      	pop	{r3, pc}
   b5028:	0003021c 	.word	0x0003021c

000b502c <vsnprintf>:
DYNALIB_FN(4, rt, siprintf, int(char*, const char*, ...))
DYNALIB_FN(5, rt, sscanf, int(const char*, const char*, ...))
DYNALIB_FN(6, rt, siscanf, int(const char*, const char*, ...))
DYNALIB_FN(7, rt, snprintf, int(char*, size_t, const char*, ...))
DYNALIB_FN(8, rt, sniprintf, int(char*, size_t, const char*, ...))
DYNALIB_FN(9, rt, vsnprintf, int(char*, size_t, const char*, va_list))
   b502c:	b508      	push	{r3, lr}
   b502e:	4b02      	ldr	r3, [pc, #8]	; (b5038 <vsnprintf+0xc>)
   b5030:	681b      	ldr	r3, [r3, #0]
   b5032:	6a5b      	ldr	r3, [r3, #36]	; 0x24
   b5034:	9301      	str	r3, [sp, #4]
   b5036:	bd08      	pop	{r3, pc}
   b5038:	0003021c 	.word	0x0003021c

000b503c <abort>:
DYNALIB_FN(10, rt, vsniprintf, int(char*, size_t, const char*, va_list))
DYNALIB_FN(11, rt, abort, void(void))
   b503c:	b508      	push	{r3, lr}
   b503e:	4b02      	ldr	r3, [pc, #8]	; (b5048 <abort+0xc>)
   b5040:	681b      	ldr	r3, [r3, #0]
   b5042:	6adb      	ldr	r3, [r3, #44]	; 0x2c
   b5044:	9301      	str	r3, [sp, #4]
   b5046:	bd08      	pop	{r3, pc}
   b5048:	0003021c 	.word	0x0003021c

000b504c <__errno>:
DYNALIB_FN(12, rt, _malloc_r, void*(struct _reent*, size_t))
DYNALIB_FN(13, rt, _free_r, void(struct _reent*, void*))
DYNALIB_FN(14, rt, _realloc_r, void*(struct _reent*, void*, size_t))
DYNALIB_FN(15, rt, __errno, int*())
   b504c:	b508      	push	{r3, lr}
   b504e:	4b02      	ldr	r3, [pc, #8]	; (b5058 <__errno+0xc>)
   b5050:	681b      	ldr	r3, [r3, #0]
   b5052:	6bdb      	ldr	r3, [r3, #60]	; 0x3c
   b5054:	9301      	str	r3, [sp, #4]
   b5056:	bd08      	pop	{r3, pc}
   b5058:	0003021c 	.word	0x0003021c

000b505c <__assert_func>:

#if defined(DYNALIB_EXPORT) || (defined(DYNALIB_IMPORT) && !defined(RT_DYNALIB_NO_DEPENDENCY_BREAKING_IMPORTS))
DYNALIB_FN(16, rt, __assert_func, void(const char*, int, const char*, const char*))
   b505c:	b508      	push	{r3, lr}
   b505e:	4b02      	ldr	r3, [pc, #8]	; (b5068 <__assert_func+0xc>)
   b5060:	681b      	ldr	r3, [r3, #0]
   b5062:	6c1b      	ldr	r3, [r3, #64]	; 0x40
   b5064:	9301      	str	r3, [sp, #4]
   b5066:	bd08      	pop	{r3, pc}
   b5068:	0003021c 	.word	0x0003021c

000b506c <newlib_impure_ptr_callback>:
DYNALIB_FN(17, rt, newlib_impure_ptr_callback, void(void (*)(struct _reent*, size_t, uint32_t, void*), void*))
   b506c:	b508      	push	{r3, lr}
   b506e:	4b02      	ldr	r3, [pc, #8]	; (b5078 <newlib_impure_ptr_callback+0xc>)
   b5070:	681b      	ldr	r3, [r3, #0]
   b5072:	6c5b      	ldr	r3, [r3, #68]	; 0x44
   b5074:	9301      	str	r3, [sp, #4]
   b5076:	bd08      	pop	{r3, pc}
   b5078:	0003021c 	.word	0x0003021c

000b507c <_ZN5spark13EthernetClass9listeningEv>:
    uint16_t getListenTimeout(void) {
        return network_get_listen_timeout(*this, 0, NULL);
    }

    bool listening(void) {
        return network_listening(*this, 0, NULL);
   b507c:	2200      	movs	r2, #0
   b507e:	6840      	ldr	r0, [r0, #4]
   b5080:	4611      	mov	r1, r2
   b5082:	f7ff bf8b 	b.w	b4f9c <network_listening>

000b5086 <_ZN5spark13EthernetClass16getListenTimeoutEv>:
        return network_get_listen_timeout(*this, 0, NULL);
   b5086:	2200      	movs	r2, #0
   b5088:	6840      	ldr	r0, [r0, #4]
   b508a:	4611      	mov	r1, r2
   b508c:	f7ff bf96 	b.w	b4fbc <network_get_listen_timeout>

000b5090 <_ZN5spark13EthernetClass16setListenTimeoutEt>:
        network_set_listen_timeout(*this, timeout, NULL);
   b5090:	6840      	ldr	r0, [r0, #4]
   b5092:	2200      	movs	r2, #0
   b5094:	f7ff bf8a 	b.w	b4fac <network_set_listen_timeout>

000b5098 <_ZN5spark13EthernetClass6listenEb>:
        network_listen(*this, begin ? 0 : 1, NULL);
   b5098:	6840      	ldr	r0, [r0, #4]
   b509a:	2200      	movs	r2, #0
   b509c:	f081 0101 	eor.w	r1, r1, #1
   b50a0:	f7ff bf74 	b.w	b4f8c <network_listen>

000b50a4 <_ZN5spark13EthernetClass3offEv>:
        network_off(*this, 0, 0, NULL);
   b50a4:	2300      	movs	r3, #0
   b50a6:	6840      	ldr	r0, [r0, #4]
   b50a8:	461a      	mov	r2, r3
   b50aa:	4619      	mov	r1, r3
   b50ac:	f7ff bf66 	b.w	b4f7c <network_off>

000b50b0 <_ZN5spark13EthernetClass2onEv>:
        network_on(*this, 0, 0, NULL);
   b50b0:	2300      	movs	r3, #0
   b50b2:	6840      	ldr	r0, [r0, #4]
   b50b4:	461a      	mov	r2, r3
   b50b6:	4619      	mov	r1, r3
   b50b8:	f7ff bf58 	b.w	b4f6c <network_on>

000b50bc <_ZN5spark13EthernetClass5readyEv>:
    }

    bool ready() {
        return network_ready(*this, 0,  NULL);
   b50bc:	2200      	movs	r2, #0
   b50be:	6840      	ldr	r0, [r0, #4]
   b50c0:	4611      	mov	r1, r2
   b50c2:	f7ff bf4b 	b.w	b4f5c <network_ready>

000b50c6 <_ZN5spark13EthernetClass10connectingEv>:
        return network_connecting(*this, 0, NULL);
   b50c6:	2200      	movs	r2, #0
   b50c8:	6840      	ldr	r0, [r0, #4]
   b50ca:	4611      	mov	r1, r2
   b50cc:	f7ff bf36 	b.w	b4f3c <network_connecting>

000b50d0 <_ZN5spark13EthernetClass10disconnectEv>:
        network_disconnect(*this, NETWORK_DISCONNECT_REASON_USER, NULL);
   b50d0:	6840      	ldr	r0, [r0, #4]
   b50d2:	2200      	movs	r2, #0
   b50d4:	2102      	movs	r1, #2
   b50d6:	f7ff bf39 	b.w	b4f4c <network_disconnect>

000b50da <_ZN5spark13EthernetClass7connectEj>:
        network_connect(*this, flags, 0, NULL);
   b50da:	2300      	movs	r3, #0
   b50dc:	6840      	ldr	r0, [r0, #4]
   b50de:	461a      	mov	r2, r3
   b50e0:	f7ff bf24 	b.w	b4f2c <network_connect>

000b50e4 <_GLOBAL__sub_I__ZN5spark8EthernetE>:
    static NetworkClass& from(network_interface_t nif);

    virtual IPAddress resolve(const char* name);

    explicit NetworkClass(network_interface_t iface)
            : iface_(iface) {
   b50e4:	4b02      	ldr	r3, [pc, #8]	; (b50f0 <_GLOBAL__sub_I__ZN5spark8EthernetE+0xc>)
   b50e6:	2203      	movs	r2, #3
   b50e8:	605a      	str	r2, [r3, #4]
            NetworkClass(NETWORK_INTERFACE_ETHERNET) {
   b50ea:	4a02      	ldr	r2, [pc, #8]	; (b50f4 <_GLOBAL__sub_I__ZN5spark8EthernetE+0x10>)
   b50ec:	601a      	str	r2, [r3, #0]

namespace spark {

EthernetClass Ethernet;

} // spark
   b50ee:	4770      	bx	lr
   b50f0:	2003e688 	.word	0x2003e688
   b50f4:	000b8a54 	.word	0x000b8a54

000b50f8 <_ZN8SPIClass6unlockEv.isra.0>:
  }

  void unlock()
  {
#if HAL_PLATFORM_SPI_HAL_THREAD_SAFETY
    hal_spi_release(_spi, nullptr);
   b50f8:	2100      	movs	r1, #0
   b50fa:	f7ff be7b 	b.w	b4df4 <hal_spi_release>

000b50fe <_ZN8SPIClass4lockEv.isra.0>:
    return hal_spi_acquire(_spi, nullptr);
   b50fe:	2100      	movs	r1, #0
   b5100:	f7ff be70 	b.w	b4de4 <hal_spi_acquire>

000b5104 <_ZN8SPIClassC1E19hal_spi_interface_t>:
    }
    return particle::SPISettings(info->clock, info->bit_order, info->data_mode);
}
} // namespace

SPIClass::SPIClass(hal_spi_interface_t spi)
   b5104:	b510      	push	{r4, lr}
   b5106:	4604      	mov	r4, r0
   b5108:	4608      	mov	r0, r1
{
    _spi = spi;
   b510a:	7021      	strb	r1, [r4, #0]
    hal_spi_init(_spi);
   b510c:	f7ff fe4a 	bl	b4da4 <hal_spi_init>
    _dividerReference = SPI_CLK_SYSTEM; // 0 indicates the system clock
   b5110:	2300      	movs	r3, #0
   b5112:	6063      	str	r3, [r4, #4]
}
   b5114:	4620      	mov	r0, r4
   b5116:	bd10      	pop	{r4, pc}

000b5118 <_ZN8SPIClass5beginEt>:
        unlock();
    }
}

void SPIClass::begin(uint16_t ss_pin)
{
   b5118:	b513      	push	{r0, r1, r4, lr}
   b511a:	4604      	mov	r4, r0
    if (!lock())
   b511c:	7800      	ldrb	r0, [r0, #0]
{
   b511e:	9101      	str	r1, [sp, #4]
    if (!lock())
   b5120:	f7ff ffed 	bl	b50fe <_ZN8SPIClass4lockEv.isra.0>
   b5124:	9901      	ldr	r1, [sp, #4]
   b5126:	b948      	cbnz	r0, b513c <_ZN8SPIClass5beginEt+0x24>
   b5128:	7820      	ldrb	r0, [r4, #0]
    {
        hal_spi_begin(_spi, ss_pin);
   b512a:	9001      	str	r0, [sp, #4]
   b512c:	f7ff fe2a 	bl	b4d84 <hal_spi_begin>
        unlock();
   b5130:	9801      	ldr	r0, [sp, #4]
    }
}
   b5132:	b002      	add	sp, #8
   b5134:	e8bd 4010 	ldmia.w	sp!, {r4, lr}
   b5138:	f7ff bfde 	b.w	b50f8 <_ZN8SPIClass6unlockEv.isra.0>
   b513c:	b002      	add	sp, #8
   b513e:	bd10      	pop	{r4, pc}

000b5140 <_ZN8SPIClass14endTransactionEv>:
}

void SPIClass::endTransaction()
{
    // Release peripheral
    unlock();
   b5140:	7800      	ldrb	r0, [r0, #0]
   b5142:	f7ff bfd9 	b.w	b50f8 <_ZN8SPIClass6unlockEv.isra.0>
	...

000b5148 <_ZN8SPIClass19computeClockDividerEjjRhRj>:
void SPIClass::computeClockDivider(unsigned reference, unsigned targetSpeed, uint8_t& divider,
                                   unsigned& clock)
{
    clock = reference;
    uint8_t scale = 0;
    clock >>= 1; // div2 is the first
   b5148:	0840      	lsrs	r0, r0, #1
{
   b514a:	b530      	push	{r4, r5, lr}
    clock >>= 1; // div2 is the first
   b514c:	6018      	str	r0, [r3, #0]
   b514e:	2400      	movs	r4, #0
    while (clock > targetSpeed && scale < 7)
   b5150:	6818      	ldr	r0, [r3, #0]
   b5152:	4288      	cmp	r0, r1
   b5154:	b2e5      	uxtb	r5, r4
   b5156:	d906      	bls.n	b5166 <_ZN8SPIClass19computeClockDividerEjjRhRj+0x1e>
   b5158:	3401      	adds	r4, #1
   b515a:	2c08      	cmp	r4, #8
   b515c:	d002      	beq.n	b5164 <_ZN8SPIClass19computeClockDividerEjjRhRj+0x1c>
    {
        clock >>= 1;
   b515e:	0840      	lsrs	r0, r0, #1
   b5160:	6018      	str	r0, [r3, #0]
    while (clock > targetSpeed && scale < 7)
   b5162:	e7f5      	b.n	b5150 <_ZN8SPIClass19computeClockDividerEjjRhRj+0x8>
   b5164:	2507      	movs	r5, #7
        scale++;
    }
    divider = clock_divisors[scale];
   b5166:	4b02      	ldr	r3, [pc, #8]	; (b5170 <_ZN8SPIClass19computeClockDividerEjjRhRj+0x28>)
   b5168:	5d5b      	ldrb	r3, [r3, r5]
   b516a:	7013      	strb	r3, [r2, #0]
}
   b516c:	bd30      	pop	{r4, r5, pc}
   b516e:	bf00      	nop
   b5170:	000b8a88 	.word	0x000b8a88

000b5174 <_ZN8SPIClass16beginTransactionERKN8particle11SPISettingsE>:
{
   b5174:	e92d 43f0 	stmdb	sp!, {r4, r5, r6, r7, r8, r9, lr}
   b5178:	4606      	mov	r6, r0
   b517a:	b08f      	sub	sp, #60	; 0x3c
    CHECK(lock());
   b517c:	7800      	ldrb	r0, [r0, #0]
{
   b517e:	460c      	mov	r4, r1
    CHECK(lock());
   b5180:	f7ff ffbd 	bl	b50fe <_ZN8SPIClass4lockEv.isra.0>
   b5184:	2800      	cmp	r0, #0
   b5186:	db1b      	blt.n	b51c0 <_ZN8SPIClass16beginTransactionERKN8particle11SPISettingsE+0x4c>
    querySpiInfo(_spi, &spi_info);
   b5188:	7835      	ldrb	r5, [r6, #0]
    memset(info, 0, sizeof(hal_spi_info_t));
   b518a:	2214      	movs	r2, #20
   b518c:	2100      	movs	r1, #0
   b518e:	a809      	add	r0, sp, #36	; 0x24
   b5190:	f003 fa14 	bl	b85bc <memset>
    info->version = HAL_SPI_INFO_VERSION_1;
   b5194:	230b      	movs	r3, #11
    hal_spi_info(spi, info, nullptr);
   b5196:	2200      	movs	r2, #0
   b5198:	a909      	add	r1, sp, #36	; 0x24
   b519a:	4628      	mov	r0, r5
    info->version = HAL_SPI_INFO_VERSION_1;
   b519c:	f8ad 3024 	strh.w	r3, [sp, #36]	; 0x24
    hal_spi_info(spi, info, nullptr);
   b51a0:	f7ff fe10 	bl	b4dc4 <hal_spi_info>
    if (!info || !info->enabled || info->default_settings)
   b51a4:	f89d 302d 	ldrb.w	r3, [sp, #45]	; 0x2d
   b51a8:	b113      	cbz	r3, b51b0 <_ZN8SPIClass16beginTransactionERKN8particle11SPISettingsE+0x3c>
   b51aa:	f89d 502c 	ldrb.w	r5, [sp, #44]	; 0x2c
   b51ae:	b155      	cbz	r5, b51c6 <_ZN8SPIClass16beginTransactionERKN8particle11SPISettingsE+0x52>
  {
   b51b0:	2700      	movs	r7, #0
   b51b2:	46b9      	mov	r9, r7
   b51b4:	46b8      	mov	r8, r7
   b51b6:	2501      	movs	r5, #1
    if (default_ && other.default_)
   b51b8:	7923      	ldrb	r3, [r4, #4]
   b51ba:	b15d      	cbz	r5, b51d4 <_ZN8SPIClass16beginTransactionERKN8particle11SPISettingsE+0x60>
   b51bc:	b1c3      	cbz	r3, b51f0 <_ZN8SPIClass16beginTransactionERKN8particle11SPISettingsE+0x7c>
    return 0;
   b51be:	2000      	movs	r0, #0
}
   b51c0:	b00f      	add	sp, #60	; 0x3c
   b51c2:	e8bd 83f0 	ldmia.w	sp!, {r4, r5, r6, r7, r8, r9, pc}
    return particle::SPISettings(info->clock, info->bit_order, info->data_mode);
   b51c6:	f8dd 8030 	ldr.w	r8, [sp, #48]	; 0x30
   b51ca:	f89d 9034 	ldrb.w	r9, [sp, #52]	; 0x34
   b51ce:	f89d 7035 	ldrb.w	r7, [sp, #53]	; 0x35
  }
   b51d2:	e7f1      	b.n	b51b8 <_ZN8SPIClass16beginTransactionERKN8particle11SPISettingsE+0x44>
    if (default_ == other.default_ &&
   b51d4:	2b00      	cmp	r3, #0
   b51d6:	d135      	bne.n	b5244 <_ZN8SPIClass16beginTransactionERKN8particle11SPISettingsE+0xd0>
   b51d8:	68a3      	ldr	r3, [r4, #8]
   b51da:	4543      	cmp	r3, r8
   b51dc:	d108      	bne.n	b51f0 <_ZN8SPIClass16beginTransactionERKN8particle11SPISettingsE+0x7c>
        bitOrder_ == other.bitOrder_ &&
   b51de:	f88d 9020 	strb.w	r9, [sp, #32]
   b51e2:	f88d 7021 	strb.w	r7, [sp, #33]	; 0x21
   b51e6:	f8bd 2020 	ldrh.w	r2, [sp, #32]
   b51ea:	89a3      	ldrh	r3, [r4, #12]
   b51ec:	429a      	cmp	r2, r3
   b51ee:	d0e6      	beq.n	b51be <_ZN8SPIClass16beginTransactionERKN8particle11SPISettingsE+0x4a>
            uint8_t divisor = 0;
   b51f0:	2300      	movs	r3, #0
            computeClockDivider((unsigned int)spi_info.system_clock, settings.clock_, divisor,
   b51f2:	68a1      	ldr	r1, [r4, #8]
            uint8_t divisor = 0;
   b51f4:	f88d 300f 	strb.w	r3, [sp, #15]
            computeClockDivider((unsigned int)spi_info.system_clock, settings.clock_, divisor,
   b51f8:	980a      	ldr	r0, [sp, #40]	; 0x28
   b51fa:	ab04      	add	r3, sp, #16
   b51fc:	f10d 020f 	add.w	r2, sp, #15
   b5200:	f7ff ffa2 	bl	b5148 <_ZN8SPIClass19computeClockDividerEjjRhRj>
    if (default_ && other.default_)
   b5204:	7921      	ldrb	r1, [r4, #4]
   b5206:	b985      	cbnz	r5, b522a <_ZN8SPIClass16beginTransactionERKN8particle11SPISettingsE+0xb6>
    if (default_ == other.default_ &&
   b5208:	b989      	cbnz	r1, b522e <_ZN8SPIClass16beginTransactionERKN8particle11SPISettingsE+0xba>
   b520a:	68a3      	ldr	r3, [r4, #8]
   b520c:	4543      	cmp	r3, r8
   b520e:	d30e      	bcc.n	b522e <_ZN8SPIClass16beginTransactionERKN8particle11SPISettingsE+0xba>
        bitOrder_ == other.bitOrder_ &&
   b5210:	f88d 9020 	strb.w	r9, [sp, #32]
   b5214:	f88d 7021 	strb.w	r7, [sp, #33]	; 0x21
   b5218:	f8bd 2020 	ldrh.w	r2, [sp, #32]
   b521c:	89a3      	ldrh	r3, [r4, #12]
   b521e:	429a      	cmp	r2, r3
   b5220:	d105      	bne.n	b522e <_ZN8SPIClass16beginTransactionERKN8particle11SPISettingsE+0xba>
            if (!(spi_settings <= settings && clock == spi_settings.clock_))
   b5222:	9b04      	ldr	r3, [sp, #16]
   b5224:	4543      	cmp	r3, r8
   b5226:	d102      	bne.n	b522e <_ZN8SPIClass16beginTransactionERKN8particle11SPISettingsE+0xba>
   b5228:	e7c9      	b.n	b51be <_ZN8SPIClass16beginTransactionERKN8particle11SPISettingsE+0x4a>
    if (default_ && other.default_)
   b522a:	2900      	cmp	r1, #0
   b522c:	d1f9      	bne.n	b5222 <_ZN8SPIClass16beginTransactionERKN8particle11SPISettingsE+0xae>
                hal_spi_set_settings(_spi, settings.default_, divisor, settings.bitOrder_,
   b522e:	2300      	movs	r3, #0
   b5230:	9301      	str	r3, [sp, #4]
   b5232:	7b63      	ldrb	r3, [r4, #13]
   b5234:	9300      	str	r3, [sp, #0]
   b5236:	f89d 200f 	ldrb.w	r2, [sp, #15]
   b523a:	7b23      	ldrb	r3, [r4, #12]
            hal_spi_set_settings(_spi, settings.default_, 0, 0, 0, nullptr);
   b523c:	7830      	ldrb	r0, [r6, #0]
   b523e:	f7ff fdc9 	bl	b4dd4 <hal_spi_set_settings>
   b5242:	e7bc      	b.n	b51be <_ZN8SPIClass16beginTransactionERKN8particle11SPISettingsE+0x4a>
   b5244:	e9cd 5500 	strd	r5, r5, [sp]
   b5248:	462b      	mov	r3, r5
   b524a:	462a      	mov	r2, r5
   b524c:	2101      	movs	r1, #1
   b524e:	e7f5      	b.n	b523c <_ZN8SPIClass16beginTransactionERKN8particle11SPISettingsE+0xc8>

000b5250 <_ZN8SPIClass8transferEh>:

    return clock;
}

byte SPIClass::transfer(byte _data)
{
   b5250:	b508      	push	{r3, lr}
    return static_cast<byte>(hal_spi_transfer(_spi, _data));
   b5252:	7800      	ldrb	r0, [r0, #0]
   b5254:	f7ff fd9e 	bl	b4d94 <hal_spi_transfer>
}
   b5258:	b2c0      	uxtb	r0, r0
   b525a:	bd08      	pop	{r3, pc}

000b525c <_GLOBAL__sub_I_System>:
} // namespace particle

// particle::Flag<TagT, ValueT>
template<typename TagT, typename ValueT>
inline particle::Flag<TagT, ValueT>::Flag(ValueT val) :
        val_(val) {
   b525c:	4b05      	ldr	r3, [pc, #20]	; (b5274 <_GLOBAL__sub_I_System+0x18>)
   b525e:	2202      	movs	r2, #2
   b5260:	601a      	str	r2, [r3, #0]

class SystemSleepResult {
public:
    SystemSleepResult()
            : wakeupSource_(nullptr),
              error_(SYSTEM_ERROR_NONE) {
   b5262:	4b05      	ldr	r3, [pc, #20]	; (b5278 <_GLOBAL__sub_I_System+0x1c>)
    SleepResult() {}
   b5264:	4a05      	ldr	r2, [pc, #20]	; (b527c <_GLOBAL__sub_I_System+0x20>)
   b5266:	609a      	str	r2, [r3, #8]
              error_(SYSTEM_ERROR_NONE) {
   b5268:	2000      	movs	r0, #0
   b526a:	e9c3 0000 	strd	r0, r0, [r3]

class SystemClass {
public:

    SystemClass(System_Mode_TypeDef mode = DEFAULT) {
        set_system_mode(mode);
   b526e:	f7ff be31 	b.w	b4ed4 <set_system_mode>
   b5272:	bf00      	nop
   b5274:	2003e69c 	.word	0x2003e69c
   b5278:	2003e690 	.word	0x2003e690
   b527c:	ffff0000 	.word	0xffff0000

000b5280 <_Z11str_reversePc>:

//------------------------------------------------------------------------------------------
#define BUFSIZE (sizeof(long) * 8 + 1)

//utility function used by ultoa()
__attribute__((weak)) void str_reverse(char* buffer){
   b5280:	b510      	push	{r4, lr}
   b5282:	4604      	mov	r4, r0
	char *i, *j;
	char c;
	i=buffer;
	j=buffer + strlen(buffer)-1;
   b5284:	f7fe fed4 	bl	b4030 <strlen>
   b5288:	3801      	subs	r0, #1
   b528a:	1823      	adds	r3, r4, r0
   b528c:	4620      	mov	r0, r4
	while(i<j){
   b528e:	4283      	cmp	r3, r0
   b5290:	d906      	bls.n	b52a0 <_Z11str_reversePc+0x20>
		c = *i;
   b5292:	7802      	ldrb	r2, [r0, #0]
		*i = *j;
   b5294:	7819      	ldrb	r1, [r3, #0]
   b5296:	f800 1b01 	strb.w	r1, [r0], #1
		*j = c;
   b529a:	f803 2901 	strb.w	r2, [r3], #-1
	while(i<j){
   b529e:	e7f6      	b.n	b528e <_Z11str_reversePc+0xe>
		++i;
		--j;
	}
}
   b52a0:	bd10      	pop	{r4, pc}

000b52a2 <ultoa>:
      memcpy(head, ++tail, i);
      return str;
}

//convert unsigned long to string
__attribute__((weak)) char* ultoa(unsigned long a, char* buffer, int radix, char pad){
   b52a2:	b570      	push	{r4, r5, r6, lr}
   b52a4:	460c      	mov	r4, r1
	if(radix<2 || radix>36){
   b52a6:	1e91      	subs	r1, r2, #2
   b52a8:	2922      	cmp	r1, #34	; 0x22
   b52aa:	d81d      	bhi.n	b52e8 <ultoa+0x46>
		return NULL;
	}
	char* ptr=buffer;
   b52ac:	4625      	mov	r5, r4

	div_t result;
	while(a){
   b52ae:	b930      	cbnz	r0, b52be <ultoa+0x1c>
                *ptr += 'a'-10;
            }
            ++ptr;
            a = result.quot;
	}
        while (ptr < buffer+pad)
   b52b0:	4423      	add	r3, r4
            *ptr++ = '0';
   b52b2:	2230      	movs	r2, #48	; 0x30
        while (ptr < buffer+pad)
   b52b4:	429d      	cmp	r5, r3
   b52b6:	d210      	bcs.n	b52da <ultoa+0x38>
            *ptr++ = '0';
   b52b8:	f805 2b01 	strb.w	r2, [r5], #1
        while (ptr < buffer+pad)
   b52bc:	e7fa      	b.n	b52b4 <ultoa+0x12>
            result.quot = a/radix;
   b52be:	fbb0 f6f2 	udiv	r6, r0, r2
            result.rem = a%radix;
   b52c2:	fb02 0016 	mls	r0, r2, r6, r0
            *ptr = result.rem;
   b52c6:	b2c1      	uxtb	r1, r0
            if(result.rem<10){
   b52c8:	2809      	cmp	r0, #9
                *ptr += '0';
   b52ca:	bf94      	ite	ls
   b52cc:	3130      	addls	r1, #48	; 0x30
                *ptr += 'a'-10;
   b52ce:	3157      	addhi	r1, #87	; 0x57
   b52d0:	b2c9      	uxtb	r1, r1
   b52d2:	f805 1b01 	strb.w	r1, [r5], #1
            a = result.quot;
   b52d6:	4630      	mov	r0, r6
	while(a){
   b52d8:	e7e9      	b.n	b52ae <ultoa+0xc>

	*ptr = '\0';
   b52da:	2300      	movs	r3, #0
	str_reverse(buffer);
   b52dc:	4620      	mov	r0, r4
	*ptr = '\0';
   b52de:	702b      	strb	r3, [r5, #0]
	str_reverse(buffer);
   b52e0:	f7ff ffce 	bl	b5280 <_Z11str_reversePc>
	return buffer;
   b52e4:	4620      	mov	r0, r4
}
   b52e6:	bd70      	pop	{r4, r5, r6, pc}
		return NULL;
   b52e8:	2000      	movs	r0, #0
   b52ea:	e7fc      	b.n	b52e6 <ultoa+0x44>

000b52ec <itoa>:

__attribute__((weak)) char* itoa(int a, char* buffer, int radix){
   b52ec:	b538      	push	{r3, r4, r5, lr}
	if(a<0){
   b52ee:	1e03      	subs	r3, r0, #0
__attribute__((weak)) char* itoa(int a, char* buffer, int radix){
   b52f0:	460c      	mov	r4, r1
   b52f2:	4615      	mov	r5, r2
	if(a<0){
   b52f4:	da0e      	bge.n	b5314 <itoa+0x28>
		*buffer = '-';
		unsigned v = a==INT_MIN ? ((unsigned)INT_MAX+1) : -a;
   b52f6:	f1b3 4f00 	cmp.w	r3, #2147483648	; 0x80000000
		*buffer = '-';
   b52fa:	f04f 022d 	mov.w	r2, #45	; 0x2d
		unsigned v = a==INT_MIN ? ((unsigned)INT_MAX+1) : -a;
   b52fe:	bf14      	ite	ne
   b5300:	4258      	negne	r0, r3
   b5302:	4618      	moveq	r0, r3
		ultoa((unsigned)v, buffer + 1, radix);
   b5304:	2301      	movs	r3, #1
		*buffer = '-';
   b5306:	700a      	strb	r2, [r1, #0]
		ultoa((unsigned)v, buffer + 1, radix);
   b5308:	462a      	mov	r2, r5
   b530a:	4419      	add	r1, r3
	}else{
		ultoa(a, buffer, radix);
   b530c:	f7ff ffc9 	bl	b52a2 <ultoa>
	}
	return buffer;
}
   b5310:	4620      	mov	r0, r4
   b5312:	bd38      	pop	{r3, r4, r5, pc}
		ultoa(a, buffer, radix);
   b5314:	2301      	movs	r3, #1
   b5316:	e7f9      	b.n	b530c <itoa+0x20>

000b5318 <_ZN6StringD1Ev>:
	init();
	char buf[33];
	dtoa(value, decimalPlaces, buf);
        *this = buf;
}
String::~String()
   b5318:	b510      	push	{r4, lr}
   b531a:	4604      	mov	r4, r0
{
	free(buffer);
   b531c:	6800      	ldr	r0, [r0, #0]
   b531e:	f7ff fe75 	bl	b500c <free>
}
   b5322:	4620      	mov	r0, r4
   b5324:	bd10      	pop	{r4, pc}

000b5326 <_ZN6String10invalidateEv>:
	len = 0;
	flags = 0;
}

void String::invalidate(void)
{
   b5326:	b510      	push	{r4, lr}
   b5328:	4604      	mov	r4, r0
	if (buffer) free(buffer);
   b532a:	6800      	ldr	r0, [r0, #0]
   b532c:	b108      	cbz	r0, b5332 <_ZN6String10invalidateEv+0xc>
   b532e:	f7ff fe6d 	bl	b500c <free>
	buffer = NULL;
   b5332:	2300      	movs	r3, #0
	capacity = len = 0;
   b5334:	e9c4 3301 	strd	r3, r3, [r4, #4]
	buffer = NULL;
   b5338:	6023      	str	r3, [r4, #0]
}
   b533a:	bd10      	pop	{r4, pc}

000b533c <_ZN6String12changeBufferEj>:
	}
	return 0;
}

unsigned char String::changeBuffer(unsigned int maxStrLen)
{
   b533c:	b538      	push	{r3, r4, r5, lr}
   b533e:	4604      	mov	r4, r0
   b5340:	460d      	mov	r5, r1
	char *newbuffer = (char *)realloc(buffer, maxStrLen + 1);
   b5342:	6800      	ldr	r0, [r0, #0]
   b5344:	3101      	adds	r1, #1
   b5346:	f7ff fe69 	bl	b501c <realloc>
	if (newbuffer) {
   b534a:	b110      	cbz	r0, b5352 <_ZN6String12changeBufferEj+0x16>
		buffer = newbuffer;
		capacity = maxStrLen;
   b534c:	e9c4 0500 	strd	r0, r5, [r4]
		return 1;
   b5350:	2001      	movs	r0, #1
	}
	return 0;
}
   b5352:	bd38      	pop	{r3, r4, r5, pc}

000b5354 <_ZN6String7reserveEj>:
{
   b5354:	b510      	push	{r4, lr}
	if (buffer && capacity >= size) return 1;
   b5356:	6803      	ldr	r3, [r0, #0]
{
   b5358:	4604      	mov	r4, r0
	if (buffer && capacity >= size) return 1;
   b535a:	b123      	cbz	r3, b5366 <_ZN6String7reserveEj+0x12>
   b535c:	6843      	ldr	r3, [r0, #4]
   b535e:	428b      	cmp	r3, r1
   b5360:	d301      	bcc.n	b5366 <_ZN6String7reserveEj+0x12>
   b5362:	2001      	movs	r0, #1
}
   b5364:	bd10      	pop	{r4, pc}
	if (changeBuffer(size)) {
   b5366:	4620      	mov	r0, r4
   b5368:	f7ff ffe8 	bl	b533c <_ZN6String12changeBufferEj>
   b536c:	2800      	cmp	r0, #0
   b536e:	d0f9      	beq.n	b5364 <_ZN6String7reserveEj+0x10>
		if (len == 0) buffer[0] = 0;
   b5370:	68a3      	ldr	r3, [r4, #8]
   b5372:	2b00      	cmp	r3, #0
   b5374:	d1f5      	bne.n	b5362 <_ZN6String7reserveEj+0xe>
   b5376:	6822      	ldr	r2, [r4, #0]
   b5378:	7013      	strb	r3, [r2, #0]
   b537a:	e7f2      	b.n	b5362 <_ZN6String7reserveEj+0xe>

000b537c <_ZN6String4copyEPKcj>:
/*********************************************/
/*  Copy and Move                            */
/*********************************************/

String & String::copy(const char *cstr, unsigned int length)
{
   b537c:	b537      	push	{r0, r1, r2, r4, r5, lr}
   b537e:	460d      	mov	r5, r1
	if (!reserve(length)) {
   b5380:	4611      	mov	r1, r2
   b5382:	9201      	str	r2, [sp, #4]
{
   b5384:	4604      	mov	r4, r0
	if (!reserve(length)) {
   b5386:	f7ff ffe5 	bl	b5354 <_ZN6String7reserveEj>
   b538a:	9a01      	ldr	r2, [sp, #4]
   b538c:	b928      	cbnz	r0, b539a <_ZN6String4copyEPKcj+0x1e>
		invalidate();
   b538e:	4620      	mov	r0, r4
   b5390:	f7ff ffc9 	bl	b5326 <_ZN6String10invalidateEv>
	}
	len = length;
	memcpy(buffer, cstr, length);
	buffer[len] = 0;
	return *this;
}
   b5394:	4620      	mov	r0, r4
   b5396:	b003      	add	sp, #12
   b5398:	bd30      	pop	{r4, r5, pc}
	len = length;
   b539a:	60a2      	str	r2, [r4, #8]
	memcpy(buffer, cstr, length);
   b539c:	4629      	mov	r1, r5
   b539e:	6820      	ldr	r0, [r4, #0]
   b53a0:	f003 f8e4 	bl	b856c <memcpy>
	buffer[len] = 0;
   b53a4:	6822      	ldr	r2, [r4, #0]
   b53a6:	68a3      	ldr	r3, [r4, #8]
   b53a8:	2100      	movs	r1, #0
   b53aa:	54d1      	strb	r1, [r2, r3]
	return *this;
   b53ac:	e7f2      	b.n	b5394 <_ZN6String4copyEPKcj+0x18>

000b53ae <_ZN6StringC1EPK19__FlashStringHelper>:
	buffer = NULL;
   b53ae:	2300      	movs	r3, #0
String::String(const __FlashStringHelper *pstr)
   b53b0:	b513      	push	{r0, r1, r4, lr}
	capacity = 0;
   b53b2:	e9c0 3300 	strd	r3, r3, [r0]
String::String(const __FlashStringHelper *pstr)
   b53b6:	4604      	mov	r4, r0
	len = 0;
   b53b8:	6083      	str	r3, [r0, #8]
	flags = 0;
   b53ba:	7303      	strb	r3, [r0, #12]
	if (cstr) copy(cstr, strlen(cstr));
   b53bc:	b141      	cbz	r1, b53d0 <_ZN6StringC1EPK19__FlashStringHelper+0x22>
	if (cstr) copy(cstr, strlen(cstr));
   b53be:	4608      	mov	r0, r1
   b53c0:	9101      	str	r1, [sp, #4]
   b53c2:	f7fe fe35 	bl	b4030 <strlen>
   b53c6:	9901      	ldr	r1, [sp, #4]
   b53c8:	4602      	mov	r2, r0
   b53ca:	4620      	mov	r0, r4
   b53cc:	f7ff ffd6 	bl	b537c <_ZN6String4copyEPKcj>
}
   b53d0:	4620      	mov	r0, r4
   b53d2:	b002      	add	sp, #8
   b53d4:	bd10      	pop	{r4, pc}

000b53d6 <_ZN6String4moveERS_>:
    return copy(reinterpret_cast<const char*>(pstr), length);
}

#ifdef __GXX_EXPERIMENTAL_CXX0X__
void String::move(String &rhs)
{
   b53d6:	b538      	push	{r3, r4, r5, lr}
   b53d8:	4605      	mov	r5, r0
	if (buffer) {
   b53da:	6800      	ldr	r0, [r0, #0]
{
   b53dc:	460c      	mov	r4, r1
	if (buffer) {
   b53de:	b168      	cbz	r0, b53fc <_ZN6String4moveERS_+0x26>
		if (capacity >= rhs.len) {
   b53e0:	686a      	ldr	r2, [r5, #4]
   b53e2:	688b      	ldr	r3, [r1, #8]
   b53e4:	429a      	cmp	r2, r3
   b53e6:	d307      	bcc.n	b53f8 <_ZN6String4moveERS_+0x22>
			strcpy(buffer, rhs.buffer);
   b53e8:	6809      	ldr	r1, [r1, #0]
   b53ea:	f003 f934 	bl	b8656 <strcpy>
			len = rhs.len;
   b53ee:	68a3      	ldr	r3, [r4, #8]
   b53f0:	60ab      	str	r3, [r5, #8]
			rhs.len = 0;
   b53f2:	2300      	movs	r3, #0
	buffer = rhs.buffer;
	capacity = rhs.capacity;
	len = rhs.len;
	rhs.buffer = NULL;
	rhs.capacity = 0;
	rhs.len = 0;
   b53f4:	60a3      	str	r3, [r4, #8]
}
   b53f6:	bd38      	pop	{r3, r4, r5, pc}
			free(buffer);
   b53f8:	f7ff fe08 	bl	b500c <free>
	buffer = rhs.buffer;
   b53fc:	6823      	ldr	r3, [r4, #0]
   b53fe:	602b      	str	r3, [r5, #0]
	capacity = rhs.capacity;
   b5400:	6863      	ldr	r3, [r4, #4]
   b5402:	606b      	str	r3, [r5, #4]
	len = rhs.len;
   b5404:	68a3      	ldr	r3, [r4, #8]
   b5406:	60ab      	str	r3, [r5, #8]
	rhs.buffer = NULL;
   b5408:	2300      	movs	r3, #0
	rhs.capacity = 0;
   b540a:	e9c4 3300 	strd	r3, r3, [r4]
   b540e:	e7f1      	b.n	b53f4 <_ZN6String4moveERS_+0x1e>

000b5410 <_ZN6StringC1EOS_>:
String::String(String &&rval)
   b5410:	b510      	push	{r4, lr}
	buffer = NULL;
   b5412:	2300      	movs	r3, #0
	capacity = 0;
   b5414:	e9c0 3300 	strd	r3, r3, [r0]
String::String(String &&rval)
   b5418:	4604      	mov	r4, r0
	len = 0;
   b541a:	6083      	str	r3, [r0, #8]
	flags = 0;
   b541c:	7303      	strb	r3, [r0, #12]
	move(rval);
   b541e:	f7ff ffda 	bl	b53d6 <_ZN6String4moveERS_>
}
   b5422:	4620      	mov	r0, r4
   b5424:	bd10      	pop	{r4, pc}

000b5426 <_ZN6StringaSERKS_>:
#endif

String & String::operator = (const String &rhs)
{
	if (this == &rhs) return *this;
   b5426:	4288      	cmp	r0, r1
{
   b5428:	b510      	push	{r4, lr}
   b542a:	4604      	mov	r4, r0
	if (this == &rhs) return *this;
   b542c:	d005      	beq.n	b543a <_ZN6StringaSERKS_+0x14>

	if (rhs.buffer) copy(rhs.buffer, rhs.len);
   b542e:	680b      	ldr	r3, [r1, #0]
   b5430:	b12b      	cbz	r3, b543e <_ZN6StringaSERKS_+0x18>
   b5432:	688a      	ldr	r2, [r1, #8]
   b5434:	4619      	mov	r1, r3
   b5436:	f7ff ffa1 	bl	b537c <_ZN6String4copyEPKcj>
	else invalidate();

	return *this;
}
   b543a:	4620      	mov	r0, r4
   b543c:	bd10      	pop	{r4, pc}
	else invalidate();
   b543e:	f7ff ff72 	bl	b5326 <_ZN6String10invalidateEv>
   b5442:	e7fa      	b.n	b543a <_ZN6StringaSERKS_+0x14>

000b5444 <_ZN6StringC1ERKS_>:
String::String(const String &value)
   b5444:	b510      	push	{r4, lr}
	buffer = NULL;
   b5446:	2300      	movs	r3, #0
String::String(const String &value)
   b5448:	4604      	mov	r4, r0
	capacity = 0;
   b544a:	e9c0 3300 	strd	r3, r3, [r0]
	len = 0;
   b544e:	6083      	str	r3, [r0, #8]
	flags = 0;
   b5450:	7303      	strb	r3, [r0, #12]
	*this = value;
   b5452:	f7ff ffe8 	bl	b5426 <_ZN6StringaSERKS_>
}
   b5456:	4620      	mov	r0, r4
   b5458:	bd10      	pop	{r4, pc}

000b545a <_ZN6StringaSEPKc>:
	return *this;
}
#endif

String & String::operator = (const char *cstr)
{
   b545a:	b513      	push	{r0, r1, r4, lr}
   b545c:	4604      	mov	r4, r0
	if (cstr) copy(cstr, strlen(cstr));
   b545e:	b159      	cbz	r1, b5478 <_ZN6StringaSEPKc+0x1e>
   b5460:	4608      	mov	r0, r1
   b5462:	9101      	str	r1, [sp, #4]
   b5464:	f7fe fde4 	bl	b4030 <strlen>
   b5468:	9901      	ldr	r1, [sp, #4]
   b546a:	4602      	mov	r2, r0
   b546c:	4620      	mov	r0, r4
   b546e:	f7ff ff85 	bl	b537c <_ZN6String4copyEPKcj>
	else invalidate();

	return *this;
}
   b5472:	4620      	mov	r0, r4
   b5474:	b002      	add	sp, #8
   b5476:	bd10      	pop	{r4, pc}
	else invalidate();
   b5478:	f7ff ff55 	bl	b5326 <_ZN6String10invalidateEv>
   b547c:	e7f9      	b.n	b5472 <_ZN6StringaSEPKc+0x18>

000b547e <_ZN6StringC1Eih>:
String::String(int value, unsigned char base)
   b547e:	b510      	push	{r4, lr}
   b5480:	4604      	mov	r4, r0
   b5482:	b08a      	sub	sp, #40	; 0x28
	buffer = NULL;
   b5484:	2300      	movs	r3, #0
	capacity = 0;
   b5486:	e9c4 3300 	strd	r3, r3, [r4]
	len = 0;
   b548a:	60a3      	str	r3, [r4, #8]
	flags = 0;
   b548c:	7323      	strb	r3, [r4, #12]
String::String(int value, unsigned char base)
   b548e:	4608      	mov	r0, r1
	itoa(value, buf, base);
   b5490:	a901      	add	r1, sp, #4
   b5492:	f7ff ff2b 	bl	b52ec <itoa>
	*this = buf;
   b5496:	a901      	add	r1, sp, #4
   b5498:	4620      	mov	r0, r4
   b549a:	f7ff ffde 	bl	b545a <_ZN6StringaSEPKc>
}
   b549e:	4620      	mov	r0, r4
   b54a0:	b00a      	add	sp, #40	; 0x28
   b54a2:	bd10      	pop	{r4, pc}

000b54a4 <_ZNSt23_Sp_counted_ptr_inplaceIN8particle17BlePeerDeviceImplESaIS1_ELN9__gnu_cxx12_Lock_policyE0EED1Ev>:
	  // 2070.  allocate_shared should use allocator_traits<A>::construct
	  allocator_traits<_Alloc>::construct(__a, _M_ptr(),
	      std::forward<_Args>(__args)...); // might throw
	}

      ~_Sp_counted_ptr_inplace() noexcept { }
   b54a4:	4770      	bx	lr
	...

000b54a8 <_ZNSt23_Sp_counted_ptr_inplaceIN8particle17BlePeerDeviceImplESaIS1_ELN9__gnu_cxx12_Lock_policyE0EE14_M_get_deleterERKSt9type_info>:
	// Check for the fake type_info first, so we don't try to access it
	// as a real type_info object. Otherwise, check if it's the real
	// type_info for this class. With RTTI enabled we can check directly,
	// or call a library function to do it.
	if (&__ti == &_Sp_make_shared_tag::_S_ti()
	    ||
   b54a8:	4b06      	ldr	r3, [pc, #24]	; (b54c4 <_ZNSt23_Sp_counted_ptr_inplaceIN8particle17BlePeerDeviceImplESaIS1_ELN9__gnu_cxx12_Lock_policyE0EE14_M_get_deleterERKSt9type_info+0x1c>)
   b54aa:	4299      	cmp	r1, r3
      _M_get_deleter(const std::type_info& __ti) noexcept override
   b54ac:	b510      	push	{r4, lr}
      __aligned_buffer(std::nullptr_t) { }

      void*
      _M_addr() noexcept
      {
        return static_cast<void*>(&_M_storage);
   b54ae:	f100 040c 	add.w	r4, r0, #12
	    ||
   b54b2:	d005      	beq.n	b54c0 <_ZNSt23_Sp_counted_ptr_inplaceIN8particle17BlePeerDeviceImplESaIS1_ELN9__gnu_cxx12_Lock_policyE0EE14_M_get_deleterERKSt9type_info+0x18>
#if __cpp_rtti
	    __ti == typeid(_Sp_make_shared_tag)
#else
	    _Sp_make_shared_tag::_S_eq(__ti)
   b54b4:	4608      	mov	r0, r1
   b54b6:	f002 ff29 	bl	b830c <_ZNSt19_Sp_make_shared_tag5_S_eqERKSt9type_info>
#endif
	   )
	  return __ptr;
	return nullptr;
   b54ba:	2800      	cmp	r0, #0
   b54bc:	bf08      	it	eq
   b54be:	2400      	moveq	r4, #0
      }
   b54c0:	4620      	mov	r0, r4
   b54c2:	bd10      	pop	{r4, pc}
   b54c4:	000b8b6c 	.word	0x000b8b6c

000b54c8 <_ZNSt23_Sp_counted_ptr_inplaceIN8particle17BlePeerDeviceImplESaIS1_ELN9__gnu_cxx12_Lock_policyE0EED0Ev>:
      ~_Sp_counted_ptr_inplace() noexcept { }
   b54c8:	b510      	push	{r4, lr}
   b54ca:	2130      	movs	r1, #48	; 0x30
   b54cc:	4604      	mov	r4, r0
   b54ce:	f7fe fdf8 	bl	b40c2 <_ZdlPvj>
   b54d2:	4620      	mov	r0, r4
   b54d4:	bd10      	pop	{r4, pc}

000b54d6 <_ZNSt23_Sp_counted_ptr_inplaceIN8particle17BlePeerDeviceImplESaIS1_ELN9__gnu_cxx12_Lock_policyE0EE10_M_destroyEv>:
# endif
			      std::align_val_t(alignof(_Tp)));
	    return;
	  }
#endif
	::operator delete(__p
   b54d6:	2130      	movs	r1, #48	; 0x30
   b54d8:	f7fe bdf3 	b.w	b40c2 <_ZdlPvj>

000b54dc <_ZN8particle18BleAdvertisingData6locateEPKhjNS_22BleAdvertisingDataTypeEPj.part.0>:
        break;
    }
    return uuids;
}

size_t BleAdvertisingData::locate(const uint8_t* buf, size_t len, BleAdvertisingDataType type, size_t* offset) {
   b54dc:	b5f0      	push	{r4, r5, r6, r7, lr}
    if (offset == nullptr) {
        return 0;
    }
    uint8_t adsType = static_cast<uint8_t>(type);
    size_t adsLen;
    for (size_t i = 0; (i + 3) <= len; i = i) {
   b54de:	2500      	movs	r5, #0
   b54e0:	1cec      	adds	r4, r5, #3
   b54e2:	428c      	cmp	r4, r1
   b54e4:	d80d      	bhi.n	b5502 <_ZN8particle18BleAdvertisingData6locateEPKhjNS_22BleAdvertisingDataTypeEPj.part.0+0x26>
        adsLen = buf[i];
        if (buf[i + 1] == adsType) {
   b54e6:	1c6e      	adds	r6, r5, #1
        adsLen = buf[i];
   b54e8:	5d44      	ldrb	r4, [r0, r5]
        if (buf[i + 1] == adsType) {
   b54ea:	5d87      	ldrb	r7, [r0, r6]
   b54ec:	4297      	cmp	r7, r2
   b54ee:	d105      	bne.n	b54fc <_ZN8particle18BleAdvertisingData6locateEPKhjNS_22BleAdvertisingDataTypeEPj.part.0+0x20>
            // The value of adsLen doesn't include the length field of an AD structure.
            if ((i + adsLen + 1) <= len) {
   b54f0:	4426      	add	r6, r4
   b54f2:	42b1      	cmp	r1, r6
   b54f4:	d305      	bcc.n	b5502 <_ZN8particle18BleAdvertisingData6locateEPKhjNS_22BleAdvertisingDataTypeEPj.part.0+0x26>
                *offset = i;
   b54f6:	601d      	str	r5, [r3, #0]
                adsLen += 1;
   b54f8:	1c60      	adds	r0, r4, #1
            // Navigate to the next AD structure.
            i += (adsLen + 1);
        }
    }
    return 0;
}
   b54fa:	bdf0      	pop	{r4, r5, r6, r7, pc}
            i += (adsLen + 1);
   b54fc:	3401      	adds	r4, #1
   b54fe:	4425      	add	r5, r4
    for (size_t i = 0; (i + 3) <= len; i = i) {
   b5500:	e7ee      	b.n	b54e0 <_ZN8particle18BleAdvertisingData6locateEPKhjNS_22BleAdvertisingDataTypeEPj.part.0+0x4>
    return 0;
   b5502:	2000      	movs	r0, #0
   b5504:	e7f9      	b.n	b54fa <_ZN8particle18BleAdvertisingData6locateEPKhjNS_22BleAdvertisingDataTypeEPj.part.0+0x1e>

000b5506 <_ZNSt17_Function_handlerIFvRKN8particle13BlePeerDeviceEESt5_BindIFPFvS3_PvESt12_PlaceholderILi1EES6_EEE9_M_invokeERKSt9_Any_dataS3_>:
	  }
	return false;
      }

      static _Res
      _M_invoke(const _Any_data& __functor, _ArgTypes&&... __args)
   b5506:	4603      	mov	r3, r0
   b5508:	4608      	mov	r0, r1
	    return __source._M_access<_Functor*>();
   b550a:	681b      	ldr	r3, [r3, #0]
    { return static_cast<_Up&&>(__t); }

  template<typename _Res, typename _Fn, typename... _Args>
    constexpr _Res
    __invoke_impl(__invoke_other, _Fn&& __f, _Args&&... __args)
    { return std::forward<_Fn>(__f)(std::forward<_Args>(__args)...); }
   b550c:	e9d3 2100 	ldrd	r2, r1, [r3]
   b5510:	4710      	bx	r2

000b5512 <_ZNSt17_Function_handlerIFvRKN8particle13BlePeerDeviceEESt5_BindIFPFvS3_PvESt12_PlaceholderILi1EES6_EEE10_M_managerERSt9_Any_dataRKSE_St18_Manager_operation>:
	switch (__op)
   b5512:	2a01      	cmp	r2, #1
      _M_manager(_Any_data& __dest, const _Any_data& __source,
   b5514:	b538      	push	{r3, r4, r5, lr}
   b5516:	4604      	mov	r4, r0
	switch (__op)
   b5518:	d102      	bne.n	b5520 <_ZNSt17_Function_handlerIFvRKN8particle13BlePeerDeviceEESt5_BindIFPFvS3_PvESt12_PlaceholderILi1EES6_EEE10_M_managerERSt9_Any_dataRKSE_St18_Manager_operation+0xe>
	    return __source._M_access<_Functor*>();
   b551a:	680b      	ldr	r3, [r1, #0]
	  __dest._M_access<_Functor*>() =
   b551c:	6023      	str	r3, [r4, #0]
	}
   b551e:	e003      	b.n	b5528 <_ZNSt17_Function_handlerIFvRKN8particle13BlePeerDeviceEESt5_BindIFPFvS3_PvESt12_PlaceholderILi1EES6_EEE10_M_managerERSt9_Any_dataRKSE_St18_Manager_operation+0x16>
	  switch (__op)
   b5520:	2a02      	cmp	r2, #2
   b5522:	d003      	beq.n	b552c <_ZNSt17_Function_handlerIFvRKN8particle13BlePeerDeviceEESt5_BindIFPFvS3_PvESt12_PlaceholderILi1EES6_EEE10_M_managerERSt9_Any_dataRKSE_St18_Manager_operation+0x1a>
   b5524:	2a03      	cmp	r2, #3
   b5526:	d00d      	beq.n	b5544 <_ZNSt17_Function_handlerIFvRKN8particle13BlePeerDeviceEESt5_BindIFPFvS3_PvESt12_PlaceholderILi1EES6_EEE10_M_managerERSt9_Any_dataRKSE_St18_Manager_operation+0x32>
      }
   b5528:	2000      	movs	r0, #0
   b552a:	bd38      	pop	{r3, r4, r5, pc}
	    new _Functor(*__source._M_access<const _Functor*>());
   b552c:	2008      	movs	r0, #8
	  __dest._M_access<_Functor*>() =
   b552e:	680d      	ldr	r5, [r1, #0]
	    new _Functor(*__source._M_access<const _Functor*>());
   b5530:	f7fe fdc1 	bl	b40b6 <_Znwj>
   b5534:	4603      	mov	r3, r0
   b5536:	2800      	cmp	r0, #0
   b5538:	d0f0      	beq.n	b551c <_ZNSt17_Function_handlerIFvRKN8particle13BlePeerDeviceEESt5_BindIFPFvS3_PvESt12_PlaceholderILi1EES6_EEE10_M_managerERSt9_Any_dataRKSE_St18_Manager_operation+0xa>
   b553a:	e895 0003 	ldmia.w	r5, {r0, r1}
   b553e:	e883 0003 	stmia.w	r3, {r0, r1}
   b5542:	e7eb      	b.n	b551c <_ZNSt17_Function_handlerIFvRKN8particle13BlePeerDeviceEESt5_BindIFPFvS3_PvESt12_PlaceholderILi1EES6_EEE10_M_managerERSt9_Any_dataRKSE_St18_Manager_operation+0xa>
	  delete __victim._M_access<_Functor*>();
   b5544:	6800      	ldr	r0, [r0, #0]
   b5546:	2800      	cmp	r0, #0
   b5548:	d0ee      	beq.n	b5528 <_ZNSt17_Function_handlerIFvRKN8particle13BlePeerDeviceEESt5_BindIFPFvS3_PvESt12_PlaceholderILi1EES6_EEE10_M_managerERSt9_Any_dataRKSE_St18_Manager_operation+0x16>
   b554a:	2108      	movs	r1, #8
   b554c:	f7fe fdb9 	bl	b40c2 <_ZdlPvj>
   b5550:	e7ea      	b.n	b5528 <_ZNSt17_Function_handlerIFvRKN8particle13BlePeerDeviceEESt5_BindIFPFvS3_PvESt12_PlaceholderILi1EES6_EEE10_M_managerERSt9_Any_dataRKSE_St18_Manager_operation+0x16>

000b5552 <_ZNSt14_Function_baseD1Ev>:
    ~_Function_base()
   b5552:	b510      	push	{r4, lr}
      if (_M_manager)
   b5554:	6883      	ldr	r3, [r0, #8]
    ~_Function_base()
   b5556:	4604      	mov	r4, r0
      if (_M_manager)
   b5558:	b113      	cbz	r3, b5560 <_ZNSt14_Function_baseD1Ev+0xe>
	_M_manager(_M_functor, _M_functor, __destroy_functor);
   b555a:	2203      	movs	r2, #3
   b555c:	4601      	mov	r1, r0
   b555e:	4798      	blx	r3
    }
   b5560:	4620      	mov	r0, r4
   b5562:	bd10      	pop	{r4, pc}

000b5564 <_ZNSt16_Sp_counted_baseILN9__gnu_cxx12_Lock_policyE0EE10_M_releaseEv>:
    {
   b5564:	b510      	push	{r4, lr}
      if (--_M_use_count == 0)
   b5566:	6843      	ldr	r3, [r0, #4]
   b5568:	3b01      	subs	r3, #1
    {
   b556a:	4604      	mov	r4, r0
      if (--_M_use_count == 0)
   b556c:	6043      	str	r3, [r0, #4]
   b556e:	b963      	cbnz	r3, b558a <_ZNSt16_Sp_counted_baseILN9__gnu_cxx12_Lock_policyE0EE10_M_releaseEv+0x26>
          _M_dispose();
   b5570:	6803      	ldr	r3, [r0, #0]
   b5572:	689b      	ldr	r3, [r3, #8]
   b5574:	4798      	blx	r3
          if (--_M_weak_count == 0)
   b5576:	68a3      	ldr	r3, [r4, #8]
   b5578:	3b01      	subs	r3, #1
   b557a:	60a3      	str	r3, [r4, #8]
   b557c:	b92b      	cbnz	r3, b558a <_ZNSt16_Sp_counted_baseILN9__gnu_cxx12_Lock_policyE0EE10_M_releaseEv+0x26>
            _M_destroy();
   b557e:	6823      	ldr	r3, [r4, #0]
   b5580:	4620      	mov	r0, r4
   b5582:	68db      	ldr	r3, [r3, #12]
    }
   b5584:	e8bd 4010 	ldmia.w	sp!, {r4, lr}
            _M_destroy();
   b5588:	4718      	bx	r3
    }
   b558a:	bd10      	pop	{r4, pc}

000b558c <_ZN8particle11hexToNibbleEc>:
#include <cstdint>

namespace particle {

inline int hexToNibble(char c) {
    if (c >= '0' && c <= '9') {
   b558c:	f1a0 0330 	sub.w	r3, r0, #48	; 0x30
   b5590:	b2da      	uxtb	r2, r3
   b5592:	2a09      	cmp	r2, #9
   b5594:	d801      	bhi.n	b559a <_ZN8particle11hexToNibbleEc+0xe>
        return (c - '0');
   b5596:	4618      	mov	r0, r3
   b5598:	4770      	bx	lr
    } else if (c >= 'a' && c <= 'f') {
   b559a:	f1a0 0361 	sub.w	r3, r0, #97	; 0x61
   b559e:	2b05      	cmp	r3, #5
   b55a0:	d801      	bhi.n	b55a6 <_ZN8particle11hexToNibbleEc+0x1a>
        return (c - 'a' + 0x0a);
   b55a2:	3857      	subs	r0, #87	; 0x57
   b55a4:	4770      	bx	lr
    } else if (c >= 'A' && c <= 'F') {
   b55a6:	f1a0 0341 	sub.w	r3, r0, #65	; 0x41
   b55aa:	2b05      	cmp	r3, #5
        return (c - 'A' + 0x0a);
   b55ac:	bf94      	ite	ls
   b55ae:	3837      	subls	r0, #55	; 0x37
    }
    return -1;
   b55b0:	f04f 30ff 	movhi.w	r0, #4294967295
}
   b55b4:	4770      	bx	lr
	...

000b55b8 <_ZN8particle3ble13WiringBleLockC1Ev>:
    WiringBleLock() :
   b55b8:	b510      	push	{r4, lr}
            locked_(false) {
   b55ba:	2300      	movs	r3, #0
   b55bc:	7003      	strb	r3, [r0, #0]
            os_mutex_recursive_destroy(handle_);
            handle_ = nullptr;
        }
    }

    void lock() { os_mutex_recursive_lock(handle_); }
   b55be:	4b04      	ldr	r3, [pc, #16]	; (b55d0 <_ZN8particle3ble13WiringBleLockC1Ev+0x18>)
    WiringBleLock() :
   b55c0:	4604      	mov	r4, r0
   b55c2:	6818      	ldr	r0, [r3, #0]
   b55c4:	f7ff fafe 	bl	b4bc4 <os_mutex_recursive_lock>
        locked_ = true;
   b55c8:	2301      	movs	r3, #1
   b55ca:	7023      	strb	r3, [r4, #0]
    }
   b55cc:	4620      	mov	r0, r4
   b55ce:	bd10      	pop	{r4, pc}
   b55d0:	2003e6a4 	.word	0x2003e6a4

000b55d4 <_ZN8particle3ble13WiringBleLockD1Ev>:
    ~WiringBleLock() {
   b55d4:	b510      	push	{r4, lr}
        if (locked_) {
   b55d6:	7803      	ldrb	r3, [r0, #0]
    ~WiringBleLock() {
   b55d8:	4604      	mov	r4, r0
        if (locked_) {
   b55da:	b11b      	cbz	r3, b55e4 <_ZN8particle3ble13WiringBleLockD1Ev+0x10>
    bool trylock() { return os_mutex_recursive_trylock(handle_)==0; }
    bool try_lock() { return trylock(); }
    void unlock() { os_mutex_recursive_unlock(handle_); }
   b55dc:	4b02      	ldr	r3, [pc, #8]	; (b55e8 <_ZN8particle3ble13WiringBleLockD1Ev+0x14>)
   b55de:	6818      	ldr	r0, [r3, #0]
   b55e0:	f7ff faf8 	bl	b4bd4 <os_mutex_recursive_unlock>
    }
   b55e4:	4620      	mov	r0, r4
   b55e6:	bd10      	pop	{r4, pc}
   b55e8:	2003e6a4 	.word	0x2003e6a4

000b55ec <_ZN8particle10BleAddressaSERK14hal_ble_addr_t>:
BleAddress& BleAddress::operator=(const hal_ble_addr_t& addr) {
   b55ec:	b082      	sub	sp, #8
   b55ee:	4603      	mov	r3, r0
    address_ = addr;
   b55f0:	6808      	ldr	r0, [r1, #0]
   b55f2:	6849      	ldr	r1, [r1, #4]
   b55f4:	466a      	mov	r2, sp
   b55f6:	c203      	stmia	r2!, {r0, r1}
    address_ = addr.address_;
   b55f8:	466a      	mov	r2, sp
   b55fa:	ca03      	ldmia	r2!, {r0, r1}
   b55fc:	6018      	str	r0, [r3, #0]
}
   b55fe:	4618      	mov	r0, r3
    address_ = addr.address_;
   b5600:	6059      	str	r1, [r3, #4]
}
   b5602:	b002      	add	sp, #8
   b5604:	4770      	bx	lr

000b5606 <_ZNK8particle10BleAddresseqERKS0_>:
bool BleAddress::operator==(const BleAddress& addr) const {
   b5606:	b508      	push	{r3, lr}
    if (address_.addr_type == addr.address_.addr_type && !memcmp(address_.addr, addr.address_.addr, BLE_SIG_ADDR_LEN)) {
   b5608:	7982      	ldrb	r2, [r0, #6]
   b560a:	798b      	ldrb	r3, [r1, #6]
   b560c:	429a      	cmp	r2, r3
   b560e:	d106      	bne.n	b561e <_ZNK8particle10BleAddresseqERKS0_+0x18>
   b5610:	2206      	movs	r2, #6
   b5612:	f002 ff9b 	bl	b854c <memcmp>
   b5616:	fab0 f080 	clz	r0, r0
   b561a:	0940      	lsrs	r0, r0, #5
}
   b561c:	bd08      	pop	{r3, pc}
    return false;
   b561e:	2000      	movs	r0, #0
   b5620:	e7fc      	b.n	b561c <_ZNK8particle10BleAddresseqERKS0_+0x16>

000b5622 <_ZN8particle10BleAddress5clearEv>:
    memset(address_.addr, 0xFF, BLE_SIG_ADDR_LEN);
   b5622:	f04f 33ff 	mov.w	r3, #4294967295
   b5626:	6003      	str	r3, [r0, #0]
   b5628:	8083      	strh	r3, [r0, #4]
}
   b562a:	2000      	movs	r0, #0
   b562c:	4770      	bx	lr

000b562e <_ZN8particle10BleAddressC1Ev>:
BleAddress::BleAddress()
   b562e:	b508      	push	{r3, lr}
   b5630:	4602      	mov	r2, r0
        : address_{} {
   b5632:	2100      	movs	r1, #0
   b5634:	6001      	str	r1, [r0, #0]
   b5636:	6041      	str	r1, [r0, #4]
    clear();
   b5638:	f7ff fff3 	bl	b5622 <_ZN8particle10BleAddress5clearEv>
    address_.addr_type = BLE_SIG_ADDR_TYPE_PUBLIC;
   b563c:	7191      	strb	r1, [r2, #6]
}
   b563e:	4610      	mov	r0, r2
   b5640:	bd08      	pop	{r3, pc}
	...

000b5644 <_ZN8particle7BleUuidC1Ev>:
BleUuid::BleUuid()
   b5644:	b510      	push	{r4, lr}
        : type_(BleUuidType::LONG) {
   b5646:	2301      	movs	r3, #1
   b5648:	6103      	str	r3, [r0, #16]
    memcpy(uuid128_, BASE_UUID, BLE_SIG_UUID_128BIT_LEN);
   b564a:	4b05      	ldr	r3, [pc, #20]	; (b5660 <_ZN8particle7BleUuidC1Ev+0x1c>)
   b564c:	4602      	mov	r2, r0
   b564e:	f103 0110 	add.w	r1, r3, #16
   b5652:	f853 4b04 	ldr.w	r4, [r3], #4
   b5656:	f842 4b04 	str.w	r4, [r2], #4
   b565a:	428b      	cmp	r3, r1
   b565c:	d1f9      	bne.n	b5652 <_ZN8particle7BleUuidC1Ev+0xe>
}
   b565e:	bd10      	pop	{r4, pc}
   b5660:	000b88ba 	.word	0x000b88ba

000b5664 <_ZNK8particle7BleUuid4typeEv>:
}
   b5664:	6900      	ldr	r0, [r0, #16]
   b5666:	4770      	bx	lr

000b5668 <_ZNK8particle7BleUuid7shortedEv>:
}
   b5668:	8980      	ldrh	r0, [r0, #12]
   b566a:	4770      	bx	lr

000b566c <_ZNK8particle7BleUuid8rawBytesEv>:
}
   b566c:	4770      	bx	lr
	...

000b5670 <_ZN8particle7BleUuid9constructEPKc>:
    type_ = BleUuidType::LONG;
   b5670:	2301      	movs	r3, #1
void BleUuid::construct(const char* uuid) {
   b5672:	e92d 41f3 	stmdb	sp!, {r0, r1, r4, r5, r6, r7, r8, lr}
    type_ = BleUuidType::LONG;
   b5676:	6103      	str	r3, [r0, #16]
    memcpy(uuid128_, BASE_UUID, BLE_SIG_UUID_128BIT_LEN);
   b5678:	4b34      	ldr	r3, [pc, #208]	; (b574c <_ZN8particle7BleUuid9constructEPKc+0xdc>)
void BleUuid::construct(const char* uuid) {
   b567a:	460c      	mov	r4, r1
   b567c:	4606      	mov	r6, r0
    memcpy(uuid128_, BASE_UUID, BLE_SIG_UUID_128BIT_LEN);
   b567e:	4602      	mov	r2, r0
   b5680:	f103 0110 	add.w	r1, r3, #16
   b5684:	f853 0b04 	ldr.w	r0, [r3], #4
   b5688:	f842 0b04 	str.w	r0, [r2], #4
   b568c:	428b      	cmp	r3, r1
   b568e:	d1f9      	bne.n	b5684 <_ZN8particle7BleUuid9constructEPKc+0x14>
    if (uuid == nullptr) {
   b5690:	b344      	cbz	r4, b56e4 <_ZN8particle7BleUuid9constructEPKc+0x74>
    if (strnlen(uuid, BLE_SIG_UUID_128BIT_LEN * 2 + 4) == (BLE_SIG_UUID_16BIT_LEN * 2)) {
   b5692:	2124      	movs	r1, #36	; 0x24
   b5694:	4620      	mov	r0, r4
   b5696:	f002 fffa 	bl	b868e <strnlen>
   b569a:	2804      	cmp	r0, #4
   b569c:	f04f 0500 	mov.w	r5, #0
   b56a0:	d123      	bne.n	b56ea <_ZN8particle7BleUuid9constructEPKc+0x7a>
        char buf[2] = {};
   b56a2:	f8ad 5004 	strh.w	r5, [sp, #4]
   b56a6:	af01      	add	r7, sp, #4
   b56a8:	1ca5      	adds	r5, r4, #2
   b56aa:	3406      	adds	r4, #6

inline size_t hexToBytes(const char* src, char* dest, size_t size) {
    size_t n = 0;
    while (n < size) {
        const int h = hexToNibble(*src++);
   b56ac:	f815 0c02 	ldrb.w	r0, [r5, #-2]
   b56b0:	f7ff ff6c 	bl	b558c <_ZN8particle11hexToNibbleEc>
        if (h < 0) {
   b56b4:	f1b0 0800 	subs.w	r8, r0, #0
   b56b8:	db12      	blt.n	b56e0 <_ZN8particle7BleUuid9constructEPKc+0x70>
            break;
        }
        const int l = hexToNibble(*src++);
   b56ba:	f815 0c01 	ldrb.w	r0, [r5, #-1]
   b56be:	f7ff ff65 	bl	b558c <_ZN8particle11hexToNibbleEc>
        if (l < 0) {
   b56c2:	2800      	cmp	r0, #0
   b56c4:	db0c      	blt.n	b56e0 <_ZN8particle7BleUuid9constructEPKc+0x70>
    while (n < size) {
   b56c6:	3502      	adds	r5, #2
            break;
        }
        *dest++ = ((unsigned)h << 4) | (unsigned)l;
   b56c8:	ea40 1008 	orr.w	r0, r0, r8, lsl #4
    while (n < size) {
   b56cc:	42a5      	cmp	r5, r4
        *dest++ = ((unsigned)h << 4) | (unsigned)l;
   b56ce:	f807 0b01 	strb.w	r0, [r7], #1
    while (n < size) {
   b56d2:	d1eb      	bne.n	b56ac <_ZN8particle7BleUuid9constructEPKc+0x3c>
            uuid128_[UUID16_LO] = buf[1];
   b56d4:	f89d 3005 	ldrb.w	r3, [sp, #5]
   b56d8:	7333      	strb	r3, [r6, #12]
            uuid128_[UUID16_HI] = buf[0];
   b56da:	f89d 3004 	ldrb.w	r3, [sp, #4]
   b56de:	7373      	strb	r3, [r6, #13]
        type_ = BleUuidType::SHORT;
   b56e0:	2300      	movs	r3, #0
   b56e2:	6133      	str	r3, [r6, #16]
}
   b56e4:	b002      	add	sp, #8
   b56e6:	e8bd 81f0 	ldmia.w	sp!, {r4, r5, r6, r7, r8, pc}
    size_t len = BLE_SIG_UUID_128BIT_LEN;
   b56ea:	f04f 0810 	mov.w	r8, #16
    for (size_t i = 0; i < strnlen(uuid, BLE_SIG_UUID_128BIT_LEN * 2 + 4) && len > 0; i++) {
   b56ee:	2124      	movs	r1, #36	; 0x24
   b56f0:	4620      	mov	r0, r4
   b56f2:	f002 ffcc 	bl	b868e <strnlen>
   b56f6:	42a8      	cmp	r0, r5
   b56f8:	d807      	bhi.n	b570a <_ZN8particle7BleUuid9constructEPKc+0x9a>
        uuid128_[len - 1] = 0x00;
   b56fa:	4642      	mov	r2, r8
   b56fc:	2100      	movs	r1, #0
   b56fe:	4630      	mov	r0, r6
}
   b5700:	b002      	add	sp, #8
   b5702:	e8bd 41f0 	ldmia.w	sp!, {r4, r5, r6, r7, r8, lr}
        uuid128_[len - 1] = 0x00;
   b5706:	f002 bf59 	b.w	b85bc <memset>
    for (size_t i = 0; i < strnlen(uuid, BLE_SIG_UUID_128BIT_LEN * 2 + 4) && len > 0; i++) {
   b570a:	f1b8 0f00 	cmp.w	r8, #0
   b570e:	d0e9      	beq.n	b56e4 <_ZN8particle7BleUuid9constructEPKc+0x74>
        int8_t hi = hexToNibble(uuid[i]);
   b5710:	5d60      	ldrb	r0, [r4, r5]
   b5712:	f7ff ff3b 	bl	b558c <_ZN8particle11hexToNibbleEc>
        if (hi >= 0) {
   b5716:	0603      	lsls	r3, r0, #24
   b5718:	d415      	bmi.n	b5746 <_ZN8particle7BleUuid9constructEPKc+0xd6>
            uuid128_[len - 1] = hi << 4;
   b571a:	0100      	lsls	r0, r0, #4
   b571c:	f108 38ff 	add.w	r8, r8, #4294967295
   b5720:	b2c7      	uxtb	r7, r0
   b5722:	f806 7008 	strb.w	r7, [r6, r8]
            if (++i < strnlen(uuid, BLE_SIG_UUID_128BIT_LEN * 2 + 4)) {
   b5726:	2124      	movs	r1, #36	; 0x24
   b5728:	4620      	mov	r0, r4
   b572a:	f002 ffb0 	bl	b868e <strnlen>
   b572e:	3501      	adds	r5, #1
   b5730:	42a8      	cmp	r0, r5
   b5732:	d908      	bls.n	b5746 <_ZN8particle7BleUuid9constructEPKc+0xd6>
                int8_t lo = hexToNibble(uuid[i]);
   b5734:	5d60      	ldrb	r0, [r4, r5]
   b5736:	f7ff ff29 	bl	b558c <_ZN8particle11hexToNibbleEc>
   b573a:	b240      	sxtb	r0, r0
                if (lo >= 0) {
   b573c:	2800      	cmp	r0, #0
                    uuid128_[len - 1] |= lo;
   b573e:	bfa4      	itt	ge
   b5740:	4338      	orrge	r0, r7
   b5742:	f806 0008 	strbge.w	r0, [r6, r8]
    for (size_t i = 0; i < strnlen(uuid, BLE_SIG_UUID_128BIT_LEN * 2 + 4) && len > 0; i++) {
   b5746:	3501      	adds	r5, #1
   b5748:	e7d1      	b.n	b56ee <_ZN8particle7BleUuid9constructEPKc+0x7e>
   b574a:	bf00      	nop
   b574c:	000b88ba 	.word	0x000b88ba

000b5750 <_ZN8particle7BleUuidC1EPKc>:
BleUuid::BleUuid(const char* uuid)
   b5750:	b513      	push	{r0, r1, r4, lr}
   b5752:	4604      	mov	r4, r0
   b5754:	9101      	str	r1, [sp, #4]
        : BleUuid() {
   b5756:	f7ff ff75 	bl	b5644 <_ZN8particle7BleUuidC1Ev>
    construct(uuid);
   b575a:	4620      	mov	r0, r4
   b575c:	9901      	ldr	r1, [sp, #4]
   b575e:	f7ff ff87 	bl	b5670 <_ZN8particle7BleUuid9constructEPKc>
}
   b5762:	4620      	mov	r0, r4
   b5764:	b002      	add	sp, #8
   b5766:	bd10      	pop	{r4, pc}

000b5768 <_ZN8particle18BleLocalDeviceImpl14findPeerDeviceEt>:

    void onAttMtuExchangedCallback(const BleOnAttMtuExchangedStdFunction& callback) {
        attMtuExchangedCallback_ = callback;
    }

    BlePeerDevice* findPeerDevice(BleConnectionHandle connHandle) {
   b5768:	b510      	push	{r4, lr}
    return data_;
}

template<typename T, typename AllocatorT>
T* spark::Vector<T, AllocatorT>::end() {
    return data_ + size_;
   b576a:	e9d0 3206 	ldrd	r3, r2, [r0, #24]
   b576e:	eb03 02c2 	add.w	r2, r3, r2, lsl #3
        for (auto& peer : peers_) {
   b5772:	4293      	cmp	r3, r2
   b5774:	4618      	mov	r0, r3
   b5776:	d006      	beq.n	b5786 <_ZN8particle18BleLocalDeviceImpl14findPeerDeviceEt+0x1e>
            if (peer.impl()->connHandle() == connHandle) {
   b5778:	6804      	ldr	r4, [r0, #0]
   b577a:	8824      	ldrh	r4, [r4, #0]
   b577c:	428c      	cmp	r4, r1
   b577e:	f103 0308 	add.w	r3, r3, #8
   b5782:	d1f6      	bne.n	b5772 <_ZN8particle18BleLocalDeviceImpl14findPeerDeviceEt+0xa>
                return &peer;
            }
        }
        return nullptr;
    }
   b5784:	bd10      	pop	{r4, pc}
        return nullptr;
   b5786:	2000      	movs	r0, #0
   b5788:	e7fc      	b.n	b5784 <_ZN8particle18BleLocalDeviceImpl14findPeerDeviceEt+0x1c>
	...

000b578c <_ZN8particle13BlePeerDeviceC1Ev>:


/*******************************************************
 * BlePeerDevice class
 */
BlePeerDevice::BlePeerDevice()
   b578c:	b570      	push	{r4, r5, r6, lr}

    protected:
      // This constructor is non-standard, it is used by allocate_shared.
      template<typename _Alloc, typename... _Args>
	__shared_ptr(_Sp_alloc_shared_tag<_Alloc> __tag, _Args&&... __args)
	: _M_ptr(), _M_refcount(_M_ptr, __tag, std::forward<_Args>(__args)...)
   b578e:	2500      	movs	r5, #0
   b5790:	6005      	str	r5, [r0, #0]
   b5792:	4606      	mov	r6, r0
	return static_cast<_Tp*>(::operator new(__n * sizeof(_Tp)));
   b5794:	2030      	movs	r0, #48	; 0x30
   b5796:	f7fe fc8e 	bl	b40b6 <_Znwj>
	  auto __pi = ::new (__mem)
   b579a:	4604      	mov	r4, r0
   b579c:	b188      	cbz	r0, b57c2 <_ZN8particle13BlePeerDeviceC1Ev+0x36>
      : _M_use_count(1), _M_weak_count(1) { }
   b579e:	2301      	movs	r3, #1
   b57a0:	e9c0 3301 	strd	r3, r3, [r0, #4]
	: _M_impl(__a)
   b57a4:	4b09      	ldr	r3, [pc, #36]	; (b57cc <_ZN8particle13BlePeerDeviceC1Ev+0x40>)
   b57a6:	6003      	str	r3, [r0, #0]
              servicesDiscovered_(false) {
   b57a8:	f64f 73ff 	movw	r3, #65535	; 0xffff
   b57ac:	8183      	strh	r3, [r0, #12]
   b57ae:	300e      	adds	r0, #14
   b57b0:	f7ff ff3d 	bl	b562e <_ZN8particle10BleAddressC1Ev>
        capacity_(0) {
   b57b4:	e9c4 5506 	strd	r5, r5, [r4, #24]
   b57b8:	e9c4 5508 	strd	r5, r5, [r4, #32]
   b57bc:	e9c4 550a 	strd	r5, r5, [r4, #40]	; 0x28
   b57c0:	75a5      	strb	r5, [r4, #22]
	  _M_pi = __pi;
   b57c2:	6074      	str	r4, [r6, #4]
   b57c4:	340c      	adds	r4, #12
	  __p = __pi->_M_ptr();
   b57c6:	6034      	str	r4, [r6, #0]
        : impl_(std::make_shared<BlePeerDeviceImpl>()) {
    if (!impl()) {
        SPARK_ASSERT(false);
    }
}
   b57c8:	4630      	mov	r0, r6
   b57ca:	bd70      	pop	{r4, r5, r6, pc}
   b57cc:	000b8b58 	.word	0x000b8b58

000b57d0 <_ZNK8particle13BlePeerDevice7addressEv>:
void BlePeerDevice::bind(const BleAddress& address) const {
    WiringBleLock lk;
    impl()->address() = address;
}

BleAddress BlePeerDevice::address() const {
   b57d0:	b537      	push	{r0, r1, r2, r4, r5, lr}
   b57d2:	460d      	mov	r5, r1
   b57d4:	4604      	mov	r4, r0
    WiringBleLock lk;
   b57d6:	a801      	add	r0, sp, #4
   b57d8:	f7ff feee 	bl	b55b8 <_ZN8particle3ble13WiringBleLockC1Ev>
      { return _M_ptr; }
   b57dc:	682a      	ldr	r2, [r5, #0]
    address_ = addr.address_;
   b57de:	f8d2 3002 	ldr.w	r3, [r2, #2]
   b57e2:	6023      	str	r3, [r4, #0]
   b57e4:	f8d2 3006 	ldr.w	r3, [r2, #6]
   b57e8:	6063      	str	r3, [r4, #4]
    WiringBleLock lk;
   b57ea:	a801      	add	r0, sp, #4
   b57ec:	f7ff fef2 	bl	b55d4 <_ZN8particle3ble13WiringBleLockD1Ev>
    return impl()->address();
}
   b57f0:	4620      	mov	r0, r4
   b57f2:	b003      	add	sp, #12
   b57f4:	bd30      	pop	{r4, r5, pc}

000b57f6 <_ZNK8particle13BlePeerDeviceeqERKS0_>:
bool BlePeerDevice::isValid() const {
    WiringBleLock lk;
    return impl()->connHandle() != BLE_INVALID_CONN_HANDLE;
}

bool BlePeerDevice::operator==(const BlePeerDevice& device) const {
   b57f6:	b530      	push	{r4, r5, lr}
   b57f8:	4605      	mov	r5, r0
   b57fa:	b087      	sub	sp, #28
   b57fc:	460c      	mov	r4, r1
    WiringBleLock lk;
   b57fe:	a801      	add	r0, sp, #4
   b5800:	f7ff feda 	bl	b55b8 <_ZN8particle3ble13WiringBleLockC1Ev>
    if (impl()->connHandle() == device.impl()->connHandle() && address() == device.address()) {
   b5804:	682a      	ldr	r2, [r5, #0]
   b5806:	6823      	ldr	r3, [r4, #0]
   b5808:	8812      	ldrh	r2, [r2, #0]
   b580a:	881b      	ldrh	r3, [r3, #0]
   b580c:	429a      	cmp	r2, r3
   b580e:	d10d      	bne.n	b582c <_ZNK8particle13BlePeerDeviceeqERKS0_+0x36>
   b5810:	4629      	mov	r1, r5
   b5812:	a802      	add	r0, sp, #8
   b5814:	f7ff ffdc 	bl	b57d0 <_ZNK8particle13BlePeerDevice7addressEv>
   b5818:	4621      	mov	r1, r4
   b581a:	a804      	add	r0, sp, #16
   b581c:	f7ff ffd8 	bl	b57d0 <_ZNK8particle13BlePeerDevice7addressEv>
   b5820:	a904      	add	r1, sp, #16
   b5822:	a802      	add	r0, sp, #8
   b5824:	f7ff feef 	bl	b5606 <_ZNK8particle10BleAddresseqERKS0_>
   b5828:	4604      	mov	r4, r0
   b582a:	b900      	cbnz	r0, b582e <_ZNK8particle13BlePeerDeviceeqERKS0_+0x38>
        return true;
    }
    return false;
   b582c:	2400      	movs	r4, #0
    WiringBleLock lk;
   b582e:	a801      	add	r0, sp, #4
   b5830:	f7ff fed0 	bl	b55d4 <_ZN8particle3ble13WiringBleLockD1Ev>
}
   b5834:	4620      	mov	r0, r4
   b5836:	b007      	add	sp, #28
   b5838:	bd30      	pop	{r4, r5, pc}
	...

000b583c <_ZN8particle14BleLocalDeviceC1Ev>:


/*******************************************************
 * BleLocalDevice class
 */
BleLocalDevice::BleLocalDevice()
   b583c:	b510      	push	{r4, lr}
   b583e:	4604      	mov	r4, r0

  /// std::make_unique for single objects
  template<typename _Tp, typename... _Args>
    inline typename _MakeUniq<_Tp>::__single_object
    make_unique(_Args&&... __args)
    { return unique_ptr<_Tp>(new _Tp(std::forward<_Args>(__args)...)); }
   b5840:	2064      	movs	r0, #100	; 0x64
   b5842:	f7fe fc38 	bl	b40b6 <_Znwj>
   b5846:	b168      	cbz	r0, b5864 <_ZN8particle14BleLocalDeviceC1Ev+0x28>
   b5848:	2300      	movs	r3, #0
   b584a:	e9c0 3300 	strd	r3, r3, [r0]
   b584e:	e9c0 3302 	strd	r3, r3, [r0, #8]
   b5852:	e9c0 3304 	strd	r3, r3, [r0, #16]
   b5856:	e9c0 3306 	strd	r3, r3, [r0, #24]
   b585a:	6203      	str	r3, [r0, #32]
    _Function_base() : _M_manager(nullptr) { }
   b585c:	62c3      	str	r3, [r0, #44]	; 0x2c
   b585e:	63c3      	str	r3, [r0, #60]	; 0x3c
   b5860:	64c3      	str	r3, [r0, #76]	; 0x4c
   b5862:	65c3      	str	r3, [r0, #92]	; 0x5c
      __uniq_ptr_impl(pointer __p) : _M_t() { _M_ptr() = __p; }
   b5864:	6020      	str	r0, [r4, #0]
        : impl_(std::make_unique<BleLocalDeviceImpl>()) {
    if (!impl()) {
   b5866:	b920      	cbnz	r0, b5872 <_ZN8particle14BleLocalDeviceC1Ev+0x36>
        SPARK_ASSERT(false);
   b5868:	4a0a      	ldr	r2, [pc, #40]	; (b5894 <_ZN8particle14BleLocalDeviceC1Ev+0x58>)
   b586a:	490b      	ldr	r1, [pc, #44]	; (b5898 <_ZN8particle14BleLocalDeviceC1Ev+0x5c>)
   b586c:	200a      	movs	r0, #10
   b586e:	f7ff fb09 	bl	b4e84 <panic_>
    }
    SPARK_ASSERT(hal_ble_stack_init(nullptr) == SYSTEM_ERROR_NONE);
   b5872:	2000      	movs	r0, #0
   b5874:	f7ff f93a 	bl	b4aec <hal_ble_stack_init>
   b5878:	b120      	cbz	r0, b5884 <_ZN8particle14BleLocalDeviceC1Ev+0x48>
   b587a:	4a06      	ldr	r2, [pc, #24]	; (b5894 <_ZN8particle14BleLocalDeviceC1Ev+0x58>)
   b587c:	4907      	ldr	r1, [pc, #28]	; (b589c <_ZN8particle14BleLocalDeviceC1Ev+0x60>)
   b587e:	200a      	movs	r0, #10
   b5880:	f7ff fb00 	bl	b4e84 <panic_>
    hal_ble_set_callback_on_periph_link_events(impl()->onBleLinkEvents, impl(), nullptr);
   b5884:	6821      	ldr	r1, [r4, #0]
   b5886:	4806      	ldr	r0, [pc, #24]	; (b58a0 <_ZN8particle14BleLocalDeviceC1Ev+0x64>)
   b5888:	2200      	movs	r2, #0
   b588a:	f7ff f969 	bl	b4b60 <hal_ble_set_callback_on_periph_link_events>
}
   b588e:	4620      	mov	r0, r4
   b5890:	bd10      	pop	{r4, pc}
   b5892:	bf00      	nop
   b5894:	000b4acd 	.word	0x000b4acd
   b5898:	000b8a90 	.word	0x000b8a90
   b589c:	000b8ace 	.word	0x000b8ace
   b58a0:	000b5dc1 	.word	0x000b5dc1

000b58a4 <_ZN8particle14BleLocalDevice11getInstanceEv>:

BleLocalDevice& BleLocalDevice::getInstance() {
   b58a4:	b510      	push	{r4, lr}
    static BleLocalDevice instance;
   b58a6:	4c0a      	ldr	r4, [pc, #40]	; (b58d0 <_ZN8particle14BleLocalDevice11getInstanceEv+0x2c>)
   b58a8:	7823      	ldrb	r3, [r4, #0]
   b58aa:	f3bf 8f5b 	dmb	ish
   b58ae:	07db      	lsls	r3, r3, #31
   b58b0:	d40c      	bmi.n	b58cc <_ZN8particle14BleLocalDevice11getInstanceEv+0x28>
   b58b2:	4620      	mov	r0, r4
   b58b4:	f7fe fc14 	bl	b40e0 <__cxa_guard_acquire>
   b58b8:	b140      	cbz	r0, b58cc <_ZN8particle14BleLocalDevice11getInstanceEv+0x28>
   b58ba:	4806      	ldr	r0, [pc, #24]	; (b58d4 <_ZN8particle14BleLocalDevice11getInstanceEv+0x30>)
   b58bc:	f7ff ffbe 	bl	b583c <_ZN8particle14BleLocalDeviceC1Ev>
   b58c0:	4620      	mov	r0, r4
   b58c2:	f7fe fc12 	bl	b40ea <__cxa_guard_release>
   b58c6:	4804      	ldr	r0, [pc, #16]	; (b58d8 <_ZN8particle14BleLocalDevice11getInstanceEv+0x34>)
   b58c8:	f002 fe32 	bl	b8530 <atexit>
    return instance;
}
   b58cc:	4801      	ldr	r0, [pc, #4]	; (b58d4 <_ZN8particle14BleLocalDevice11getInstanceEv+0x30>)
   b58ce:	bd10      	pop	{r4, pc}
   b58d0:	2003e6a0 	.word	0x2003e6a0
   b58d4:	2003e6a8 	.word	0x2003e6a8
   b58d8:	000b5ab1 	.word	0x000b5ab1

000b58dc <_ZNK8particle14BleLocalDevice2onEv>:
    stopAdvertising(); // BLE HAL will guard that device keeps broadcasting if device is in the Listening/Provisioning mode.
    stopScanning();
    return SYSTEM_ERROR_NONE;
}

int BleLocalDevice::on() const {
   b58dc:	b508      	push	{r3, lr}
    CHECK(hal_ble_stack_init(nullptr));
   b58de:	2000      	movs	r0, #0
   b58e0:	f7ff f904 	bl	b4aec <hal_ble_stack_init>
    return SYSTEM_ERROR_NONE;
}
   b58e4:	ea00 70e0 	and.w	r0, r0, r0, asr #31
   b58e8:	bd08      	pop	{r3, pc}

000b58ea <_ZNK8particle14BleLocalDevice22setAdvertisingIntervalEt>:

bool BleLocalDevice::getProvisioningStatus() const {
    return system_ble_prov_get_status(nullptr);
}

int BleLocalDevice::setAdvertisingInterval(uint16_t interval) const {
   b58ea:	b530      	push	{r4, r5, lr}
   b58ec:	b085      	sub	sp, #20
    hal_ble_adv_params_t advParams = {};
   b58ee:	2400      	movs	r4, #0
    advParams.size = sizeof(hal_ble_adv_params_t);
   b58f0:	230c      	movs	r3, #12
   b58f2:	f8ad 3006 	strh.w	r3, [sp, #6]
int BleLocalDevice::setAdvertisingInterval(uint16_t interval) const {
   b58f6:	460d      	mov	r5, r1
    advParams.version = BLE_API_VERSION;
   b58f8:	2303      	movs	r3, #3
    CHECK(hal_ble_gap_get_advertising_parameters(&advParams, nullptr));
   b58fa:	4621      	mov	r1, r4
   b58fc:	a801      	add	r0, sp, #4
    hal_ble_adv_params_t advParams = {};
   b58fe:	e9cd 4402 	strd	r4, r4, [sp, #8]
    advParams.version = BLE_API_VERSION;
   b5902:	f8ad 3004 	strh.w	r3, [sp, #4]
    CHECK(hal_ble_gap_get_advertising_parameters(&advParams, nullptr));
   b5906:	f7ff f901 	bl	b4b0c <hal_ble_gap_get_advertising_parameters>
   b590a:	2800      	cmp	r0, #0
   b590c:	db05      	blt.n	b591a <_ZNK8particle14BleLocalDevice22setAdvertisingIntervalEt+0x30>
    advParams.interval = interval;
    return hal_ble_gap_set_advertising_parameters(&advParams, nullptr);
   b590e:	4621      	mov	r1, r4
   b5910:	a801      	add	r0, sp, #4
    advParams.interval = interval;
   b5912:	f8ad 5008 	strh.w	r5, [sp, #8]
    return hal_ble_gap_set_advertising_parameters(&advParams, nullptr);
   b5916:	f7ff f8f1 	bl	b4afc <hal_ble_gap_set_advertising_parameters>
}
   b591a:	b005      	add	sp, #20
   b591c:	bd30      	pop	{r4, r5, pc}

000b591e <_ZNK8particle14BleLocalDevice18setAdvertisingDataEPNS_18BleAdvertisingDataE>:
int BleLocalDevice::getAdvertisingParameters(BleAdvertisingParams& params) const {
    return getAdvertisingParameters(&params);
}

int BleLocalDevice::setAdvertisingData(BleAdvertisingData* advertisingData) const {
    if (advertisingData == nullptr) {
   b591e:	b919      	cbnz	r1, b5928 <_ZNK8particle14BleLocalDevice18setAdvertisingDataEPNS_18BleAdvertisingDataE+0xa>
        return hal_ble_gap_set_advertising_data(nullptr, 0, nullptr);
   b5920:	460a      	mov	r2, r1
   b5922:	4608      	mov	r0, r1
    } else {
        return hal_ble_gap_set_advertising_data(advertisingData->data(), advertisingData->length(), nullptr);
   b5924:	f7ff b8fa 	b.w	b4b1c <hal_ble_gap_set_advertising_data>
   b5928:	e9d1 0100 	ldrd	r0, r1, [r1]
   b592c:	2200      	movs	r2, #0
   b592e:	e7f9      	b.n	b5924 <_ZNK8particle14BleLocalDevice18setAdvertisingDataEPNS_18BleAdvertisingDataE+0x6>

000b5930 <_ZN5spark6VectorI6StringNS_16DefaultAllocatorEED1Ev>:
inline spark::Vector<T, AllocatorT>::~Vector() {
   b5930:	b570      	push	{r4, r5, r6, lr}
    destruct(data_, data_ + size_);
   b5932:	e9d0 5300 	ldrd	r5, r3, [r0]
inline spark::Vector<T, AllocatorT>::~Vector() {
   b5936:	4604      	mov	r4, r0
    destruct(data_, data_ + size_);
   b5938:	eb05 1603 	add.w	r6, r5, r3, lsl #4
        for (; p != end; ++p) {
   b593c:	42ae      	cmp	r6, r5
   b593e:	d004      	beq.n	b594a <_ZN5spark6VectorI6StringNS_16DefaultAllocatorEED1Ev+0x1a>
            p->~T();
   b5940:	4628      	mov	r0, r5
   b5942:	f7ff fce9 	bl	b5318 <_ZN6StringD1Ev>
        for (; p != end; ++p) {
   b5946:	3510      	adds	r5, #16
   b5948:	e7f8      	b.n	b593c <_ZN5spark6VectorI6StringNS_16DefaultAllocatorEED1Ev+0xc>
    ::free(ptr);
   b594a:	6820      	ldr	r0, [r4, #0]
   b594c:	f7ff fb5e 	bl	b500c <free>
}
   b5950:	4620      	mov	r0, r4
   b5952:	bd70      	pop	{r4, r5, r6, pc}

000b5954 <_ZN5spark6VectorIhNS_16DefaultAllocatorEE8removeAtEii>:
inline void spark::Vector<T, AllocatorT>::removeAt(int i, int n) {
   b5954:	b538      	push	{r3, r4, r5, lr}
    if (n < 0 || i + n > size_) {
   b5956:	1e14      	subs	r4, r2, #0
   b5958:	6843      	ldr	r3, [r0, #4]
inline void spark::Vector<T, AllocatorT>::removeAt(int i, int n) {
   b595a:	4605      	mov	r5, r0
    if (n < 0 || i + n > size_) {
   b595c:	db02      	blt.n	b5964 <_ZN5spark6VectorIhNS_16DefaultAllocatorEE8removeAtEii+0x10>
   b595e:	1862      	adds	r2, r4, r1
   b5960:	429a      	cmp	r2, r3
   b5962:	dd00      	ble.n	b5966 <_ZN5spark6VectorIhNS_16DefaultAllocatorEE8removeAtEii+0x12>
        n = size_ - i;
   b5964:	1a5c      	subs	r4, r3, r1
    T* const p = data_ + i;
   b5966:	682a      	ldr	r2, [r5, #0]
   b5968:	1850      	adds	r0, r2, r1
    destruct(p, p + n);
   b596a:	1901      	adds	r1, r0, r4
    move(p, p + n, data_ + size_);
   b596c:	441a      	add	r2, r3
        ::memmove(dest, p, (end - p) * sizeof(T));
   b596e:	1a52      	subs	r2, r2, r1
   b5970:	f002 fe0a 	bl	b8588 <memmove>
    size_ -= n;
   b5974:	686a      	ldr	r2, [r5, #4]
   b5976:	1b12      	subs	r2, r2, r4
   b5978:	606a      	str	r2, [r5, #4]
}
   b597a:	bd38      	pop	{r3, r4, r5, pc}

000b597c <_ZN8particle18BleAdvertisingData6removeENS_22BleAdvertisingDataTypeE>:
void BleAdvertisingData::remove(BleAdvertisingDataType type) {
   b597c:	b537      	push	{r0, r1, r2, r4, r5, lr}
    if (offset == nullptr) {
   b597e:	460a      	mov	r2, r1
void BleAdvertisingData::remove(BleAdvertisingDataType type) {
   b5980:	4604      	mov	r4, r0
   b5982:	460d      	mov	r5, r1
   b5984:	ab01      	add	r3, sp, #4
   b5986:	e9d0 0100 	ldrd	r0, r1, [r0]
   b598a:	f7ff fda7 	bl	b54dc <_ZN8particle18BleAdvertisingData6locateEPKhjNS_22BleAdvertisingDataTypeEPj.part.0>
    if (len > 0) {
   b598e:	4602      	mov	r2, r0
   b5990:	b138      	cbz	r0, b59a2 <_ZN8particle18BleAdvertisingData6removeENS_22BleAdvertisingDataTypeE+0x26>
        selfData_.removeAt(offset, len);
   b5992:	9901      	ldr	r1, [sp, #4]
   b5994:	4620      	mov	r0, r4
   b5996:	f7ff ffdd 	bl	b5954 <_ZN5spark6VectorIhNS_16DefaultAllocatorEE8removeAtEii>
        remove(type);
   b599a:	4629      	mov	r1, r5
   b599c:	4620      	mov	r0, r4
   b599e:	f7ff ffed 	bl	b597c <_ZN8particle18BleAdvertisingData6removeENS_22BleAdvertisingDataTypeE>
}
   b59a2:	b003      	add	sp, #12
   b59a4:	bd30      	pop	{r4, r5, pc}

000b59a6 <_ZNK8particle14BleLocalDevice19setScanResponseDataEPNS_18BleAdvertisingDataE>:

int BleLocalDevice::setAdvertisingData(BleAdvertisingData& advertisingData) const {
    return setAdvertisingData(&advertisingData);
}

int BleLocalDevice::setScanResponseData(BleAdvertisingData* scanResponse) const {
   b59a6:	b510      	push	{r4, lr}
    if (scanResponse == nullptr) {
   b59a8:	460c      	mov	r4, r1
   b59aa:	b929      	cbnz	r1, b59b8 <_ZNK8particle14BleLocalDevice19setScanResponseDataEPNS_18BleAdvertisingDataE+0x12>
        return hal_ble_gap_set_scan_response_data(nullptr, 0, nullptr);
   b59ac:	460a      	mov	r2, r1
   b59ae:	4608      	mov	r0, r1
    } else {
        scanResponse->remove(BleAdvertisingDataType::FLAGS);
        return hal_ble_gap_set_scan_response_data(scanResponse->data(), scanResponse->length(), nullptr);
    }
}
   b59b0:	e8bd 4010 	ldmia.w	sp!, {r4, lr}
        return hal_ble_gap_set_scan_response_data(scanResponse->data(), scanResponse->length(), nullptr);
   b59b4:	f7ff b8ba 	b.w	b4b2c <hal_ble_gap_set_scan_response_data>
        scanResponse->remove(BleAdvertisingDataType::FLAGS);
   b59b8:	2101      	movs	r1, #1
   b59ba:	4620      	mov	r0, r4
   b59bc:	f7ff ffde 	bl	b597c <_ZN8particle18BleAdvertisingData6removeENS_22BleAdvertisingDataTypeE>
        return hal_ble_gap_set_scan_response_data(scanResponse->data(), scanResponse->length(), nullptr);
   b59c0:	e9d4 0100 	ldrd	r0, r1, [r4]
   b59c4:	2200      	movs	r2, #0
   b59c6:	e7f3      	b.n	b59b0 <_ZNK8particle14BleLocalDevice19setScanResponseDataEPNS_18BleAdvertisingDataE+0xa>

000b59c8 <_ZNK8particle14BleLocalDevice9advertiseEPNS_18BleAdvertisingDataES2_>:

int BleLocalDevice::advertise() const {
    return hal_ble_gap_start_advertising(nullptr);
}

int BleLocalDevice::advertise(BleAdvertisingData* advertisingData, BleAdvertisingData* scanResponse) const {
   b59c8:	b538      	push	{r3, r4, r5, lr}
   b59ca:	4604      	mov	r4, r0
   b59cc:	4615      	mov	r5, r2
    CHECK(setAdvertisingData(advertisingData));
   b59ce:	f7ff ffa6 	bl	b591e <_ZNK8particle14BleLocalDevice18setAdvertisingDataEPNS_18BleAdvertisingDataE>
   b59d2:	2800      	cmp	r0, #0
   b59d4:	db0a      	blt.n	b59ec <_ZNK8particle14BleLocalDevice9advertiseEPNS_18BleAdvertisingDataES2_+0x24>
    CHECK(setScanResponseData(scanResponse));
   b59d6:	4629      	mov	r1, r5
   b59d8:	4620      	mov	r0, r4
   b59da:	f7ff ffe4 	bl	b59a6 <_ZNK8particle14BleLocalDevice19setScanResponseDataEPNS_18BleAdvertisingDataE>
   b59de:	2800      	cmp	r0, #0
   b59e0:	db04      	blt.n	b59ec <_ZNK8particle14BleLocalDevice9advertiseEPNS_18BleAdvertisingDataES2_+0x24>
    return advertise();
}
   b59e2:	e8bd 4038 	ldmia.w	sp!, {r3, r4, r5, lr}
    return hal_ble_gap_start_advertising(nullptr);
   b59e6:	2000      	movs	r0, #0
   b59e8:	f7ff b8a8 	b.w	b4b3c <hal_ble_gap_start_advertising>
}
   b59ec:	bd38      	pop	{r3, r4, r5, pc}
	...

000b59f0 <_ZNSt8functionIFvRKN8particle13BlePeerDeviceEEEC1ISt5_BindIFPFvS3_PvESt12_PlaceholderILi1EES8_EEvvEET_>:
	}
    }

  template<typename _Res, typename... _ArgTypes>
    template<typename _Functor, typename, typename>
      function<_Res(_ArgTypes...)>::
   b59f0:	b538      	push	{r3, r4, r5, lr}
    _Function_base() : _M_manager(nullptr) { }
   b59f2:	2300      	movs	r3, #0
      function<_Res(_ArgTypes...)>::
   b59f4:	4604      	mov	r4, r0
    _Function_base() : _M_manager(nullptr) { }
   b59f6:	6083      	str	r3, [r0, #8]
	{ __functor._M_access<_Functor*>() = new _Functor(std::move(__f)); }
   b59f8:	2008      	movs	r0, #8
      function<_Res(_ArgTypes...)>::
   b59fa:	460d      	mov	r5, r1
	{ __functor._M_access<_Functor*>() = new _Functor(std::move(__f)); }
   b59fc:	f7fe fb5b 	bl	b40b6 <_Znwj>
   b5a00:	b118      	cbz	r0, b5a0a <_ZNSt8functionIFvRKN8particle13BlePeerDeviceEEEC1ISt5_BindIFPFvS3_PvESt12_PlaceholderILi1EES8_EEvvEET_+0x1a>
	_Bind(_Functor&& __f, _Args&&... __args)
	: _M_f(std::move(__f)), _M_bound_args(std::forward<_Args>(__args)...)
	{ }

      _Bind(const _Bind&) = default;
      _Bind(_Bind&&) = default;
   b5a02:	682b      	ldr	r3, [r5, #0]
   b5a04:	6003      	str	r3, [r0, #0]
      constexpr _Head_base(const _Head_base&) = default;
      constexpr _Head_base(_Head_base&&) = default;

      template<typename _UHead>
        constexpr _Head_base(_UHead&& __h)
	: _M_head_impl(std::forward<_UHead>(__h)) { }
   b5a06:	686b      	ldr	r3, [r5, #4]
   b5a08:	6043      	str	r3, [r0, #4]
	typedef _Function_handler<_Res(_ArgTypes...), _Functor> _My_handler;

	if (_My_handler::_M_not_empty_function(__f))
	  {
	    _My_handler::_M_init_functor(_M_functor, std::move(__f));
	    _M_invoker = &_My_handler::_M_invoke;
   b5a0a:	4b03      	ldr	r3, [pc, #12]	; (b5a18 <_ZNSt8functionIFvRKN8particle13BlePeerDeviceEEEC1ISt5_BindIFPFvS3_PvESt12_PlaceholderILi1EES8_EEvvEET_+0x28>)
   b5a0c:	60e3      	str	r3, [r4, #12]
	    _M_manager = &_My_handler::_M_manager;
   b5a0e:	4b03      	ldr	r3, [pc, #12]	; (b5a1c <_ZNSt8functionIFvRKN8particle13BlePeerDeviceEEEC1ISt5_BindIFPFvS3_PvESt12_PlaceholderILi1EES8_EEvvEET_+0x2c>)
	{ __functor._M_access<_Functor*>() = new _Functor(std::move(__f)); }
   b5a10:	6020      	str	r0, [r4, #0]
	    _M_manager = &_My_handler::_M_manager;
   b5a12:	60a3      	str	r3, [r4, #8]
	  }
      }
   b5a14:	4620      	mov	r0, r4
   b5a16:	bd38      	pop	{r3, r4, r5, pc}
   b5a18:	000b5507 	.word	0x000b5507
   b5a1c:	000b5513 	.word	0x000b5513

000b5a20 <_ZNSt14__shared_countILN9__gnu_cxx12_Lock_policyE0EEC1ERKS2_>:
      : _M_pi(__r._M_pi)
   b5a20:	680b      	ldr	r3, [r1, #0]
   b5a22:	6003      	str	r3, [r0, #0]
	if (_M_pi != 0)
   b5a24:	b113      	cbz	r3, b5a2c <_ZNSt14__shared_countILN9__gnu_cxx12_Lock_policyE0EEC1ERKS2_+0xc>
    { ++_M_use_count; }
   b5a26:	685a      	ldr	r2, [r3, #4]
   b5a28:	3201      	adds	r2, #1
   b5a2a:	605a      	str	r2, [r3, #4]
      }
   b5a2c:	4770      	bx	lr

000b5a2e <_ZNSt12__shared_ptrIN8particle17BlePeerDeviceImplELN9__gnu_cxx12_Lock_policyE0EEC1ERKS4_>:
      __shared_ptr(const __shared_ptr&) noexcept = default;
   b5a2e:	b510      	push	{r4, lr}
   b5a30:	f851 3b04 	ldr.w	r3, [r1], #4
   b5a34:	4604      	mov	r4, r0
   b5a36:	f840 3b04 	str.w	r3, [r0], #4
   b5a3a:	f7ff fff1 	bl	b5a20 <_ZNSt14__shared_countILN9__gnu_cxx12_Lock_policyE0EEC1ERKS2_>
   b5a3e:	4620      	mov	r0, r4
   b5a40:	bd10      	pop	{r4, pc}

000b5a42 <_ZNSt14__shared_countILN9__gnu_cxx12_Lock_policyE0EED1Ev>:
      ~__shared_count() noexcept
   b5a42:	b510      	push	{r4, lr}
   b5a44:	4604      	mov	r4, r0
	if (_M_pi != nullptr)
   b5a46:	6800      	ldr	r0, [r0, #0]
   b5a48:	b108      	cbz	r0, b5a4e <_ZNSt14__shared_countILN9__gnu_cxx12_Lock_policyE0EED1Ev+0xc>
	  _M_pi->_M_release();
   b5a4a:	f7ff fd8b 	bl	b5564 <_ZNSt16_Sp_counted_baseILN9__gnu_cxx12_Lock_policyE0EE10_M_releaseEv>
      }
   b5a4e:	4620      	mov	r0, r4
   b5a50:	bd10      	pop	{r4, pc}

000b5a52 <_ZN5spark6VectorIN8particle10BleServiceENS_16DefaultAllocatorEED1Ev>:
inline spark::Vector<T, AllocatorT>::~Vector() {
   b5a52:	b570      	push	{r4, r5, r6, lr}
    destruct(data_, data_ + size_);
   b5a54:	e9d0 5300 	ldrd	r5, r3, [r0]
inline spark::Vector<T, AllocatorT>::~Vector() {
   b5a58:	4604      	mov	r4, r0
    destruct(data_, data_ + size_);
   b5a5a:	eb05 06c3 	add.w	r6, r5, r3, lsl #3
        for (; p != end; ++p) {
   b5a5e:	42ae      	cmp	r6, r5
   b5a60:	d004      	beq.n	b5a6c <_ZN5spark6VectorIN8particle10BleServiceENS_16DefaultAllocatorEED1Ev+0x1a>
      ~__shared_ptr() = default;
   b5a62:	1d28      	adds	r0, r5, #4
   b5a64:	f7ff ffed 	bl	b5a42 <_ZNSt14__shared_countILN9__gnu_cxx12_Lock_policyE0EED1Ev>
   b5a68:	3508      	adds	r5, #8
   b5a6a:	e7f8      	b.n	b5a5e <_ZN5spark6VectorIN8particle10BleServiceENS_16DefaultAllocatorEED1Ev+0xc>
    ::free(ptr);
   b5a6c:	6820      	ldr	r0, [r4, #0]
   b5a6e:	f7ff facd 	bl	b500c <free>
}
   b5a72:	4620      	mov	r0, r4
   b5a74:	bd70      	pop	{r4, r5, r6, pc}

000b5a76 <_ZN5spark6VectorIN8particle17BleCharacteristicENS_16DefaultAllocatorEED1Ev>:
inline spark::Vector<T, AllocatorT>::~Vector() {
   b5a76:	b570      	push	{r4, r5, r6, lr}
    destruct(data_, data_ + size_);
   b5a78:	e9d0 5300 	ldrd	r5, r3, [r0]
inline spark::Vector<T, AllocatorT>::~Vector() {
   b5a7c:	4604      	mov	r4, r0
    destruct(data_, data_ + size_);
   b5a7e:	eb05 06c3 	add.w	r6, r5, r3, lsl #3
        for (; p != end; ++p) {
   b5a82:	42ae      	cmp	r6, r5
   b5a84:	d004      	beq.n	b5a90 <_ZN5spark6VectorIN8particle17BleCharacteristicENS_16DefaultAllocatorEED1Ev+0x1a>
   b5a86:	1d28      	adds	r0, r5, #4
   b5a88:	f7ff ffdb 	bl	b5a42 <_ZNSt14__shared_countILN9__gnu_cxx12_Lock_policyE0EED1Ev>
   b5a8c:	3508      	adds	r5, #8
   b5a8e:	e7f8      	b.n	b5a82 <_ZN5spark6VectorIN8particle17BleCharacteristicENS_16DefaultAllocatorEED1Ev+0xc>
    ::free(ptr);
   b5a90:	6820      	ldr	r0, [r4, #0]
   b5a92:	f7ff fabb 	bl	b500c <free>
}
   b5a96:	4620      	mov	r0, r4
   b5a98:	bd70      	pop	{r4, r5, r6, pc}

000b5a9a <_ZNSt23_Sp_counted_ptr_inplaceIN8particle17BlePeerDeviceImplESaIS1_ELN9__gnu_cxx12_Lock_policyE0EE10_M_disposeEv>:
      _M_dispose() noexcept
   b5a9a:	b510      	push	{r4, lr}
   b5a9c:	4604      	mov	r4, r0
    ~BlePeerDeviceImpl() = default;
   b5a9e:	3024      	adds	r0, #36	; 0x24
   b5aa0:	f7ff ffe9 	bl	b5a76 <_ZN5spark6VectorIN8particle17BleCharacteristicENS_16DefaultAllocatorEED1Ev>
   b5aa4:	f104 0018 	add.w	r0, r4, #24
   b5aa8:	f7ff ffd3 	bl	b5a52 <_ZN5spark6VectorIN8particle10BleServiceENS_16DefaultAllocatorEED1Ev>
      }
   b5aac:	bd10      	pop	{r4, pc}
	...

000b5ab0 <__tcf_0>:
    static BleLocalDevice instance;
   b5ab0:	b570      	push	{r4, r5, r6, lr}
	if (__ptr != nullptr)
   b5ab2:	4b17      	ldr	r3, [pc, #92]	; (b5b10 <__tcf_0+0x60>)
   b5ab4:	681c      	ldr	r4, [r3, #0]
   b5ab6:	b354      	cbz	r4, b5b0e <__tcf_0+0x5e>
    class function<_Res(_ArgTypes...)>
   b5ab8:	f104 0054 	add.w	r0, r4, #84	; 0x54
   b5abc:	f7ff fd49 	bl	b5552 <_ZNSt14_Function_baseD1Ev>
   b5ac0:	f104 0044 	add.w	r0, r4, #68	; 0x44
   b5ac4:	f7ff fd45 	bl	b5552 <_ZNSt14_Function_baseD1Ev>
   b5ac8:	f104 0034 	add.w	r0, r4, #52	; 0x34
   b5acc:	f7ff fd41 	bl	b5552 <_ZNSt14_Function_baseD1Ev>
   b5ad0:	f104 0024 	add.w	r0, r4, #36	; 0x24
   b5ad4:	f7ff fd3d 	bl	b5552 <_ZNSt14_Function_baseD1Ev>
    destruct(data_, data_ + size_);
   b5ad8:	e9d4 5306 	ldrd	r5, r3, [r4, #24]
   b5adc:	eb05 06c3 	add.w	r6, r5, r3, lsl #3
        for (; p != end; ++p) {
   b5ae0:	42ae      	cmp	r6, r5
   b5ae2:	d004      	beq.n	b5aee <__tcf_0+0x3e>
      ~__shared_ptr() = default;
   b5ae4:	1d28      	adds	r0, r5, #4
   b5ae6:	f7ff ffac 	bl	b5a42 <_ZNSt14__shared_countILN9__gnu_cxx12_Lock_policyE0EED1Ev>
   b5aea:	3508      	adds	r5, #8
   b5aec:	e7f8      	b.n	b5ae0 <__tcf_0+0x30>
    ::free(ptr);
   b5aee:	69a0      	ldr	r0, [r4, #24]
   b5af0:	f7ff fa8c 	bl	b500c <free>
    ~BleLocalDeviceImpl() = default;
   b5af4:	f104 000c 	add.w	r0, r4, #12
   b5af8:	f7ff ffbd 	bl	b5a76 <_ZN5spark6VectorIN8particle17BleCharacteristicENS_16DefaultAllocatorEED1Ev>
   b5afc:	4620      	mov	r0, r4
   b5afe:	f7ff ffa8 	bl	b5a52 <_ZN5spark6VectorIN8particle10BleServiceENS_16DefaultAllocatorEED1Ev>
	delete __ptr;
   b5b02:	4620      	mov	r0, r4
   b5b04:	2164      	movs	r1, #100	; 0x64
    static BleLocalDevice instance;
   b5b06:	e8bd 4070 	ldmia.w	sp!, {r4, r5, r6, lr}
   b5b0a:	f7fe bada 	b.w	b40c2 <_ZdlPvj>
   b5b0e:	bd70      	pop	{r4, r5, r6, pc}
   b5b10:	2003e6a8 	.word	0x2003e6a8

000b5b14 <_ZNKSt8functionIFvRKN8particle13BlePeerDeviceEEEclES3_>:
  template<typename _Res, typename... _ArgTypes>
    _Res
    function<_Res(_ArgTypes...)>::
    operator()(_ArgTypes... __args) const
    {
      if (_M_empty())
   b5b14:	6882      	ldr	r2, [r0, #8]
    function<_Res(_ArgTypes...)>::
   b5b16:	b510      	push	{r4, lr}
      if (_M_empty())
   b5b18:	b90a      	cbnz	r2, b5b1e <_ZNKSt8functionIFvRKN8particle13BlePeerDeviceEEEclES3_+0xa>
	__throw_bad_function_call();
   b5b1a:	f002 fbf3 	bl	b8304 <_ZSt25__throw_bad_function_callv>
      return _M_invoker(_M_functor, std::forward<_ArgTypes>(__args)...);
    }
   b5b1e:	e8bd 4010 	ldmia.w	sp!, {r4, lr}
      return _M_invoker(_M_functor, std::forward<_ArgTypes>(__args)...);
   b5b22:	68c3      	ldr	r3, [r0, #12]
   b5b24:	4718      	bx	r3

000b5b26 <_ZN5spark6VectorIhNS_16DefaultAllocatorEE7reallocIhLi0EEEbi>:
    bool realloc(int n) {
   b5b26:	b538      	push	{r3, r4, r5, lr}
        if (n > 0) {
   b5b28:	1e0d      	subs	r5, r1, #0
    bool realloc(int n) {
   b5b2a:	4604      	mov	r4, r0
            d = (T*)AllocatorT::realloc(data_, n * sizeof(T));
   b5b2c:	6800      	ldr	r0, [r0, #0]
        if (n > 0) {
   b5b2e:	dd03      	ble.n	b5b38 <_ZN5spark6VectorIhNS_16DefaultAllocatorEE7reallocIhLi0EEEbi+0x12>
    return ::realloc(ptr, size);
   b5b30:	f7ff fa74 	bl	b501c <realloc>
            if (!d) {
   b5b34:	b918      	cbnz	r0, b5b3e <_ZN5spark6VectorIhNS_16DefaultAllocatorEE7reallocIhLi0EEEbi+0x18>
    }
   b5b36:	bd38      	pop	{r3, r4, r5, pc}
    ::free(ptr);
   b5b38:	f7ff fa68 	bl	b500c <free>
        T* d = nullptr;
   b5b3c:	2000      	movs	r0, #0
        data_ = d;
   b5b3e:	6020      	str	r0, [r4, #0]
        capacity_ = n;
   b5b40:	60a5      	str	r5, [r4, #8]
        return true;
   b5b42:	2001      	movs	r0, #1
   b5b44:	e7f7      	b.n	b5b36 <_ZN5spark6VectorIhNS_16DefaultAllocatorEE7reallocIhLi0EEEbi+0x10>

000b5b46 <_ZN5spark6VectorIhNS_16DefaultAllocatorEE7reserveEi>:
inline bool spark::Vector<T, AllocatorT>::reserve(int n) {
   b5b46:	b508      	push	{r3, lr}
    if (n > capacity_ && !realloc(n)) {
   b5b48:	6883      	ldr	r3, [r0, #8]
   b5b4a:	428b      	cmp	r3, r1
   b5b4c:	da02      	bge.n	b5b54 <_ZN5spark6VectorIhNS_16DefaultAllocatorEE7reserveEi+0xe>
   b5b4e:	f7ff ffea 	bl	b5b26 <_ZN5spark6VectorIhNS_16DefaultAllocatorEE7reallocIhLi0EEEbi>
}
   b5b52:	bd08      	pop	{r3, pc}
    return true;
   b5b54:	2001      	movs	r0, #1
   b5b56:	e7fc      	b.n	b5b52 <_ZN5spark6VectorIhNS_16DefaultAllocatorEE7reserveEi+0xc>

000b5b58 <_ZN5spark6VectorIhNS_16DefaultAllocatorEE6insertEiPKhi>:
inline bool spark::Vector<T, AllocatorT>::insert(int i, const T* values, int n) {
   b5b58:	e92d 41f0 	stmdb	sp!, {r4, r5, r6, r7, r8, lr}
   b5b5c:	460f      	mov	r7, r1
    if (size_ + n > capacity_ && !realloc(size_ + n)) {
   b5b5e:	6841      	ldr	r1, [r0, #4]
inline bool spark::Vector<T, AllocatorT>::insert(int i, const T* values, int n) {
   b5b60:	461d      	mov	r5, r3
    if (size_ + n > capacity_ && !realloc(size_ + n)) {
   b5b62:	4419      	add	r1, r3
   b5b64:	6883      	ldr	r3, [r0, #8]
   b5b66:	4299      	cmp	r1, r3
inline bool spark::Vector<T, AllocatorT>::insert(int i, const T* values, int n) {
   b5b68:	4604      	mov	r4, r0
   b5b6a:	4690      	mov	r8, r2
    if (size_ + n > capacity_ && !realloc(size_ + n)) {
   b5b6c:	dc12      	bgt.n	b5b94 <_ZN5spark6VectorIhNS_16DefaultAllocatorEE6insertEiPKhi+0x3c>
    T* const p = data_ + i;
   b5b6e:	6826      	ldr	r6, [r4, #0]
        ::memmove(dest, p, (end - p) * sizeof(T));
   b5b70:	6862      	ldr	r2, [r4, #4]
    T* const p = data_ + i;
   b5b72:	443e      	add	r6, r7
        ::memmove(dest, p, (end - p) * sizeof(T));
   b5b74:	1bd2      	subs	r2, r2, r7
   b5b76:	4631      	mov	r1, r6
   b5b78:	1970      	adds	r0, r6, r5
   b5b7a:	f002 fd05 	bl	b8588 <memmove>
        ::memcpy(dest, p, (end - p) * sizeof(T));
   b5b7e:	462a      	mov	r2, r5
   b5b80:	4641      	mov	r1, r8
   b5b82:	4630      	mov	r0, r6
   b5b84:	f002 fcf2 	bl	b856c <memcpy>
    size_ += n;
   b5b88:	6863      	ldr	r3, [r4, #4]
   b5b8a:	442b      	add	r3, r5
   b5b8c:	6063      	str	r3, [r4, #4]
    return true;
   b5b8e:	2001      	movs	r0, #1
}
   b5b90:	e8bd 81f0 	ldmia.w	sp!, {r4, r5, r6, r7, r8, pc}
    if (size_ + n > capacity_ && !realloc(size_ + n)) {
   b5b94:	f7ff ffc7 	bl	b5b26 <_ZN5spark6VectorIhNS_16DefaultAllocatorEE7reallocIhLi0EEEbi>
   b5b98:	2800      	cmp	r0, #0
   b5b9a:	d1e8      	bne.n	b5b6e <_ZN5spark6VectorIhNS_16DefaultAllocatorEE6insertEiPKhi+0x16>
   b5b9c:	e7f8      	b.n	b5b90 <_ZN5spark6VectorIhNS_16DefaultAllocatorEE6insertEiPKhi+0x38>

000b5b9e <_ZN5spark6VectorIhNS_16DefaultAllocatorEE6insertEih.isra.0>:
inline bool spark::Vector<T, AllocatorT>::insert(int i, T value) {
   b5b9e:	b5f8      	push	{r3, r4, r5, r6, r7, lr}
   b5ba0:	460d      	mov	r5, r1
    if (size_ + 1 > capacity_ && !realloc(size_ + 1)) {
   b5ba2:	e9d0 1301 	ldrd	r1, r3, [r0, #4]
   b5ba6:	4299      	cmp	r1, r3
inline bool spark::Vector<T, AllocatorT>::insert(int i, T value) {
   b5ba8:	4604      	mov	r4, r0
   b5baa:	4616      	mov	r6, r2
    if (size_ + 1 > capacity_ && !realloc(size_ + 1)) {
   b5bac:	da0b      	bge.n	b5bc6 <_ZN5spark6VectorIhNS_16DefaultAllocatorEE6insertEih.isra.0+0x28>
    T* const p = data_ + i;
   b5bae:	6827      	ldr	r7, [r4, #0]
        ::memmove(dest, p, (end - p) * sizeof(T));
   b5bb0:	6862      	ldr	r2, [r4, #4]
    T* const p = data_ + i;
   b5bb2:	1979      	adds	r1, r7, r5
        ::memmove(dest, p, (end - p) * sizeof(T));
   b5bb4:	1b52      	subs	r2, r2, r5
   b5bb6:	1c48      	adds	r0, r1, #1
   b5bb8:	f002 fce6 	bl	b8588 <memmove>
    new(p) T(std::move(value));
   b5bbc:	557e      	strb	r6, [r7, r5]
    ++size_;
   b5bbe:	6863      	ldr	r3, [r4, #4]
   b5bc0:	3301      	adds	r3, #1
   b5bc2:	6063      	str	r3, [r4, #4]
}
   b5bc4:	bdf8      	pop	{r3, r4, r5, r6, r7, pc}
    if (size_ + 1 > capacity_ && !realloc(size_ + 1)) {
   b5bc6:	3101      	adds	r1, #1
   b5bc8:	f7ff ffad 	bl	b5b26 <_ZN5spark6VectorIhNS_16DefaultAllocatorEE7reallocIhLi0EEEbi>
   b5bcc:	2800      	cmp	r0, #0
   b5bce:	d1ee      	bne.n	b5bae <_ZN5spark6VectorIhNS_16DefaultAllocatorEE6insertEih.isra.0+0x10>
   b5bd0:	e7f8      	b.n	b5bc4 <_ZN5spark6VectorIhNS_16DefaultAllocatorEE6insertEih.isra.0+0x26>

000b5bd2 <_ZN5spark6VectorIhNS_16DefaultAllocatorEE6appendEh.isra.0>:
inline bool spark::Vector<T, AllocatorT>::append(T value) {
   b5bd2:	460a      	mov	r2, r1
    return insert(size_, std::move(value));
   b5bd4:	6841      	ldr	r1, [r0, #4]
   b5bd6:	f7ff bfe2 	b.w	b5b9e <_ZN5spark6VectorIhNS_16DefaultAllocatorEE6insertEih.isra.0>

000b5bda <_ZN8particle18BleAdvertisingData6appendENS_22BleAdvertisingDataTypeEPKhjb.part.0>:
size_t BleAdvertisingData::append(BleAdvertisingDataType type, const uint8_t* buf, size_t len, bool force) {
   b5bda:	e92d 43f7 	stmdb	sp!, {r0, r1, r2, r4, r5, r6, r7, r8, r9, lr}
   b5bde:	4604      	mov	r4, r0
   b5be0:	461d      	mov	r5, r3
   b5be2:	460f      	mov	r7, r1
   b5be4:	ab01      	add	r3, sp, #4
   b5be6:	4690      	mov	r8, r2
   b5be8:	460a      	mov	r2, r1
   b5bea:	e9d0 0100 	ldrd	r0, r1, [r0]
   b5bee:	f89d 9028 	ldrb.w	r9, [sp, #40]	; 0x28
   b5bf2:	f7ff fc73 	bl	b54dc <_ZN8particle18BleAdvertisingData6locateEPKhjNS_22BleAdvertisingDataTypeEPj.part.0>
   b5bf6:	1cae      	adds	r6, r5, #2
   b5bf8:	6863      	ldr	r3, [r4, #4]
   b5bfa:	4602      	mov	r2, r0
    if (!force && adsLen > 0) {
   b5bfc:	f1b9 0f00 	cmp.w	r9, #0
   b5c00:	d126      	bne.n	b5c50 <_ZN8particle18BleAdvertisingData6appendENS_22BleAdvertisingDataTypeEPKhjb.part.0+0x76>
   b5c02:	b328      	cbz	r0, b5c50 <_ZN8particle18BleAdvertisingData6appendENS_22BleAdvertisingDataTypeEPKhjb.part.0+0x76>
        if ((selfData_.size() - adsLen + len + 2) <= BLE_MAX_ADV_DATA_LEN_EXT) {
   b5c04:	4433      	add	r3, r6
   b5c06:	1a1b      	subs	r3, r3, r0
   b5c08:	2bff      	cmp	r3, #255	; 0xff
   b5c0a:	d809      	bhi.n	b5c20 <_ZN8particle18BleAdvertisingData6appendENS_22BleAdvertisingDataTypeEPKhjb.part.0+0x46>
            selfData_.removeAt(offset, adsLen);
   b5c0c:	9901      	ldr	r1, [sp, #4]
   b5c0e:	4620      	mov	r0, r4
   b5c10:	f7ff fea0 	bl	b5954 <_ZN5spark6VectorIhNS_16DefaultAllocatorEE8removeAtEii>
            CHECK_TRUE(selfData_.reserve(selfData_.size() + len + 2), selfData_.size());
   b5c14:	6861      	ldr	r1, [r4, #4]
   b5c16:	4620      	mov	r0, r4
   b5c18:	4431      	add	r1, r6
   b5c1a:	f7ff ff94 	bl	b5b46 <_ZN5spark6VectorIhNS_16DefaultAllocatorEE7reserveEi>
   b5c1e:	b918      	cbnz	r0, b5c28 <_ZN8particle18BleAdvertisingData6appendENS_22BleAdvertisingDataTypeEPKhjb.part.0+0x4e>
    return selfData_.size();
   b5c20:	6860      	ldr	r0, [r4, #4]
}
   b5c22:	b003      	add	sp, #12
   b5c24:	e8bd 83f0 	ldmia.w	sp!, {r4, r5, r6, r7, r8, r9, pc}
            selfData_.insert(offset, len + 1);
   b5c28:	1c6a      	adds	r2, r5, #1
   b5c2a:	9901      	ldr	r1, [sp, #4]
   b5c2c:	b2d2      	uxtb	r2, r2
   b5c2e:	4620      	mov	r0, r4
   b5c30:	f7ff ffb5 	bl	b5b9e <_ZN5spark6VectorIhNS_16DefaultAllocatorEE6insertEih.isra.0>
            selfData_.insert(offset + 1, static_cast<uint8_t>(type));
   b5c34:	9901      	ldr	r1, [sp, #4]
   b5c36:	463a      	mov	r2, r7
   b5c38:	3101      	adds	r1, #1
   b5c3a:	4620      	mov	r0, r4
   b5c3c:	f7ff ffaf 	bl	b5b9e <_ZN5spark6VectorIhNS_16DefaultAllocatorEE6insertEih.isra.0>
            selfData_.insert(offset + 2, buf, len);
   b5c40:	9901      	ldr	r1, [sp, #4]
   b5c42:	462b      	mov	r3, r5
   b5c44:	4642      	mov	r2, r8
   b5c46:	3102      	adds	r1, #2
    return insert(size_, values, n);
   b5c48:	4620      	mov	r0, r4
   b5c4a:	f7ff ff85 	bl	b5b58 <_ZN5spark6VectorIhNS_16DefaultAllocatorEE6insertEiPKhi>
   b5c4e:	e7e7      	b.n	b5c20 <_ZN8particle18BleAdvertisingData6appendENS_22BleAdvertisingDataTypeEPKhjb.part.0+0x46>
    else if ((selfData_.size() + len + 2) <= BLE_MAX_ADV_DATA_LEN_EXT) {
   b5c50:	18f1      	adds	r1, r6, r3
   b5c52:	29ff      	cmp	r1, #255	; 0xff
   b5c54:	d8e4      	bhi.n	b5c20 <_ZN8particle18BleAdvertisingData6appendENS_22BleAdvertisingDataTypeEPKhjb.part.0+0x46>
        CHECK_TRUE(selfData_.reserve(selfData_.size() + len + 2), selfData_.size());
   b5c56:	4620      	mov	r0, r4
   b5c58:	f7ff ff75 	bl	b5b46 <_ZN5spark6VectorIhNS_16DefaultAllocatorEE7reserveEi>
   b5c5c:	2800      	cmp	r0, #0
   b5c5e:	d0df      	beq.n	b5c20 <_ZN8particle18BleAdvertisingData6appendENS_22BleAdvertisingDataTypeEPKhjb.part.0+0x46>
        selfData_.append(len + 1);
   b5c60:	1c69      	adds	r1, r5, #1
   b5c62:	b2c9      	uxtb	r1, r1
   b5c64:	4620      	mov	r0, r4
   b5c66:	f7ff ffb4 	bl	b5bd2 <_ZN5spark6VectorIhNS_16DefaultAllocatorEE6appendEh.isra.0>
        selfData_.append(static_cast<uint8_t>(type));
   b5c6a:	4639      	mov	r1, r7
   b5c6c:	4620      	mov	r0, r4
   b5c6e:	f7ff ffb0 	bl	b5bd2 <_ZN5spark6VectorIhNS_16DefaultAllocatorEE6appendEh.isra.0>
   b5c72:	6861      	ldr	r1, [r4, #4]
   b5c74:	462b      	mov	r3, r5
   b5c76:	4642      	mov	r2, r8
   b5c78:	e7e6      	b.n	b5c48 <_ZN8particle18BleAdvertisingData6appendENS_22BleAdvertisingDataTypeEPKhjb.part.0+0x6e>

000b5c7a <_ZN8particle18BleAdvertisingData6appendENS_22BleAdvertisingDataTypeEPKhjb>:
size_t BleAdvertisingData::append(BleAdvertisingDataType type, const uint8_t* buf, size_t len, bool force) {
   b5c7a:	b430      	push	{r4, r5}
   b5c7c:	f89d 5008 	ldrb.w	r5, [sp, #8]
    if (buf == nullptr) {
   b5c80:	b11a      	cbz	r2, b5c8a <_ZN8particle18BleAdvertisingData6appendENS_22BleAdvertisingDataTypeEPKhjb+0x10>
   b5c82:	9502      	str	r5, [sp, #8]
}
   b5c84:	bc30      	pop	{r4, r5}
   b5c86:	f7ff bfa8 	b.w	b5bda <_ZN8particle18BleAdvertisingData6appendENS_22BleAdvertisingDataTypeEPKhjb.part.0>
        return selfData_.size();
   b5c8a:	6840      	ldr	r0, [r0, #4]
}
   b5c8c:	bc30      	pop	{r4, r5}
   b5c8e:	4770      	bx	lr

000b5c90 <_ZN8particle18BleAdvertisingDataC1Ev>:
BleAdvertisingData::BleAdvertisingData()
   b5c90:	b51f      	push	{r0, r1, r2, r3, r4, lr}
        capacity_(0) {
   b5c92:	2300      	movs	r3, #0
   b5c94:	e9c0 3300 	strd	r3, r3, [r0]
   b5c98:	6083      	str	r3, [r0, #8]
    uint8_t flag = BLE_SIG_ADV_FLAGS_LE_ONLY_GENERAL_DISC_MODE;
   b5c9a:	2206      	movs	r2, #6
    append(BleAdvertisingDataType::FLAGS, &flag, sizeof(uint8_t));
   b5c9c:	9300      	str	r3, [sp, #0]
   b5c9e:	2301      	movs	r3, #1
    uint8_t flag = BLE_SIG_ADV_FLAGS_LE_ONLY_GENERAL_DISC_MODE;
   b5ca0:	f88d 200f 	strb.w	r2, [sp, #15]
    append(BleAdvertisingDataType::FLAGS, &flag, sizeof(uint8_t));
   b5ca4:	4619      	mov	r1, r3
   b5ca6:	f10d 020f 	add.w	r2, sp, #15
BleAdvertisingData::BleAdvertisingData()
   b5caa:	4604      	mov	r4, r0
    append(BleAdvertisingDataType::FLAGS, &flag, sizeof(uint8_t));
   b5cac:	f7ff ffe5 	bl	b5c7a <_ZN8particle18BleAdvertisingData6appendENS_22BleAdvertisingDataTypeEPKhjb>
}
   b5cb0:	4620      	mov	r0, r4
   b5cb2:	b004      	add	sp, #16
   b5cb4:	bd10      	pop	{r4, pc}

000b5cb6 <_ZN5spark6VectorIN8particle13BlePeerDeviceENS_16DefaultAllocatorEE4moveIS2_Li0EEEvPS2_S6_S6_>:
        if (dest > p && dest < end) {
   b5cb6:	4288      	cmp	r0, r1
    static void move(T* dest, T* p, T* end) {
   b5cb8:	b5f8      	push	{r3, r4, r5, r6, r7, lr}
   b5cba:	4604      	mov	r4, r0
   b5cbc:	460d      	mov	r5, r1
   b5cbe:	4616      	mov	r6, r2
        if (dest > p && dest < end) {
   b5cc0:	d914      	bls.n	b5cec <_ZN5spark6VectorIN8particle13BlePeerDeviceENS_16DefaultAllocatorEE4moveIS2_Li0EEEvPS2_S6_S6_+0x36>
   b5cc2:	4290      	cmp	r0, r2
   b5cc4:	d213      	bcs.n	b5cee <_ZN5spark6VectorIN8particle13BlePeerDeviceENS_16DefaultAllocatorEE4moveIS2_Li0EEEvPS2_S6_S6_+0x38>
            --end;
   b5cc6:	f1a2 0608 	sub.w	r6, r2, #8
            dest += end - p - 1;
   b5cca:	1a75      	subs	r5, r6, r1
   b5ccc:	f1a1 0708 	sub.w	r7, r1, #8
   b5cd0:	442c      	add	r4, r5
            for (; end != p; --end, --dest) {
   b5cd2:	42b7      	cmp	r7, r6
   b5cd4:	d018      	beq.n	b5d08 <_ZN5spark6VectorIN8particle13BlePeerDeviceENS_16DefaultAllocatorEE4moveIS2_Li0EEEvPS2_S6_S6_+0x52>
                new(dest) T(std::move(*end));
   b5cd6:	b11c      	cbz	r4, b5ce0 <_ZN5spark6VectorIN8particle13BlePeerDeviceENS_16DefaultAllocatorEE4moveIS2_Li0EEEvPS2_S6_S6_+0x2a>
       *  @brief  Construct an empty %shared_ptr.
       *  @post   use_count()==0 && get()==0
       */
      constexpr shared_ptr() noexcept : __shared_ptr<_Tp>() { }

      shared_ptr(const shared_ptr&) noexcept = default; ///< Copy constructor
   b5cd8:	4631      	mov	r1, r6
   b5cda:	4620      	mov	r0, r4
   b5cdc:	f7ff fea7 	bl	b5a2e <_ZNSt12__shared_ptrIN8particle17BlePeerDeviceImplELN9__gnu_cxx12_Lock_policyE0EEC1ERKS4_>
   b5ce0:	1d30      	adds	r0, r6, #4
   b5ce2:	f7ff feae 	bl	b5a42 <_ZNSt14__shared_countILN9__gnu_cxx12_Lock_policyE0EED1Ev>
            for (; end != p; --end, --dest) {
   b5ce6:	3e08      	subs	r6, #8
   b5ce8:	3c08      	subs	r4, #8
   b5cea:	e7f2      	b.n	b5cd2 <_ZN5spark6VectorIN8particle13BlePeerDeviceENS_16DefaultAllocatorEE4moveIS2_Li0EEEvPS2_S6_S6_+0x1c>
        } else if (dest != p) {
   b5cec:	d00c      	beq.n	b5d08 <_ZN5spark6VectorIN8particle13BlePeerDeviceENS_16DefaultAllocatorEE4moveIS2_Li0EEEvPS2_S6_S6_+0x52>
            for (; p != end; ++p, ++dest) {
   b5cee:	42b5      	cmp	r5, r6
   b5cf0:	d00a      	beq.n	b5d08 <_ZN5spark6VectorIN8particle13BlePeerDeviceENS_16DefaultAllocatorEE4moveIS2_Li0EEEvPS2_S6_S6_+0x52>
                new(dest) T(std::move(*p));
   b5cf2:	b11c      	cbz	r4, b5cfc <_ZN5spark6VectorIN8particle13BlePeerDeviceENS_16DefaultAllocatorEE4moveIS2_Li0EEEvPS2_S6_S6_+0x46>
   b5cf4:	4629      	mov	r1, r5
   b5cf6:	4620      	mov	r0, r4
   b5cf8:	f7ff fe99 	bl	b5a2e <_ZNSt12__shared_ptrIN8particle17BlePeerDeviceImplELN9__gnu_cxx12_Lock_policyE0EEC1ERKS4_>
   b5cfc:	1d28      	adds	r0, r5, #4
   b5cfe:	f7ff fea0 	bl	b5a42 <_ZNSt14__shared_countILN9__gnu_cxx12_Lock_policyE0EED1Ev>
            for (; p != end; ++p, ++dest) {
   b5d02:	3508      	adds	r5, #8
   b5d04:	3408      	adds	r4, #8
   b5d06:	e7f2      	b.n	b5cee <_ZN5spark6VectorIN8particle13BlePeerDeviceENS_16DefaultAllocatorEE4moveIS2_Li0EEEvPS2_S6_S6_+0x38>
    }
   b5d08:	bdf8      	pop	{r3, r4, r5, r6, r7, pc}

000b5d0a <_ZN5spark6VectorIN8particle13BlePeerDeviceENS_16DefaultAllocatorEE6appendES2_>:
inline bool spark::Vector<T, AllocatorT>::append(T value) {
   b5d0a:	b5f7      	push	{r0, r1, r2, r4, r5, r6, r7, lr}
   b5d0c:	4604      	mov	r4, r0
    return insert(size_, std::move(value));
   b5d0e:	6846      	ldr	r6, [r0, #4]
   b5d10:	4668      	mov	r0, sp
   b5d12:	f7ff fe8c 	bl	b5a2e <_ZNSt12__shared_ptrIN8particle17BlePeerDeviceImplELN9__gnu_cxx12_Lock_policyE0EEC1ERKS4_>
    if (size_ + 1 > capacity_ && !realloc(size_ + 1)) {
   b5d16:	e9d4 7301 	ldrd	r7, r3, [r4, #4]
   b5d1a:	429f      	cmp	r7, r3
   b5d1c:	db12      	blt.n	b5d44 <_ZN5spark6VectorIN8particle13BlePeerDeviceENS_16DefaultAllocatorEE6appendES2_+0x3a>
   b5d1e:	3701      	adds	r7, #1
        if (n > 0) {
   b5d20:	2f00      	cmp	r7, #0
   b5d22:	dd29      	ble.n	b5d78 <_ZN5spark6VectorIN8particle13BlePeerDeviceENS_16DefaultAllocatorEE6appendES2_+0x6e>
    return ::malloc(size);
   b5d24:	00f8      	lsls	r0, r7, #3
   b5d26:	f7ff f969 	bl	b4ffc <malloc>
            if (!d) {
   b5d2a:	4605      	mov	r5, r0
   b5d2c:	b1f0      	cbz	r0, b5d6c <_ZN5spark6VectorIN8particle13BlePeerDeviceENS_16DefaultAllocatorEE6appendES2_+0x62>
            move(d, data_, data_ + size_);
   b5d2e:	e9d4 1200 	ldrd	r1, r2, [r4]
   b5d32:	eb01 02c2 	add.w	r2, r1, r2, lsl #3
   b5d36:	f7ff ffbe 	bl	b5cb6 <_ZN5spark6VectorIN8particle13BlePeerDeviceENS_16DefaultAllocatorEE4moveIS2_Li0EEEvPS2_S6_S6_>
    ::free(ptr);
   b5d3a:	6820      	ldr	r0, [r4, #0]
   b5d3c:	f7ff f966 	bl	b500c <free>
        data_ = d;
   b5d40:	6025      	str	r5, [r4, #0]
        capacity_ = n;
   b5d42:	60a7      	str	r7, [r4, #8]
    T* const p = data_ + i;
   b5d44:	6823      	ldr	r3, [r4, #0]
    move(p + 1, p, data_ + size_);
   b5d46:	6862      	ldr	r2, [r4, #4]
    T* const p = data_ + i;
   b5d48:	eb03 06c6 	add.w	r6, r3, r6, lsl #3
    move(p + 1, p, data_ + size_);
   b5d4c:	eb03 02c2 	add.w	r2, r3, r2, lsl #3
   b5d50:	4631      	mov	r1, r6
   b5d52:	f106 0008 	add.w	r0, r6, #8
   b5d56:	f7ff ffae 	bl	b5cb6 <_ZN5spark6VectorIN8particle13BlePeerDeviceENS_16DefaultAllocatorEE4moveIS2_Li0EEEvPS2_S6_S6_>
    new(p) T(std::move(value));
   b5d5a:	b11e      	cbz	r6, b5d64 <_ZN5spark6VectorIN8particle13BlePeerDeviceENS_16DefaultAllocatorEE6appendES2_+0x5a>
   b5d5c:	4669      	mov	r1, sp
   b5d5e:	4630      	mov	r0, r6
   b5d60:	f7ff fe65 	bl	b5a2e <_ZNSt12__shared_ptrIN8particle17BlePeerDeviceImplELN9__gnu_cxx12_Lock_policyE0EEC1ERKS4_>
    ++size_;
   b5d64:	6863      	ldr	r3, [r4, #4]
   b5d66:	3301      	adds	r3, #1
   b5d68:	6063      	str	r3, [r4, #4]
    return true;
   b5d6a:	2501      	movs	r5, #1
   b5d6c:	a801      	add	r0, sp, #4
   b5d6e:	f7ff fe68 	bl	b5a42 <_ZNSt14__shared_countILN9__gnu_cxx12_Lock_policyE0EED1Ev>
}
   b5d72:	4628      	mov	r0, r5
   b5d74:	b003      	add	sp, #12
   b5d76:	bdf0      	pop	{r4, r5, r6, r7, pc}
        T* d = nullptr;
   b5d78:	2500      	movs	r5, #0
   b5d7a:	e7de      	b.n	b5d3a <_ZN5spark6VectorIN8particle13BlePeerDeviceENS_16DefaultAllocatorEE6appendES2_+0x30>

000b5d7c <_ZN5spark6VectorIN8particle13BlePeerDeviceENS_16DefaultAllocatorEE9removeOneERKS2_.isra.0>:
inline bool spark::Vector<T, AllocatorT>::removeOne(const T &value) {
   b5d7c:	b5f8      	push	{r3, r4, r5, r6, r7, lr}
    T* const p = find(data_, data_ + size_, value);
   b5d7e:	e9d0 4300 	ldrd	r4, r3, [r0]
inline bool spark::Vector<T, AllocatorT>::removeOne(const T &value) {
   b5d82:	4605      	mov	r5, r0
   b5d84:	460f      	mov	r7, r1
    T* const p = find(data_, data_ + size_, value);
   b5d86:	eb04 06c3 	add.w	r6, r4, r3, lsl #3
        for (; p != end; ++p) {
   b5d8a:	42a6      	cmp	r6, r4
   b5d8c:	d005      	beq.n	b5d9a <_ZN5spark6VectorIN8particle13BlePeerDeviceENS_16DefaultAllocatorEE9removeOneERKS2_.isra.0+0x1e>
            if (*p == value) {
   b5d8e:	4639      	mov	r1, r7
   b5d90:	4620      	mov	r0, r4
   b5d92:	f7ff fd30 	bl	b57f6 <_ZNK8particle13BlePeerDeviceeqERKS0_>
   b5d96:	b108      	cbz	r0, b5d9c <_ZN5spark6VectorIN8particle13BlePeerDeviceENS_16DefaultAllocatorEE9removeOneERKS2_.isra.0+0x20>
    if (!p) {
   b5d98:	b914      	cbnz	r4, b5da0 <_ZN5spark6VectorIN8particle13BlePeerDeviceENS_16DefaultAllocatorEE9removeOneERKS2_.isra.0+0x24>
}
   b5d9a:	bdf8      	pop	{r3, r4, r5, r6, r7, pc}
        for (; p != end; ++p) {
   b5d9c:	3408      	adds	r4, #8
   b5d9e:	e7f4      	b.n	b5d8a <_ZN5spark6VectorIN8particle13BlePeerDeviceENS_16DefaultAllocatorEE9removeOneERKS2_.isra.0+0xe>
   b5da0:	1d20      	adds	r0, r4, #4
   b5da2:	f7ff fe4e 	bl	b5a42 <_ZNSt14__shared_countILN9__gnu_cxx12_Lock_policyE0EED1Ev>
    move(p, p + 1, data_ + size_);
   b5da6:	e9d5 3200 	ldrd	r3, r2, [r5]
   b5daa:	f104 0108 	add.w	r1, r4, #8
   b5dae:	eb03 02c2 	add.w	r2, r3, r2, lsl #3
   b5db2:	4620      	mov	r0, r4
   b5db4:	f7ff ff7f 	bl	b5cb6 <_ZN5spark6VectorIN8particle13BlePeerDeviceENS_16DefaultAllocatorEE4moveIS2_Li0EEEvPS2_S6_S6_>
    --size_;
   b5db8:	686b      	ldr	r3, [r5, #4]
   b5dba:	3b01      	subs	r3, #1
   b5dbc:	606b      	str	r3, [r5, #4]
    return true;
   b5dbe:	e7ec      	b.n	b5d9a <_ZN5spark6VectorIN8particle13BlePeerDeviceENS_16DefaultAllocatorEE9removeOneERKS2_.isra.0+0x1e>

000b5dc0 <_ZN8particle18BleLocalDeviceImpl15onBleLinkEventsEPK18hal_ble_link_evt_tPv>:
    static void onBleLinkEvents(const hal_ble_link_evt_t* event, void* context) {
   b5dc0:	e92d 41f0 	stmdb	sp!, {r4, r5, r6, r7, r8, lr}
   b5dc4:	4605      	mov	r5, r0
   b5dc6:	b08e      	sub	sp, #56	; 0x38
        WiringBleLock lk;
   b5dc8:	a803      	add	r0, sp, #12
    static void onBleLinkEvents(const hal_ble_link_evt_t* event, void* context) {
   b5dca:	460c      	mov	r4, r1
        WiringBleLock lk;
   b5dcc:	f7ff fbf4 	bl	b55b8 <_ZN8particle3ble13WiringBleLockC1Ev>
        switch (event->type) {
   b5dd0:	682e      	ldr	r6, [r5, #0]
   b5dd2:	1ef3      	subs	r3, r6, #3
   b5dd4:	2b0d      	cmp	r3, #13
   b5dd6:	d83c      	bhi.n	b5e52 <_ZN8particle18BleLocalDeviceImpl15onBleLinkEventsEPK18hal_ble_link_evt_tPv+0x92>
   b5dd8:	e8df f013 	tbh	[pc, r3, lsl #1]
   b5ddc:	0057000e 	.word	0x0057000e
   b5de0:	00d3003b 	.word	0x00d3003b
   b5de4:	003b003b 	.word	0x003b003b
   b5de8:	003b003b 	.word	0x003b003b
   b5dec:	009d003b 	.word	0x009d003b
   b5df0:	009d009d 	.word	0x009d009d
   b5df4:	009d009d 	.word	0x009d009d
                    BlePeerDevice peer;
   b5df8:	a804      	add	r0, sp, #16
   b5dfa:	f7ff fcc7 	bl	b578c <_ZN8particle13BlePeerDeviceC1Ev>
                    peer.impl()->connHandle() = event->conn_handle;
   b5dfe:	9b04      	ldr	r3, [sp, #16]
   b5e00:	89aa      	ldrh	r2, [r5, #12]
   b5e02:	801a      	strh	r2, [r3, #0]
                    peer.impl()->address() = event->params.connected.info->address;
   b5e04:	6869      	ldr	r1, [r5, #4]
   b5e06:	9804      	ldr	r0, [sp, #16]
   b5e08:	3108      	adds	r1, #8
   b5e0a:	3002      	adds	r0, #2
   b5e0c:	f7ff fbee 	bl	b55ec <_ZN8particle10BleAddressaSERK14hal_ble_addr_t>
   b5e10:	a904      	add	r1, sp, #16
   b5e12:	a806      	add	r0, sp, #24
   b5e14:	f7ff fe0b 	bl	b5a2e <_ZNSt12__shared_ptrIN8particle17BlePeerDeviceImplELN9__gnu_cxx12_Lock_policyE0EEC1ERKS4_>
                    if (!impl->peers_.append(peer)) {
   b5e18:	a906      	add	r1, sp, #24
   b5e1a:	f104 0018 	add.w	r0, r4, #24
   b5e1e:	f7ff ff74 	bl	b5d0a <_ZN5spark6VectorIN8particle13BlePeerDeviceENS_16DefaultAllocatorEE6appendES2_>
   b5e22:	4605      	mov	r5, r0
   b5e24:	a807      	add	r0, sp, #28
   b5e26:	f7ff fe0c 	bl	b5a42 <_ZNSt14__shared_countILN9__gnu_cxx12_Lock_policyE0EED1Ev>
   b5e2a:	b9c5      	cbnz	r5, b5e5e <_ZN8particle18BleLocalDeviceImpl15onBleLinkEventsEPK18hal_ble_link_evt_tPv+0x9e>
                        LOG(TRACE, "Failed to append peer Central device.");
   b5e2c:	2320      	movs	r3, #32
   b5e2e:	e9cd 3506 	strd	r3, r5, [sp, #24]
   b5e32:	4b5e      	ldr	r3, [pc, #376]	; (b5fac <_ZN8particle18BleLocalDeviceImpl15onBleLinkEventsEPK18hal_ble_link_evt_tPv+0x1ec>)
   b5e34:	495e      	ldr	r1, [pc, #376]	; (b5fb0 <_ZN8particle18BleLocalDeviceImpl15onBleLinkEventsEPK18hal_ble_link_evt_tPv+0x1f0>)
   b5e36:	9300      	str	r3, [sp, #0]
   b5e38:	aa06      	add	r2, sp, #24
   b5e3a:	462b      	mov	r3, r5
   b5e3c:	2001      	movs	r0, #1
   b5e3e:	f7ff f829 	bl	b4e94 <log_message>
                        hal_ble_gap_disconnect(peer.impl()->connHandle(), nullptr);
   b5e42:	9b04      	ldr	r3, [sp, #16]
   b5e44:	4629      	mov	r1, r5
   b5e46:	8818      	ldrh	r0, [r3, #0]
   b5e48:	f7fe fe80 	bl	b4b4c <hal_ble_gap_disconnect>
   b5e4c:	a805      	add	r0, sp, #20
   b5e4e:	f7ff fdf8 	bl	b5a42 <_ZNSt14__shared_countILN9__gnu_cxx12_Lock_policyE0EED1Ev>
        WiringBleLock lk;
   b5e52:	a803      	add	r0, sp, #12
   b5e54:	f7ff fbbe 	bl	b55d4 <_ZN8particle3ble13WiringBleLockD1Ev>
    }
   b5e58:	b00e      	add	sp, #56	; 0x38
   b5e5a:	e8bd 81f0 	ldmia.w	sp!, {r4, r5, r6, r7, r8, pc}
                    if (impl->connectedCallback_) {
   b5e5e:	6ae3      	ldr	r3, [r4, #44]	; 0x2c
   b5e60:	b123      	cbz	r3, b5e6c <_ZN8particle18BleLocalDeviceImpl15onBleLinkEventsEPK18hal_ble_link_evt_tPv+0xac>
                        impl->connectedCallback_(peer);
   b5e62:	a904      	add	r1, sp, #16
   b5e64:	f104 0024 	add.w	r0, r4, #36	; 0x24
   b5e68:	f7ff fe54 	bl	b5b14 <_ZNKSt8functionIFvRKN8particle13BlePeerDeviceEEEclES3_>
   b5e6c:	a805      	add	r0, sp, #20
   b5e6e:	f7ff fde8 	bl	b5a42 <_ZNSt14__shared_countILN9__gnu_cxx12_Lock_policyE0EED1Ev>
                LOG(TRACE, "Connected");
   b5e72:	2120      	movs	r1, #32
   b5e74:	2300      	movs	r3, #0
   b5e76:	e9cd 1306 	strd	r1, r3, [sp, #24]
   b5e7a:	4a4e      	ldr	r2, [pc, #312]	; (b5fb4 <_ZN8particle18BleLocalDeviceImpl15onBleLinkEventsEPK18hal_ble_link_evt_tPv+0x1f4>)
                    LOG(TRACE, "Disconnected");
   b5e7c:	9200      	str	r2, [sp, #0]
   b5e7e:	494c      	ldr	r1, [pc, #304]	; (b5fb0 <_ZN8particle18BleLocalDeviceImpl15onBleLinkEventsEPK18hal_ble_link_evt_tPv+0x1f0>)
   b5e80:	aa06      	add	r2, sp, #24
   b5e82:	2001      	movs	r0, #1
   b5e84:	f7ff f806 	bl	b4e94 <log_message>
   b5e88:	e7e3      	b.n	b5e52 <_ZN8particle18BleLocalDeviceImpl15onBleLinkEventsEPK18hal_ble_link_evt_tPv+0x92>
                BlePeerDevice* peer = impl->findPeerDevice(event->conn_handle);
   b5e8a:	89a9      	ldrh	r1, [r5, #12]
   b5e8c:	4620      	mov	r0, r4
   b5e8e:	f7ff fc6b 	bl	b5768 <_ZN8particle18BleLocalDeviceImpl14findPeerDeviceEt>
                if (peer) {
   b5e92:	4606      	mov	r6, r0
   b5e94:	2800      	cmp	r0, #0
   b5e96:	d0dc      	beq.n	b5e52 <_ZN8particle18BleLocalDeviceImpl15onBleLinkEventsEPK18hal_ble_link_evt_tPv+0x92>
      { return _M_ptr; }
   b5e98:	6805      	ldr	r5, [r0, #0]
    return data_ + size_;
   b5e9a:	e9d5 3206 	ldrd	r3, r2, [r5, #24]
        connHandle_ = BLE_INVALID_CONN_HANDLE;
   b5e9e:	f64f 71ff 	movw	r1, #65535	; 0xffff
   b5ea2:	8029      	strh	r1, [r5, #0]
   b5ea4:	eb03 02c2 	add.w	r2, r3, r2, lsl #3
        for (auto& characteristic : characteristics()) {
   b5ea8:	429a      	cmp	r2, r3
   b5eaa:	d003      	beq.n	b5eb4 <_ZN8particle18BleLocalDeviceImpl15onBleLinkEventsEPK18hal_ble_link_evt_tPv+0xf4>
   b5eac:	f853 0b08 	ldr.w	r0, [r3], #8
            characteristic.impl()->connHandle() = BLE_INVALID_CONN_HANDLE;
   b5eb0:	8041      	strh	r1, [r0, #2]
        for (auto& characteristic : characteristics()) {
   b5eb2:	e7f9      	b.n	b5ea8 <_ZN8particle18BleLocalDeviceImpl15onBleLinkEventsEPK18hal_ble_link_evt_tPv+0xe8>
    destruct(data_, data_ + size_);
   b5eb4:	e9d5 7303 	ldrd	r7, r3, [r5, #12]
   b5eb8:	eb07 08c3 	add.w	r8, r7, r3, lsl #3
        for (; p != end; ++p) {
   b5ebc:	45b8      	cmp	r8, r7
   b5ebe:	d004      	beq.n	b5eca <_ZN8particle18BleLocalDeviceImpl15onBleLinkEventsEPK18hal_ble_link_evt_tPv+0x10a>
      ~__shared_ptr() = default;
   b5ec0:	1d38      	adds	r0, r7, #4
   b5ec2:	f7ff fdbe 	bl	b5a42 <_ZNSt14__shared_countILN9__gnu_cxx12_Lock_policyE0EED1Ev>
   b5ec6:	3708      	adds	r7, #8
   b5ec8:	e7f8      	b.n	b5ebc <_ZN8particle18BleLocalDeviceImpl15onBleLinkEventsEPK18hal_ble_link_evt_tPv+0xfc>
    size_ = 0;
   b5eca:	2300      	movs	r3, #0
   b5ecc:	612b      	str	r3, [r5, #16]
    destruct(data_, data_ + size_);
   b5ece:	e9d5 7306 	ldrd	r7, r3, [r5, #24]
   b5ed2:	eb07 08c3 	add.w	r8, r7, r3, lsl #3
        for (; p != end; ++p) {
   b5ed6:	45b8      	cmp	r8, r7
   b5ed8:	d004      	beq.n	b5ee4 <_ZN8particle18BleLocalDeviceImpl15onBleLinkEventsEPK18hal_ble_link_evt_tPv+0x124>
   b5eda:	1d38      	adds	r0, r7, #4
   b5edc:	f7ff fdb1 	bl	b5a42 <_ZNSt14__shared_countILN9__gnu_cxx12_Lock_policyE0EED1Ev>
   b5ee0:	3708      	adds	r7, #8
   b5ee2:	e7f8      	b.n	b5ed6 <_ZN8particle18BleLocalDeviceImpl15onBleLinkEventsEPK18hal_ble_link_evt_tPv+0x116>
    size_ = 0;
   b5ee4:	2300      	movs	r3, #0
   b5ee6:	61eb      	str	r3, [r5, #28]
        servicesDiscovered_ = false;
   b5ee8:	72ab      	strb	r3, [r5, #10]
                        if (impl->disconnectedCallback_) {
   b5eea:	6be3      	ldr	r3, [r4, #60]	; 0x3c
   b5eec:	b123      	cbz	r3, b5ef8 <_ZN8particle18BleLocalDeviceImpl15onBleLinkEventsEPK18hal_ble_link_evt_tPv+0x138>
                            impl->disconnectedCallback_(*peer);
   b5eee:	4631      	mov	r1, r6
   b5ef0:	f104 0034 	add.w	r0, r4, #52	; 0x34
   b5ef4:	f7ff fe0e 	bl	b5b14 <_ZNKSt8functionIFvRKN8particle13BlePeerDeviceEEEclES3_>
      { return _M_ptr; }
   b5ef8:	6833      	ldr	r3, [r6, #0]
                        peer->impl()->connHandle() = BLE_INVALID_CONN_HANDLE;
   b5efa:	f64f 72ff 	movw	r2, #65535	; 0xffff
   b5efe:	801a      	strh	r2, [r3, #0]
                        impl->peers_.removeOne(*peer);
   b5f00:	4631      	mov	r1, r6
   b5f02:	f104 0018 	add.w	r0, r4, #24
   b5f06:	f7ff ff39 	bl	b5d7c <_ZN5spark6VectorIN8particle13BlePeerDeviceENS_16DefaultAllocatorEE9removeOneERKS2_.isra.0>
                    LOG(TRACE, "Disconnected");
   b5f0a:	2220      	movs	r2, #32
   b5f0c:	2300      	movs	r3, #0
   b5f0e:	e9cd 2306 	strd	r2, r3, [sp, #24]
   b5f12:	4a29      	ldr	r2, [pc, #164]	; (b5fb8 <_ZN8particle18BleLocalDeviceImpl15onBleLinkEventsEPK18hal_ble_link_evt_tPv+0x1f8>)
   b5f14:	e7b2      	b.n	b5e7c <_ZN8particle18BleLocalDeviceImpl15onBleLinkEventsEPK18hal_ble_link_evt_tPv+0xbc>
                BlePeerDevice* peer = impl->findPeerDevice(event->conn_handle);
   b5f16:	89a9      	ldrh	r1, [r5, #12]
   b5f18:	4620      	mov	r0, r4
   b5f1a:	f7ff fc25 	bl	b5768 <_ZN8particle18BleLocalDeviceImpl14findPeerDeviceEt>
                if (peer) {
   b5f1e:	2800      	cmp	r0, #0
   b5f20:	d097      	beq.n	b5e52 <_ZN8particle18BleLocalDeviceImpl15onBleLinkEventsEPK18hal_ble_link_evt_tPv+0x92>
                    if (impl->pairingEventCallback_) {
   b5f22:	6ce3      	ldr	r3, [r4, #76]	; 0x4c
   b5f24:	2b00      	cmp	r3, #0
   b5f26:	d094      	beq.n	b5e52 <_ZN8particle18BleLocalDeviceImpl15onBleLinkEventsEPK18hal_ble_link_evt_tPv+0x92>
                        BlePairingEventPayload payload = {};
   b5f28:	2300      	movs	r3, #0
                        if (event->type == BLE_EVT_PAIRING_PASSKEY_DISPLAY || event->type == BLE_EVT_PAIRING_NUMERIC_COMPARISON) {
   b5f2a:	2e0d      	cmp	r6, #13
                        BlePairingEventPayload payload = {};
   b5f2c:	f8ad 3016 	strh.w	r3, [sp, #22]
                        if (event->type == BLE_EVT_PAIRING_PASSKEY_DISPLAY || event->type == BLE_EVT_PAIRING_NUMERIC_COMPARISON) {
   b5f30:	d001      	beq.n	b5f36 <_ZN8particle18BleLocalDeviceImpl15onBleLinkEventsEPK18hal_ble_link_evt_tPv+0x176>
   b5f32:	2e10      	cmp	r6, #16
   b5f34:	d117      	bne.n	b5f66 <_ZN8particle18BleLocalDeviceImpl15onBleLinkEventsEPK18hal_ble_link_evt_tPv+0x1a6>
                        BlePairingEventPayload payload = {};
   b5f36:	2300      	movs	r3, #0
                            payload.passkey = event->params.passkey_display.passkey;
   b5f38:	6869      	ldr	r1, [r5, #4]
                        BlePairingEventPayload payload = {};
   b5f3a:	461a      	mov	r2, r3
                            payloadLen = BLE_PAIRING_PASSKEY_LEN;
   b5f3c:	2506      	movs	r5, #6
                        };
   b5f3e:	f88d 3015 	strb.w	r3, [sp, #21]
   b5f42:	9104      	str	r1, [sp, #16]
   b5f44:	f88d 2014 	strb.w	r2, [sp, #20]
   b5f48:	9006      	str	r0, [sp, #24]
   b5f4a:	e9dd 0104 	ldrd	r0, r1, [sp, #16]
   b5f4e:	ab09      	add	r3, sp, #36	; 0x24
                            .type = static_cast<BlePairingEventType>(event->type),
   b5f50:	f88d 601c 	strb.w	r6, [sp, #28]
                        };
   b5f54:	9508      	str	r5, [sp, #32]
   b5f56:	e883 0003 	stmia.w	r3, {r0, r1}
   b5f5a:	6d23      	ldr	r3, [r4, #80]	; 0x50
   b5f5c:	a906      	add	r1, sp, #24
   b5f5e:	f104 0044 	add.w	r0, r4, #68	; 0x44
   b5f62:	4798      	blx	r3
   b5f64:	e775      	b.n	b5e52 <_ZN8particle18BleLocalDeviceImpl15onBleLinkEventsEPK18hal_ble_link_evt_tPv+0x92>
                        } else if (event->type == BLE_EVT_PAIRING_STATUS_UPDATED) {
   b5f66:	2e0f      	cmp	r6, #15
                            payload.status.bonded = event->params.pairing_status.bonded;
   b5f68:	bf01      	itttt	eq
   b5f6a:	7a2b      	ldrbeq	r3, [r5, #8]
                            payload.status.status = event->params.pairing_status.status;
   b5f6c:	6869      	ldreq	r1, [r5, #4]
                            payload.status.bonded = event->params.pairing_status.bonded;
   b5f6e:	f003 0201 	andeq.w	r2, r3, #1
                            payloadLen = sizeof(BlePairingStatus);
   b5f72:	2508      	moveq	r5, #8
                            payload.status.lesc = event->params.pairing_status.lesc;
   b5f74:	bf0f      	iteee	eq
   b5f76:	f3c3 0340 	ubfxeq	r3, r3, #1, #1
                        BlePairingEventPayload payload = {};
   b5f7a:	461a      	movne	r2, r3
   b5f7c:	4619      	movne	r1, r3
                        size_t payloadLen = 0;
   b5f7e:	461d      	movne	r5, r3
   b5f80:	e7dd      	b.n	b5f3e <_ZN8particle18BleLocalDeviceImpl15onBleLinkEventsEPK18hal_ble_link_evt_tPv+0x17e>
                BlePeerDevice* peer = impl->findPeerDevice(event->conn_handle);
   b5f82:	89a9      	ldrh	r1, [r5, #12]
   b5f84:	4620      	mov	r0, r4
   b5f86:	f7ff fbef 	bl	b5768 <_ZN8particle18BleLocalDeviceImpl14findPeerDeviceEt>
                if (peer && impl->attMtuExchangedCallback_) {
   b5f8a:	4601      	mov	r1, r0
   b5f8c:	2800      	cmp	r0, #0
   b5f8e:	f43f af60 	beq.w	b5e52 <_ZN8particle18BleLocalDeviceImpl15onBleLinkEventsEPK18hal_ble_link_evt_tPv+0x92>
   b5f92:	6de3      	ldr	r3, [r4, #92]	; 0x5c
   b5f94:	2b00      	cmp	r3, #0
   b5f96:	f43f af5c 	beq.w	b5e52 <_ZN8particle18BleLocalDeviceImpl15onBleLinkEventsEPK18hal_ble_link_evt_tPv+0x92>
                    impl->attMtuExchangedCallback_(*peer, event->params.att_mtu_updated.att_mtu_size);
   b5f9a:	686b      	ldr	r3, [r5, #4]
   b5f9c:	9306      	str	r3, [sp, #24]
   b5f9e:	aa06      	add	r2, sp, #24
   b5fa0:	6e23      	ldr	r3, [r4, #96]	; 0x60
   b5fa2:	f104 0054 	add.w	r0, r4, #84	; 0x54
   b5fa6:	4798      	blx	r3
   b5fa8:	e753      	b.n	b5e52 <_ZN8particle18BleLocalDeviceImpl15onBleLinkEventsEPK18hal_ble_link_evt_tPv+0x92>
   b5faa:	bf00      	nop
   b5fac:	000b8b10 	.word	0x000b8b10
   b5fb0:	000b8aa7 	.word	0x000b8aa7
   b5fb4:	000b8b36 	.word	0x000b8b36
   b5fb8:	000b8b40 	.word	0x000b8b40

000b5fbc <_ZSt4swapISt9_Any_dataENSt9enable_ifIXsrSt6__and_IJSt6__not_ISt15__is_tuple_likeIT_EESt21is_move_constructibleIS5_ESt18is_move_assignableIS5_EEE5valueEvE4typeERS5_SF_>:
			      is_move_constructible<_Tp>,
			      is_move_assignable<_Tp>>::value>::type
#else
    void
#endif
    swap(_Tp& __a, _Tp& __b)
   b5fbc:	b513      	push	{r0, r1, r4, lr}
   b5fbe:	460b      	mov	r3, r1
   b5fc0:	4602      	mov	r2, r0
    {
#if __cplusplus < 201103L
      // concept requirements
      __glibcxx_function_requires(_SGIAssignableConcept<_Tp>)
#endif
      _Tp __tmp = _GLIBCXX_MOVE(__a);
   b5fc2:	e9d0 0100 	ldrd	r0, r1, [r0]
   b5fc6:	466c      	mov	r4, sp
   b5fc8:	e884 0003 	stmia.w	r4, {r0, r1}
      __a = _GLIBCXX_MOVE(__b);
   b5fcc:	e893 0003 	ldmia.w	r3, {r0, r1}
   b5fd0:	e882 0003 	stmia.w	r2, {r0, r1}
      __b = _GLIBCXX_MOVE(__tmp);
   b5fd4:	e894 0003 	ldmia.w	r4, {r0, r1}
   b5fd8:	e883 0003 	stmia.w	r3, {r0, r1}
    }
   b5fdc:	b002      	add	sp, #8
   b5fde:	bd10      	pop	{r4, pc}

000b5fe0 <_ZNSt8functionIFvRKN8particle13BlePeerDeviceEEE4swapERS5_>:
      void swap(function& __x) noexcept
   b5fe0:	b538      	push	{r3, r4, r5, lr}
   b5fe2:	4605      	mov	r5, r0
   b5fe4:	460c      	mov	r4, r1
	std::swap(_M_functor, __x._M_functor);
   b5fe6:	f7ff ffe9 	bl	b5fbc <_ZSt4swapISt9_Any_dataENSt9enable_ifIXsrSt6__and_IJSt6__not_ISt15__is_tuple_likeIT_EESt21is_move_constructibleIS5_ESt18is_move_assignableIS5_EEE5valueEvE4typeERS5_SF_>
      _Tp __tmp = _GLIBCXX_MOVE(__a);
   b5fea:	68ab      	ldr	r3, [r5, #8]
      __a = _GLIBCXX_MOVE(__b);
   b5fec:	68a2      	ldr	r2, [r4, #8]
   b5fee:	60aa      	str	r2, [r5, #8]
      __b = _GLIBCXX_MOVE(__tmp);
   b5ff0:	60a3      	str	r3, [r4, #8]
      _Tp __tmp = _GLIBCXX_MOVE(__a);
   b5ff2:	68eb      	ldr	r3, [r5, #12]
      __a = _GLIBCXX_MOVE(__b);
   b5ff4:	68e2      	ldr	r2, [r4, #12]
   b5ff6:	60ea      	str	r2, [r5, #12]
      __b = _GLIBCXX_MOVE(__tmp);
   b5ff8:	60e3      	str	r3, [r4, #12]
      }
   b5ffa:	bd38      	pop	{r3, r4, r5, pc}

000b5ffc <_ZNK8particle14BleLocalDevice14onDisconnectedEPFvRKNS_13BlePeerDeviceEPvES4_>:
void BleLocalDevice::onDisconnected(BleOnDisconnectedCallback callback, void* context) const {
   b5ffc:	b510      	push	{r4, lr}
        disconnectedCallback_ = callback ? std::bind(callback, _1, context) : (BleOnDisconnectedStdFunction)nullptr;
   b5ffe:	6804      	ldr	r4, [r0, #0]
void BleLocalDevice::onDisconnected(BleOnDisconnectedCallback callback, void* context) const {
   b6000:	b08a      	sub	sp, #40	; 0x28
        disconnectedCallback_ = callback ? std::bind(callback, _1, context) : (BleOnDisconnectedStdFunction)nullptr;
   b6002:	3434      	adds	r4, #52	; 0x34
   b6004:	b1b9      	cbz	r1, b6036 <_ZNK8particle14BleLocalDevice14onDisconnectedEPFvRKNS_13BlePeerDeviceEPvES4_+0x3a>
   b6006:	e9cd 1200 	strd	r1, r2, [sp]
   b600a:	a802      	add	r0, sp, #8
   b600c:	4669      	mov	r1, sp
   b600e:	f7ff fcef 	bl	b59f0 <_ZNSt8functionIFvRKN8particle13BlePeerDeviceEEEC1ISt5_BindIFPFvS3_PvESt12_PlaceholderILi1EES8_EEvvEET_>
    _Function_base() : _M_manager(nullptr) { }
   b6012:	2300      	movs	r3, #0
	__x.swap(*this);
   b6014:	a906      	add	r1, sp, #24
   b6016:	a802      	add	r0, sp, #8
    _Function_base() : _M_manager(nullptr) { }
   b6018:	9308      	str	r3, [sp, #32]
	__x.swap(*this);
   b601a:	f7ff ffe1 	bl	b5fe0 <_ZNSt8functionIFvRKN8particle13BlePeerDeviceEEE4swapERS5_>
	function(std::move(__x)).swap(*this);
   b601e:	4621      	mov	r1, r4
   b6020:	a806      	add	r0, sp, #24
   b6022:	f7ff ffdd 	bl	b5fe0 <_ZNSt8functionIFvRKN8particle13BlePeerDeviceEEE4swapERS5_>
    class function<_Res(_ArgTypes...)>
   b6026:	a806      	add	r0, sp, #24
   b6028:	f7ff fa93 	bl	b5552 <_ZNSt14_Function_baseD1Ev>
   b602c:	a802      	add	r0, sp, #8
   b602e:	f7ff fa90 	bl	b5552 <_ZNSt14_Function_baseD1Ev>
}
   b6032:	b00a      	add	sp, #40	; 0x28
   b6034:	bd10      	pop	{r4, pc}
    _Function_base() : _M_manager(nullptr) { }
   b6036:	9104      	str	r1, [sp, #16]
      : _Function_base() { }
   b6038:	e7eb      	b.n	b6012 <_ZNK8particle14BleLocalDevice14onDisconnectedEPFvRKNS_13BlePeerDeviceEPvES4_+0x16>

000b603a <_ZNK8particle14BleLocalDevice11onConnectedEPFvRKNS_13BlePeerDeviceEPvES4_>:
void BleLocalDevice::onConnected(BleOnConnectedCallback callback, void* context) const {
   b603a:	b510      	push	{r4, lr}
        connectedCallback_ = callback ? std::bind(callback, _1, context) : (BleOnConnectedStdFunction)nullptr;
   b603c:	6804      	ldr	r4, [r0, #0]
void BleLocalDevice::onConnected(BleOnConnectedCallback callback, void* context) const {
   b603e:	b08a      	sub	sp, #40	; 0x28
        connectedCallback_ = callback ? std::bind(callback, _1, context) : (BleOnConnectedStdFunction)nullptr;
   b6040:	3424      	adds	r4, #36	; 0x24
   b6042:	b1b9      	cbz	r1, b6074 <_ZNK8particle14BleLocalDevice11onConnectedEPFvRKNS_13BlePeerDeviceEPvES4_+0x3a>
   b6044:	e9cd 1200 	strd	r1, r2, [sp]
   b6048:	a802      	add	r0, sp, #8
   b604a:	4669      	mov	r1, sp
   b604c:	f7ff fcd0 	bl	b59f0 <_ZNSt8functionIFvRKN8particle13BlePeerDeviceEEEC1ISt5_BindIFPFvS3_PvESt12_PlaceholderILi1EES8_EEvvEET_>
    _Function_base() : _M_manager(nullptr) { }
   b6050:	2300      	movs	r3, #0
	__x.swap(*this);
   b6052:	a906      	add	r1, sp, #24
   b6054:	a802      	add	r0, sp, #8
    _Function_base() : _M_manager(nullptr) { }
   b6056:	9308      	str	r3, [sp, #32]
	__x.swap(*this);
   b6058:	f7ff ffc2 	bl	b5fe0 <_ZNSt8functionIFvRKN8particle13BlePeerDeviceEEE4swapERS5_>
	function(std::move(__x)).swap(*this);
   b605c:	4621      	mov	r1, r4
   b605e:	a806      	add	r0, sp, #24
   b6060:	f7ff ffbe 	bl	b5fe0 <_ZNSt8functionIFvRKN8particle13BlePeerDeviceEEE4swapERS5_>
    class function<_Res(_ArgTypes...)>
   b6064:	a806      	add	r0, sp, #24
   b6066:	f7ff fa74 	bl	b5552 <_ZNSt14_Function_baseD1Ev>
   b606a:	a802      	add	r0, sp, #8
   b606c:	f7ff fa71 	bl	b5552 <_ZNSt14_Function_baseD1Ev>
}
   b6070:	b00a      	add	sp, #40	; 0x28
   b6072:	bd10      	pop	{r4, pc}
    _Function_base() : _M_manager(nullptr) { }
   b6074:	9104      	str	r1, [sp, #16]
      : _Function_base() { }
   b6076:	e7eb      	b.n	b6050 <_ZNK8particle14BleLocalDevice11onConnectedEPFvRKNS_13BlePeerDeviceEPvES4_+0x16>

000b6078 <_GLOBAL__sub_I__ZN8particle3ble13WiringBleLock6mutex_E>:
    RecursiveMutex() : handle_(nullptr)
   b6078:	4802      	ldr	r0, [pc, #8]	; (b6084 <_GLOBAL__sub_I__ZN8particle3ble13WiringBleLock6mutex_E+0xc>)
   b607a:	2300      	movs	r3, #0
   b607c:	6003      	str	r3, [r0, #0]
        os_mutex_recursive_create(&handle_);
   b607e:	f7fe bd91 	b.w	b4ba4 <os_mutex_recursive_create>
   b6082:	bf00      	nop
   b6084:	2003e6a4 	.word	0x2003e6a4

000b6088 <_ZN5Print5writeEPKhj>:

// Public Methods //////////////////////////////////////////////////////////////

/* default implementation: may be overridden */
size_t Print::write(const uint8_t *buffer, size_t size)
{
   b6088:	b5f8      	push	{r3, r4, r5, r6, r7, lr}
   b608a:	4606      	mov	r6, r0
   b608c:	460d      	mov	r5, r1
  size_t n = 0;
   b608e:	188f      	adds	r7, r1, r2
   b6090:	2400      	movs	r4, #0
  while (size--) {
   b6092:	42bd      	cmp	r5, r7
   b6094:	d00c      	beq.n	b60b0 <_ZN5Print5writeEPKhj+0x28>
     int chunk = write(*buffer++);
   b6096:	6833      	ldr	r3, [r6, #0]
   b6098:	f815 1b01 	ldrb.w	r1, [r5], #1
   b609c:	689b      	ldr	r3, [r3, #8]
   b609e:	4630      	mov	r0, r6
   b60a0:	4798      	blx	r3
     if (chunk>=0)
   b60a2:	1e03      	subs	r3, r0, #0
   b60a4:	db01      	blt.n	b60aa <_ZN5Print5writeEPKhj+0x22>
         n += chunk;
   b60a6:	441c      	add	r4, r3
  while (size--) {
   b60a8:	e7f3      	b.n	b6092 <_ZN5Print5writeEPKhj+0xa>
     int chunk = write(*buffer++);
   b60aa:	2c00      	cmp	r4, #0
   b60ac:	bf08      	it	eq
   b60ae:	461c      	moveq	r4, r3
             n = chunk;
         break;
     }
  }
  return n;
}
   b60b0:	4620      	mov	r0, r4
   b60b2:	bdf8      	pop	{r3, r4, r5, r6, r7, pc}

000b60b4 <_ZN5Print5writeEPKc>:

    int getWriteError() { return write_error; }
    void clearWriteError() { setWriteError(0); }

    virtual size_t write(uint8_t) = 0;
    size_t write(const char *str) {
   b60b4:	b513      	push	{r0, r1, r4, lr}
   b60b6:	4604      	mov	r4, r0
      if (str == NULL) return 0;
      return write((const uint8_t *)str, strlen(str));
    }
   b60b8:	4608      	mov	r0, r1
      if (str == NULL) return 0;
   b60ba:	b159      	cbz	r1, b60d4 <_ZN5Print5writeEPKc+0x20>
      return write((const uint8_t *)str, strlen(str));
   b60bc:	9101      	str	r1, [sp, #4]
   b60be:	f7fd ffb7 	bl	b4030 <strlen>
   b60c2:	6823      	ldr	r3, [r4, #0]
   b60c4:	9901      	ldr	r1, [sp, #4]
   b60c6:	68db      	ldr	r3, [r3, #12]
   b60c8:	4602      	mov	r2, r0
   b60ca:	4620      	mov	r0, r4
    }
   b60cc:	b002      	add	sp, #8
   b60ce:	e8bd 4010 	ldmia.w	sp!, {r4, lr}
      return write((const uint8_t *)str, strlen(str));
   b60d2:	4718      	bx	r3
    }
   b60d4:	b002      	add	sp, #8
   b60d6:	bd10      	pop	{r4, pc}

000b60d8 <_ZN5Print5printEPKc>:

size_t Print::print(const char str[])
{
   b60d8:	b508      	push	{r3, lr}
  return write(str);
   b60da:	f7ff ffeb 	bl	b60b4 <_ZN5Print5writeEPKc>
}
   b60de:	bd08      	pop	{r3, pc}

000b60e0 <_ZN5Print5printEc>:

size_t Print::print(char c)
{
  return write(c);
   b60e0:	6803      	ldr	r3, [r0, #0]
   b60e2:	689b      	ldr	r3, [r3, #8]
   b60e4:	4718      	bx	r3

000b60e6 <_ZN5Print7printlnEv>:
{
  return print(reinterpret_cast<const char*>(str));
}

size_t Print::println(void)
{
   b60e6:	b538      	push	{r3, r4, r5, lr}
  size_t n = print('\r');
   b60e8:	210d      	movs	r1, #13
{
   b60ea:	4605      	mov	r5, r0
  size_t n = print('\r');
   b60ec:	f7ff fff8 	bl	b60e0 <_ZN5Print5printEc>
  n += print('\n');
   b60f0:	210a      	movs	r1, #10
  size_t n = print('\r');
   b60f2:	4604      	mov	r4, r0
  n += print('\n');
   b60f4:	4628      	mov	r0, r5
   b60f6:	f7ff fff3 	bl	b60e0 <_ZN5Print5printEc>
  return n;
}
   b60fa:	4420      	add	r0, r4
   b60fc:	bd38      	pop	{r3, r4, r5, pc}

000b60fe <_ZN5Print7printlnEPKc>:

size_t Print::println(const char c[])
{
   b60fe:	b538      	push	{r3, r4, r5, lr}
   b6100:	4605      	mov	r5, r0
  return write(str);
   b6102:	f7ff ffd7 	bl	b60b4 <_ZN5Print5writeEPKc>
   b6106:	4604      	mov	r4, r0
  size_t n = print(c);
  n += println();
   b6108:	4628      	mov	r0, r5
   b610a:	f7ff ffec 	bl	b60e6 <_ZN5Print7printlnEv>
  return n;
}
   b610e:	4420      	add	r0, r4
   b6110:	bd38      	pop	{r3, r4, r5, pc}

000b6112 <_ZN5Print11printNumberEmh>:
  return println(reinterpret_cast<const char*>(str));
}

// Private Methods /////////////////////////////////////////////////////////////

size_t Print::printNumber(unsigned long n, uint8_t base) {
   b6112:	b530      	push	{r4, r5, lr}
   b6114:	b08b      	sub	sp, #44	; 0x2c
  char buf[8 * sizeof(n) + 1]; // Assumes 8-bit chars plus zero byte.
  char *str = &buf[sizeof(buf) - 1];

  *str = '\0';
   b6116:	2300      	movs	r3, #0

  // prevent crash if called with base == 1
  if (base < 2) base = 10;
   b6118:	2a01      	cmp	r2, #1
  *str = '\0';
   b611a:	f88d 3024 	strb.w	r3, [sp, #36]	; 0x24
  if (base < 2) base = 10;
   b611e:	bf98      	it	ls
   b6120:	220a      	movls	r2, #10
   b6122:	ac09      	add	r4, sp, #36	; 0x24

  do {
   decltype(n) m = n;
   n /= base;
   b6124:	460d      	mov	r5, r1
   b6126:	fbb1 f1f2 	udiv	r1, r1, r2
   char c = m - base * n;
   b612a:	fb01 5312 	mls	r3, r1, r2, r5
   b612e:	f003 03ff 	and.w	r3, r3, #255	; 0xff
   *--str = c < 10 ? c + '0' : c + 'A' - 10;
   b6132:	2b09      	cmp	r3, #9
   b6134:	bf94      	ite	ls
   b6136:	3330      	addls	r3, #48	; 0x30
   b6138:	3337      	addhi	r3, #55	; 0x37
   b613a:	b2db      	uxtb	r3, r3
  } while(n);
   b613c:	42aa      	cmp	r2, r5
   *--str = c < 10 ? c + '0' : c + 'A' - 10;
   b613e:	f804 3d01 	strb.w	r3, [r4, #-1]!
  } while(n);
   b6142:	d9ef      	bls.n	b6124 <_ZN5Print11printNumberEmh+0x12>

  return write(str);
   b6144:	4621      	mov	r1, r4
   b6146:	f7ff ffb5 	bl	b60b4 <_ZN5Print5writeEPKc>
}
   b614a:	b00b      	add	sp, #44	; 0x2c
   b614c:	bd30      	pop	{r4, r5, pc}

000b614e <_ZN5Print7vprintfEbPKcSt9__va_list>:

  return n;
}

size_t Print::vprintf(bool newline, const char* format, va_list args)
{
   b614e:	e92d 41f0 	stmdb	sp!, {r4, r5, r6, r7, r8, lr}
   b6152:	b086      	sub	sp, #24
   b6154:	af00      	add	r7, sp, #0
   b6156:	4605      	mov	r5, r0
   b6158:	460e      	mov	r6, r1
    const int bufsize = 20;
    char test[bufsize];
    va_list args2;
    va_copy(args2, args);
    size_t n = vsnprintf(test, bufsize, format, args);
   b615a:	1d38      	adds	r0, r7, #4
   b615c:	2114      	movs	r1, #20
{
   b615e:	4614      	mov	r4, r2
    va_copy(args2, args);
   b6160:	603b      	str	r3, [r7, #0]
    size_t n = vsnprintf(test, bufsize, format, args);
   b6162:	f7fe ff63 	bl	b502c <vsnprintf>

    if (n<bufsize)
   b6166:	2813      	cmp	r0, #19
   b6168:	d80e      	bhi.n	b6188 <_ZN5Print7vprintfEbPKcSt9__va_list+0x3a>
  return write(str);
   b616a:	1d39      	adds	r1, r7, #4
   b616c:	4628      	mov	r0, r5
   b616e:	f7ff ffa1 	bl	b60b4 <_ZN5Print5writeEPKc>
   b6172:	4604      	mov	r4, r0
    {
        char bigger[n+1];
        n = vsnprintf(bigger, n+1, format, args2);
        n = print(bigger);
    }
    if (newline)
   b6174:	b11e      	cbz	r6, b617e <_ZN5Print7vprintfEbPKcSt9__va_list+0x30>
        n += println();
   b6176:	4628      	mov	r0, r5
   b6178:	f7ff ffb5 	bl	b60e6 <_ZN5Print7printlnEv>
   b617c:	4404      	add	r4, r0

    va_end(args2);
    return n;
}
   b617e:	4620      	mov	r0, r4
   b6180:	3718      	adds	r7, #24
   b6182:	46bd      	mov	sp, r7
   b6184:	e8bd 81f0 	ldmia.w	sp!, {r4, r5, r6, r7, r8, pc}
        char bigger[n+1];
   b6188:	f100 0308 	add.w	r3, r0, #8
   b618c:	f023 0307 	bic.w	r3, r3, #7
        n = print(bigger);
   b6190:	46e8      	mov	r8, sp
        char bigger[n+1];
   b6192:	ebad 0d03 	sub.w	sp, sp, r3
        n = vsnprintf(bigger, n+1, format, args2);
   b6196:	4622      	mov	r2, r4
   b6198:	1c41      	adds	r1, r0, #1
   b619a:	683b      	ldr	r3, [r7, #0]
   b619c:	4668      	mov	r0, sp
   b619e:	f7fe ff45 	bl	b502c <vsnprintf>
  return write(str);
   b61a2:	4669      	mov	r1, sp
   b61a4:	4628      	mov	r0, r5
   b61a6:	f7ff ff85 	bl	b60b4 <_ZN5Print5writeEPKc>
   b61aa:	4604      	mov	r4, r0
   b61ac:	46c5      	mov	sp, r8
   b61ae:	e7e1      	b.n	b6174 <_ZN5Print7vprintfEbPKcSt9__va_list+0x26>

000b61b0 <_ZN5spark16JSONStreamWriter5writeEPKcj>:
inline Print* spark::JSONStreamWriter::stream() const {
    return &strm_;
}

inline void spark::JSONStreamWriter::write(const char *data, size_t size) {
    strm_.write((const uint8_t*)data, size);
   b61b0:	6880      	ldr	r0, [r0, #8]
   b61b2:	6803      	ldr	r3, [r0, #0]
   b61b4:	68db      	ldr	r3, [r3, #12]
   b61b6:	4718      	bx	r3

000b61b8 <_ZN5spark20JSONStreamLogHandler5writeEPKcj>:
}

// spark::JSONStreamLogHandler
inline void spark::JSONStreamLogHandler::write(const char *data, size_t size) {
    // This handler doesn't support direct logging
}
   b61b8:	4770      	bx	lr

000b61ba <_ZN5spark17LogHandlerFactory14destroyHandlerEPNS_10LogHandlerE>:

#if Wiring_LogConfig

// spark::LogHandlerFactory
inline void spark::LogHandlerFactory::destroyHandler(LogHandler *handler) {
    delete handler;
   b61ba:	4608      	mov	r0, r1
   b61bc:	b111      	cbz	r1, b61c4 <_ZN5spark17LogHandlerFactory14destroyHandlerEPNS_10LogHandlerE+0xa>
   b61be:	680b      	ldr	r3, [r1, #0]
   b61c0:	685b      	ldr	r3, [r3, #4]
   b61c2:	4718      	bx	r3
}
   b61c4:	4770      	bx	lr

000b61c6 <__tcf_0>:
    }
    return nullptr; // Unknown handler type
}

spark::DefaultLogHandlerFactory* spark::DefaultLogHandlerFactory::instance() {
    static DefaultLogHandlerFactory factory;
   b61c6:	4770      	bx	lr

000b61c8 <_ZN5spark26DefaultOutputStreamFactoryD1Ev>:
class DefaultOutputStreamFactory: public OutputStreamFactory {
   b61c8:	4770      	bx	lr

000b61ca <_ZN5spark24DefaultLogHandlerFactoryD1Ev>:
class DefaultLogHandlerFactory: public LogHandlerFactory {
   b61ca:	4770      	bx	lr

000b61cc <_ZN5spark16JSONStreamWriterD1Ev>:
class JSONStreamWriter: public JSONWriter {
   b61cc:	4770      	bx	lr

000b61ce <_ZN12_GLOBAL__N_119nextSubcategoryNameERPKcRj>:
const char* nextSubcategoryName(const char* &category, size_t &size) {
   b61ce:	b538      	push	{r3, r4, r5, lr}
   b61d0:	4604      	mov	r4, r0
   b61d2:	460d      	mov	r5, r1
    const char *s = strchrnul(category, '.');
   b61d4:	6800      	ldr	r0, [r0, #0]
   b61d6:	212e      	movs	r1, #46	; 0x2e
   b61d8:	f002 fa33 	bl	b8642 <strchrnul>
    size = s - category;
   b61dc:	6823      	ldr	r3, [r4, #0]
   b61de:	1ac3      	subs	r3, r0, r3
   b61e0:	602b      	str	r3, [r5, #0]
    if (size) {
   b61e2:	b123      	cbz	r3, b61ee <_ZN12_GLOBAL__N_119nextSubcategoryNameERPKcRj+0x20>
        if (*s) {
   b61e4:	7803      	ldrb	r3, [r0, #0]
   b61e6:	b103      	cbz	r3, b61ea <_ZN12_GLOBAL__N_119nextSubcategoryNameERPKcRj+0x1c>
            ++s;
   b61e8:	3001      	adds	r0, #1
      __a = _GLIBCXX_MOVE(__b);
   b61ea:	6823      	ldr	r3, [r4, #0]
      __b = _GLIBCXX_MOVE(__tmp);
   b61ec:	6020      	str	r0, [r4, #0]
}
   b61ee:	4618      	mov	r0, r3
   b61f0:	bd38      	pop	{r3, r4, r5, pc}

000b61f2 <_ZN5spark16JSONStreamWriterD0Ev>:
   b61f2:	b510      	push	{r4, lr}
   b61f4:	210c      	movs	r1, #12
   b61f6:	4604      	mov	r4, r0
   b61f8:	f7fd ff63 	bl	b40c2 <_ZdlPvj>
   b61fc:	4620      	mov	r0, r4
   b61fe:	bd10      	pop	{r4, pc}

000b6200 <_ZN5spark24DefaultLogHandlerFactoryD0Ev>:
   b6200:	b510      	push	{r4, lr}
   b6202:	2104      	movs	r1, #4
   b6204:	4604      	mov	r4, r0
   b6206:	f7fd ff5c 	bl	b40c2 <_ZdlPvj>
   b620a:	4620      	mov	r0, r4
   b620c:	bd10      	pop	{r4, pc}

000b620e <_ZN5spark26DefaultOutputStreamFactoryD0Ev>:
class DefaultOutputStreamFactory: public OutputStreamFactory {
   b620e:	b510      	push	{r4, lr}
   b6210:	2104      	movs	r1, #4
   b6212:	4604      	mov	r4, r0
   b6214:	f7fd ff55 	bl	b40c2 <_ZdlPvj>
   b6218:	4620      	mov	r0, r4
   b621a:	bd10      	pop	{r4, pc}

000b621c <_ZN14RecursiveMutex4lockEv.isra.0>:
    void lock() { os_mutex_recursive_lock(handle_); }
   b621c:	f7fe bcd2 	b.w	b4bc4 <os_mutex_recursive_lock>

000b6220 <_ZNK5spark10JSONStringeqEPKc.isra.0>:
inline bool spark::JSONString::operator==(const char *str) const {
   b6220:	b508      	push	{r3, lr}
    return strcmp(s_, str) == 0;
   b6222:	f7fd fefb 	bl	b401c <strcmp>
}
   b6226:	fab0 f080 	clz	r0, r0
   b622a:	0940      	lsrs	r0, r0, #5
   b622c:	bd08      	pop	{r3, pc}

000b622e <__tcf_1>:
   b622e:	4770      	bx	lr

000b6230 <_ZN5spark26DefaultOutputStreamFactory13destroyStreamEP5Print>:
    }
#endif // PLATFORM_ID != PLATFORM_GCC
    return nullptr;
}

void spark::DefaultOutputStreamFactory::destroyStream(Print *stream) {
   b6230:	b510      	push	{r4, lr}
   b6232:	460c      	mov	r4, r1
#if PLATFORM_ID != PLATFORM_GCC
    if (stream == &Serial) {
   b6234:	f001 f92c 	bl	b7490 <_Z16_fetch_usbserialv>
   b6238:	4284      	cmp	r4, r0
   b623a:	d010      	beq.n	b625e <_ZN5spark26DefaultOutputStreamFactory13destroyStreamEP5Print+0x2e>
    if (stream == &USBSerial1) {
        USBSerial1.end();
        return;
    }
#endif
    if (stream == &Serial1) {
   b623c:	f001 fffa 	bl	b8234 <_Z22__fetch_global_Serial1v>
   b6240:	4284      	cmp	r4, r0
   b6242:	d105      	bne.n	b6250 <_ZN5spark26DefaultOutputStreamFactory13destroyStreamEP5Print+0x20>
        Serial1.end();
   b6244:	f001 fff6 	bl	b8234 <_Z22__fetch_global_Serial1v>
        return;
    }
#endif // PLATFORM_ID != PLATFORM_GCC
    OutputStreamFactory::destroyStream(stream);
}
   b6248:	e8bd 4010 	ldmia.w	sp!, {r4, lr}
        Serial1.end();
   b624c:	f001 b99f 	b.w	b758e <_ZN11USARTSerial3endEv>

// spark::OutputStreamFactory
inline void spark::OutputStreamFactory::destroyStream(Print *stream) {
    delete stream;
   b6250:	b12c      	cbz	r4, b625e <_ZN5spark26DefaultOutputStreamFactory13destroyStreamEP5Print+0x2e>
   b6252:	6823      	ldr	r3, [r4, #0]
   b6254:	4620      	mov	r0, r4
   b6256:	685b      	ldr	r3, [r3, #4]
}
   b6258:	e8bd 4010 	ldmia.w	sp!, {r4, lr}
   b625c:	4718      	bx	r3
   b625e:	bd10      	pop	{r4, pc}

000b6260 <_ZNSt12__shared_ptrIN5spark6detail8JSONDataELN9__gnu_cxx12_Lock_policyE0EEC1ERKS5_>:
      __shared_ptr(const __shared_ptr&) noexcept = default;
   b6260:	680b      	ldr	r3, [r1, #0]
   b6262:	6003      	str	r3, [r0, #0]
      : _M_pi(__r._M_pi)
   b6264:	684b      	ldr	r3, [r1, #4]
   b6266:	6043      	str	r3, [r0, #4]
	if (_M_pi != 0)
   b6268:	b113      	cbz	r3, b6270 <_ZNSt12__shared_ptrIN5spark6detail8JSONDataELN9__gnu_cxx12_Lock_policyE0EEC1ERKS5_+0x10>
    { ++_M_use_count; }
   b626a:	685a      	ldr	r2, [r3, #4]
   b626c:	3201      	adds	r2, #1
   b626e:	605a      	str	r2, [r3, #4]
      __shared_ptr(const __shared_ptr&) noexcept = default;
   b6270:	4770      	bx	lr

000b6272 <_ZN5spark10JSONWriter5valueEPKc>:
inline spark::JSONWriter& spark::JSONWriter::value(const char *val) {
   b6272:	b513      	push	{r0, r1, r4, lr}
   b6274:	4604      	mov	r4, r0
    return value(val, strlen(val));
   b6276:	4608      	mov	r0, r1
   b6278:	9101      	str	r1, [sp, #4]
   b627a:	f7fd fed9 	bl	b4030 <strlen>
   b627e:	9901      	ldr	r1, [sp, #4]
   b6280:	4602      	mov	r2, r0
   b6282:	4620      	mov	r0, r4
}
   b6284:	b002      	add	sp, #8
   b6286:	e8bd 4010 	ldmia.w	sp!, {r4, lr}
    return value(val, strlen(val));
   b628a:	f001 bf51 	b.w	b8130 <_ZN5spark10JSONWriter5valueEPKcj>

000b628e <_ZN5spark16StreamLogHandler5writeEPKc>:
inline void spark::StreamLogHandler::write(const char *str) {
   b628e:	b513      	push	{r0, r1, r4, lr}
   b6290:	4604      	mov	r4, r0
    write(str, strlen(str));
   b6292:	4608      	mov	r0, r1
   b6294:	9101      	str	r1, [sp, #4]
   b6296:	f7fd fecb 	bl	b4030 <strlen>
   b629a:	6823      	ldr	r3, [r4, #0]
   b629c:	9901      	ldr	r1, [sp, #4]
   b629e:	68db      	ldr	r3, [r3, #12]
   b62a0:	4602      	mov	r2, r0
   b62a2:	4620      	mov	r0, r4
}
   b62a4:	b002      	add	sp, #8
   b62a6:	e8bd 4010 	ldmia.w	sp!, {r4, lr}
    write(str, strlen(str));
   b62aa:	4718      	bx	r3

000b62ac <_ZN5spark16StreamLogHandler5writeEc>:
inline void spark::StreamLogHandler::write(char c) {
   b62ac:	b507      	push	{r0, r1, r2, lr}
    write(&c, 1);
   b62ae:	6803      	ldr	r3, [r0, #0]
inline void spark::StreamLogHandler::write(char c) {
   b62b0:	f88d 1007 	strb.w	r1, [sp, #7]
    write(&c, 1);
   b62b4:	68db      	ldr	r3, [r3, #12]
   b62b6:	2201      	movs	r2, #1
   b62b8:	f10d 0107 	add.w	r1, sp, #7
   b62bc:	4798      	blx	r3
}
   b62be:	b003      	add	sp, #12
   b62c0:	f85d fb04 	ldr.w	pc, [sp], #4

000b62c4 <_ZN5spark6detail9LogFilter4NodeC1EOS2_>:
struct spark::detail::LogFilter::Node {
   b62c4:	680a      	ldr	r2, [r1, #0]
   b62c6:	6002      	str	r2, [r0, #0]
   b62c8:	684a      	ldr	r2, [r1, #4]
   b62ca:	6042      	str	r2, [r0, #4]
        capacity_(0) {
   b62cc:	2200      	movs	r2, #0
   b62ce:	e9c0 2202 	strd	r2, r2, [r0, #8]
   b62d2:	b510      	push	{r4, lr}
   b62d4:	6102      	str	r2, [r0, #16]
      __a = _GLIBCXX_MOVE(__b);
   b62d6:	688c      	ldr	r4, [r1, #8]
   b62d8:	6084      	str	r4, [r0, #8]
   b62da:	68cc      	ldr	r4, [r1, #12]
   b62dc:	60c4      	str	r4, [r0, #12]
   b62de:	690c      	ldr	r4, [r1, #16]
      __b = _GLIBCXX_MOVE(__tmp);
   b62e0:	608a      	str	r2, [r1, #8]
   b62e2:	60ca      	str	r2, [r1, #12]
      __a = _GLIBCXX_MOVE(__b);
   b62e4:	6104      	str	r4, [r0, #16]
      __b = _GLIBCXX_MOVE(__tmp);
   b62e6:	610a      	str	r2, [r1, #16]
   b62e8:	bd10      	pop	{r4, pc}
	...

000b62ec <_ZN5spark6detail9LogFilter9nodeIndexERKNS_6VectorINS1_4NodeENS_16DefaultAllocatorEEEPKcjRb>:
int spark::detail::LogFilter::nodeIndex(const Vector<Node> &nodes, const char *name, size_t size, bool &found) {
   b62ec:	e92d 4ff7 	stmdb	sp!, {r0, r1, r2, r4, r5, r6, r7, r8, r9, sl, fp, lr}
}

template<typename T, typename AllocatorT>
const T* spark::Vector<T, AllocatorT>::end() const {
    return data_ + size_;
   b62f0:	e9d0 8400 	ldrd	r8, r4, [r0]
   b62f4:	f04f 0a14 	mov.w	sl, #20
   b62f8:	9300      	str	r3, [sp, #0]
   b62fa:	fb0a f404 	mul.w	r4, sl, r4
               random_access_iterator_tag)
    {
      // concept requirements
      __glibcxx_function_requires(_RandomAccessIteratorConcept<
				  _RandomAccessIterator>)
      return __last - __first;
   b62fe:	4b18      	ldr	r3, [pc, #96]	; (b6360 <_ZN5spark6detail9LogFilter9nodeIndexERKNS_6VectorINS1_4NodeENS_16DefaultAllocatorEEEPKcjRb+0x74>)
   b6300:	10a4      	asrs	r4, r4, #2
   b6302:	4617      	mov	r7, r2
   b6304:	435c      	muls	r4, r3
   b6306:	4645      	mov	r5, r8
      typedef typename iterator_traits<_ForwardIterator>::difference_type
	_DistanceType;

      _DistanceType __len = std::distance(__first, __last);

      while (__len > 0)
   b6308:	2c00      	cmp	r4, #0
   b630a:	dd21      	ble.n	b6350 <_ZN5spark6detail9LogFilter9nodeIndexERKNS_6VectorINS1_4NodeENS_16DefaultAllocatorEEEPKcjRb+0x64>
	{
	  _DistanceType __half = __len >> 1;
   b630c:	1066      	asrs	r6, r4, #1
      if (__builtin_constant_p(__n) && __n == 1)
	++__i;
      else if (__builtin_constant_p(__n) && __n == -1)
	--__i;
      else
	__i += __n;
   b630e:	fb0a f006 	mul.w	r0, sl, r6
   b6312:	eb05 0900 	add.w	r9, r5, r0
                const int cmp = strncmp(node.name, value.first, std::min<size_t>(node.size, value.second));
   b6316:	463a      	mov	r2, r7
   b6318:	f8b9 b004 	ldrh.w	fp, [r9, #4]
   b631c:	5828      	ldr	r0, [r5, r0]
   b631e:	9101      	str	r1, [sp, #4]
   b6320:	455f      	cmp	r7, fp
   b6322:	bf28      	it	cs
   b6324:	465a      	movcs	r2, fp
   b6326:	f002 f99e 	bl	b8666 <strncmp>
                if (cmp == 0) {
   b632a:	2800      	cmp	r0, #0
   b632c:	9901      	ldr	r1, [sp, #4]
   b632e:	f04f 0301 	mov.w	r3, #1
   b6332:	d10b      	bne.n	b634c <_ZN5spark6detail9LogFilter9nodeIndexERKNS_6VectorINS1_4NodeENS_16DefaultAllocatorEEEPKcjRb+0x60>
                    if (node.size == value.second) { // Lengths are equal
   b6334:	455f      	cmp	r7, fp
   b6336:	d103      	bne.n	b6340 <_ZN5spark6detail9LogFilter9nodeIndexERKNS_6VectorINS1_4NodeENS_16DefaultAllocatorEEEPKcjRb+0x54>
                        found = true; // Allows caller code to avoid extra call to strncmp()
   b6338:	9a00      	ldr	r2, [sp, #0]
   b633a:	7013      	strb	r3, [r2, #0]
int spark::detail::LogFilter::nodeIndex(const Vector<Node> &nodes, const char *name, size_t size, bool &found) {
   b633c:	4634      	mov	r4, r6
   b633e:	e7e3      	b.n	b6308 <_ZN5spark6detail9LogFilter9nodeIndexERKNS_6VectorINS1_4NodeENS_16DefaultAllocatorEEEPKcjRb+0x1c>
	  _ForwardIterator __middle = __first;
	  std::advance(__middle, __half);
	  if (__comp(__middle, __val))
   b6340:	d9fc      	bls.n	b633c <_ZN5spark6detail9LogFilter9nodeIndexERKNS_6VectorINS1_4NodeENS_16DefaultAllocatorEEEPKcjRb+0x50>
	    {
	      __first = __middle;
	      ++__first;
	      __len = __len - __half - 1;
   b6342:	1ba6      	subs	r6, r4, r6
	      ++__first;
   b6344:	f109 0514 	add.w	r5, r9, #20
	      __len = __len - __half - 1;
   b6348:	3e01      	subs	r6, #1
   b634a:	e7f7      	b.n	b633c <_ZN5spark6detail9LogFilter9nodeIndexERKNS_6VectorINS1_4NodeENS_16DefaultAllocatorEEEPKcjRb+0x50>
	  if (__comp(__middle, __val))
   b634c:	dbf9      	blt.n	b6342 <_ZN5spark6detail9LogFilter9nodeIndexERKNS_6VectorINS1_4NodeENS_16DefaultAllocatorEEEPKcjRb+0x56>
   b634e:	e7f5      	b.n	b633c <_ZN5spark6detail9LogFilter9nodeIndexERKNS_6VectorINS1_4NodeENS_16DefaultAllocatorEEEPKcjRb+0x50>
      return __last - __first;
   b6350:	eba5 0508 	sub.w	r5, r5, r8
}
   b6354:	4802      	ldr	r0, [pc, #8]	; (b6360 <_ZN5spark6detail9LogFilter9nodeIndexERKNS_6VectorINS1_4NodeENS_16DefaultAllocatorEEEPKcjRb+0x74>)
   b6356:	10ad      	asrs	r5, r5, #2
   b6358:	4368      	muls	r0, r5
   b635a:	b003      	add	sp, #12
   b635c:	e8bd 8ff0 	ldmia.w	sp!, {r4, r5, r6, r7, r8, r9, sl, fp, pc}
   b6360:	cccccccd 	.word	0xcccccccd

000b6364 <_ZNK5spark6detail9LogFilter5levelEPKc>:
LogLevel spark::detail::LogFilter::level(const char *category) const {
   b6364:	b57f      	push	{r0, r1, r2, r3, r4, r5, r6, lr}
    if (!nodes_.isEmpty() && category) {
   b6366:	6903      	ldr	r3, [r0, #16]
    LogLevel level = level_; // Default level
   b6368:	7e05      	ldrb	r5, [r0, #24]
LogLevel spark::detail::LogFilter::level(const char *category) const {
   b636a:	9101      	str	r1, [sp, #4]
    if (!nodes_.isEmpty() && category) {
   b636c:	b303      	cbz	r3, b63b0 <_ZNK5spark6detail9LogFilter5levelEPKc+0x4c>
   b636e:	b1f9      	cbz	r1, b63b0 <_ZNK5spark6detail9LogFilter5levelEPKc+0x4c>
        size_t size = 0; // Name length
   b6370:	2600      	movs	r6, #0
        const Vector<Node> *pNodes = &nodes_; // Root nodes
   b6372:	f100 040c 	add.w	r4, r0, #12
        size_t size = 0; // Name length
   b6376:	9603      	str	r6, [sp, #12]
        while ((name = nextSubcategoryName(category, size))) {
   b6378:	a903      	add	r1, sp, #12
   b637a:	a801      	add	r0, sp, #4
   b637c:	f7ff ff27 	bl	b61ce <_ZN12_GLOBAL__N_119nextSubcategoryNameERPKcRj>
   b6380:	4601      	mov	r1, r0
   b6382:	b1a8      	cbz	r0, b63b0 <_ZNK5spark6detail9LogFilter5levelEPKc+0x4c>
            const int index = nodeIndex(*pNodes, name, size, found);
   b6384:	f10d 030b 	add.w	r3, sp, #11
   b6388:	9a03      	ldr	r2, [sp, #12]
            bool found = false;
   b638a:	f88d 600b 	strb.w	r6, [sp, #11]
            const int index = nodeIndex(*pNodes, name, size, found);
   b638e:	4620      	mov	r0, r4
   b6390:	f7ff ffac 	bl	b62ec <_ZN5spark6detail9LogFilter9nodeIndexERKNS_6VectorINS1_4NodeENS_16DefaultAllocatorEEEPKcjRb>
            if (!found) {
   b6394:	f89d 300b 	ldrb.w	r3, [sp, #11]
   b6398:	b153      	cbz	r3, b63b0 <_ZNK5spark6detail9LogFilter5levelEPKc+0x4c>
    return data_[i];
   b639a:	6823      	ldr	r3, [r4, #0]
   b639c:	2414      	movs	r4, #20
   b639e:	fb04 3400 	mla	r4, r4, r0, r3
            pNodes = &node.nodes;
   b63a2:	3408      	adds	r4, #8
            if (node.level >= 0) {
   b63a4:	f934 3c02 	ldrsh.w	r3, [r4, #-2]
   b63a8:	2b00      	cmp	r3, #0
                level = (LogLevel)node.level;
   b63aa:	bfa8      	it	ge
   b63ac:	b2dd      	uxtbge	r5, r3
        while ((name = nextSubcategoryName(category, size))) {
   b63ae:	e7e3      	b.n	b6378 <_ZNK5spark6detail9LogFilter5levelEPKc+0x14>
}
   b63b0:	4628      	mov	r0, r5
   b63b2:	b004      	add	sp, #16
   b63b4:	bd70      	pop	{r4, r5, r6, pc}

000b63b6 <_ZN5spark16StreamLogHandler6printfEPKcz>:
void spark::StreamLogHandler::printf(const char *fmt, ...) {
   b63b6:	b40e      	push	{r1, r2, r3}
   b63b8:	b5f0      	push	{r4, r5, r6, r7, lr}
   b63ba:	b08c      	sub	sp, #48	; 0x30
   b63bc:	af00      	add	r7, sp, #0
   b63be:	f107 0544 	add.w	r5, r7, #68	; 0x44
   b63c2:	4604      	mov	r4, r0
   b63c4:	f855 2b04 	ldr.w	r2, [r5], #4
    int n = vsnprintf(buf, sizeof(buf), fmt, args);
   b63c8:	607a      	str	r2, [r7, #4]
   b63ca:	462b      	mov	r3, r5
   b63cc:	2120      	movs	r1, #32
   b63ce:	f107 0010 	add.w	r0, r7, #16
    va_start(args, fmt);
   b63d2:	60fd      	str	r5, [r7, #12]
    int n = vsnprintf(buf, sizeof(buf), fmt, args);
   b63d4:	f7fe fe2a 	bl	b502c <vsnprintf>
    if ((size_t)n >= sizeof(buf)) {
   b63d8:	281f      	cmp	r0, #31
   b63da:	687a      	ldr	r2, [r7, #4]
   b63dc:	d91a      	bls.n	b6414 <_ZN5spark16StreamLogHandler6printfEPKcz+0x5e>
        char buf[n + 1]; // Use a larger buffer
   b63de:	f100 0308 	add.w	r3, r0, #8
   b63e2:	f023 0307 	bic.w	r3, r3, #7
        }
   b63e6:	466e      	mov	r6, sp
        char buf[n + 1]; // Use a larger buffer
   b63e8:	ebad 0d03 	sub.w	sp, sp, r3
        n = vsnprintf(buf, sizeof(buf), fmt, args);
   b63ec:	1c41      	adds	r1, r0, #1
   b63ee:	462b      	mov	r3, r5
   b63f0:	4668      	mov	r0, sp
        va_start(args, fmt);
   b63f2:	60fd      	str	r5, [r7, #12]
        n = vsnprintf(buf, sizeof(buf), fmt, args);
   b63f4:	f7fe fe1a 	bl	b502c <vsnprintf>
        if (n > 0) {
   b63f8:	1e02      	subs	r2, r0, #0
   b63fa:	dd04      	ble.n	b6406 <_ZN5spark16StreamLogHandler6printfEPKcz+0x50>
            write(buf, n);
   b63fc:	6823      	ldr	r3, [r4, #0]
   b63fe:	4669      	mov	r1, sp
   b6400:	68db      	ldr	r3, [r3, #12]
   b6402:	4620      	mov	r0, r4
   b6404:	4798      	blx	r3
   b6406:	46b5      	mov	sp, r6
}
   b6408:	3730      	adds	r7, #48	; 0x30
   b640a:	46bd      	mov	sp, r7
   b640c:	e8bd 40f0 	ldmia.w	sp!, {r4, r5, r6, r7, lr}
   b6410:	b003      	add	sp, #12
   b6412:	4770      	bx	lr
    } else if (n > 0) {
   b6414:	2800      	cmp	r0, #0
   b6416:	d0f7      	beq.n	b6408 <_ZN5spark16StreamLogHandler6printfEPKcz+0x52>
        write(buf, n);
   b6418:	6823      	ldr	r3, [r4, #0]
   b641a:	4602      	mov	r2, r0
   b641c:	68db      	ldr	r3, [r3, #12]
   b641e:	f107 0110 	add.w	r1, r7, #16
   b6422:	4620      	mov	r0, r4
   b6424:	4798      	blx	r3
}
   b6426:	e7ef      	b.n	b6408 <_ZN5spark16StreamLogHandler6printfEPKcz+0x52>

000b6428 <_ZN5spark24DefaultLogHandlerFactory8instanceEv>:
spark::DefaultLogHandlerFactory* spark::DefaultLogHandlerFactory::instance() {
   b6428:	b510      	push	{r4, lr}
    static DefaultLogHandlerFactory factory;
   b642a:	4c09      	ldr	r4, [pc, #36]	; (b6450 <_ZN5spark24DefaultLogHandlerFactory8instanceEv+0x28>)
   b642c:	7823      	ldrb	r3, [r4, #0]
   b642e:	f3bf 8f5b 	dmb	ish
   b6432:	07db      	lsls	r3, r3, #31
   b6434:	d409      	bmi.n	b644a <_ZN5spark24DefaultLogHandlerFactory8instanceEv+0x22>
   b6436:	4620      	mov	r0, r4
   b6438:	f7fd fe52 	bl	b40e0 <__cxa_guard_acquire>
   b643c:	b128      	cbz	r0, b644a <_ZN5spark24DefaultLogHandlerFactory8instanceEv+0x22>
   b643e:	4620      	mov	r0, r4
   b6440:	f7fd fe53 	bl	b40ea <__cxa_guard_release>
   b6444:	4803      	ldr	r0, [pc, #12]	; (b6454 <_ZN5spark24DefaultLogHandlerFactory8instanceEv+0x2c>)
   b6446:	f002 f873 	bl	b8530 <atexit>
}
   b644a:	4803      	ldr	r0, [pc, #12]	; (b6458 <_ZN5spark24DefaultLogHandlerFactory8instanceEv+0x30>)
   b644c:	bd10      	pop	{r4, pc}
   b644e:	bf00      	nop
   b6450:	2003e6b0 	.word	0x2003e6b0
   b6454:	000b61c7 	.word	0x000b61c7
   b6458:	2003e548 	.word	0x2003e548

000b645c <_ZN5spark26DefaultOutputStreamFactory8instanceEv>:

spark::DefaultOutputStreamFactory* spark::DefaultOutputStreamFactory::instance() {
   b645c:	b510      	push	{r4, lr}
    static DefaultOutputStreamFactory factory;
   b645e:	4c09      	ldr	r4, [pc, #36]	; (b6484 <_ZN5spark26DefaultOutputStreamFactory8instanceEv+0x28>)
   b6460:	7823      	ldrb	r3, [r4, #0]
   b6462:	f3bf 8f5b 	dmb	ish
   b6466:	07db      	lsls	r3, r3, #31
   b6468:	d409      	bmi.n	b647e <_ZN5spark26DefaultOutputStreamFactory8instanceEv+0x22>
   b646a:	4620      	mov	r0, r4
   b646c:	f7fd fe38 	bl	b40e0 <__cxa_guard_acquire>
   b6470:	b128      	cbz	r0, b647e <_ZN5spark26DefaultOutputStreamFactory8instanceEv+0x22>
   b6472:	4620      	mov	r0, r4
   b6474:	f7fd fe39 	bl	b40ea <__cxa_guard_release>
   b6478:	4803      	ldr	r0, [pc, #12]	; (b6488 <_ZN5spark26DefaultOutputStreamFactory8instanceEv+0x2c>)
   b647a:	f002 f859 	bl	b8530 <atexit>
    return &factory;
}
   b647e:	4803      	ldr	r0, [pc, #12]	; (b648c <_ZN5spark26DefaultOutputStreamFactory8instanceEv+0x30>)
   b6480:	bd10      	pop	{r4, pc}
   b6482:	bf00      	nop
   b6484:	2003e6b4 	.word	0x2003e6b4
   b6488:	000b622f 	.word	0x000b622f
   b648c:	2003e54c 	.word	0x2003e54c

000b6490 <_ZN5spark10LogManagerC1Ev>:
    Print *stream;
};

#endif // Wiring_LogConfig

spark::LogManager::LogManager() {
   b6490:	b538      	push	{r3, r4, r5, lr}
        capacity_(0) {
   b6492:	2500      	movs	r5, #0
   b6494:	4604      	mov	r4, r0
   b6496:	e9c0 5500 	strd	r5, r5, [r0]
   b649a:	e9c0 5504 	strd	r5, r5, [r0, #16]
   b649e:	6085      	str	r5, [r0, #8]
   b64a0:	6185      	str	r5, [r0, #24]
    RecursiveMutex() : handle_(nullptr)
   b64a2:	f840 5f24 	str.w	r5, [r0, #36]!
        os_mutex_recursive_create(&handle_);
   b64a6:	f7fe fb7d 	bl	b4ba4 <os_mutex_recursive_create>
#if Wiring_LogConfig
    handlerFactory_ = DefaultLogHandlerFactory::instance();
   b64aa:	f7ff ffbd 	bl	b6428 <_ZN5spark24DefaultLogHandlerFactory8instanceEv>
   b64ae:	61e0      	str	r0, [r4, #28]
    streamFactory_ = DefaultOutputStreamFactory::instance();
   b64b0:	f7ff ffd4 	bl	b645c <_ZN5spark26DefaultOutputStreamFactory8instanceEv>
#endif
    outputActive_ = false;
   b64b4:	7325      	strb	r5, [r4, #12]
    streamFactory_ = DefaultOutputStreamFactory::instance();
   b64b6:	6220      	str	r0, [r4, #32]
}
   b64b8:	4620      	mov	r0, r4
   b64ba:	bd38      	pop	{r3, r4, r5, pc}

000b64bc <_ZN5spark10LogManager8instanceEv>:
            resetSystemCallbacks();
        }
    }
}

spark::LogManager* spark::LogManager::instance() {
   b64bc:	b510      	push	{r4, lr}
    static LogManager mgr;
   b64be:	4c0a      	ldr	r4, [pc, #40]	; (b64e8 <_ZN5spark10LogManager8instanceEv+0x2c>)
   b64c0:	7823      	ldrb	r3, [r4, #0]
   b64c2:	f3bf 8f5b 	dmb	ish
   b64c6:	07db      	lsls	r3, r3, #31
   b64c8:	d40c      	bmi.n	b64e4 <_ZN5spark10LogManager8instanceEv+0x28>
   b64ca:	4620      	mov	r0, r4
   b64cc:	f7fd fe08 	bl	b40e0 <__cxa_guard_acquire>
   b64d0:	b140      	cbz	r0, b64e4 <_ZN5spark10LogManager8instanceEv+0x28>
   b64d2:	4806      	ldr	r0, [pc, #24]	; (b64ec <_ZN5spark10LogManager8instanceEv+0x30>)
   b64d4:	f7ff ffdc 	bl	b6490 <_ZN5spark10LogManagerC1Ev>
   b64d8:	4620      	mov	r0, r4
   b64da:	f7fd fe06 	bl	b40ea <__cxa_guard_release>
   b64de:	4804      	ldr	r0, [pc, #16]	; (b64f0 <_ZN5spark10LogManager8instanceEv+0x34>)
   b64e0:	f002 f826 	bl	b8530 <atexit>
    return &mgr;
}
   b64e4:	4801      	ldr	r0, [pc, #4]	; (b64ec <_ZN5spark10LogManager8instanceEv+0x30>)
   b64e6:	bd10      	pop	{r4, pc}
   b64e8:	2003e6ac 	.word	0x2003e6ac
   b64ec:	2003e6bc 	.word	0x2003e6bc
   b64f0:	000b6a11 	.word	0x000b6a11

000b64f4 <_ZN5spark10LogManager18setSystemCallbacksEv>:
}

#endif // Wiring_LogConfig

void spark::LogManager::setSystemCallbacks() {
    log_set_callbacks(logMessage, logWrite, logEnabled, nullptr);
   b64f4:	4a02      	ldr	r2, [pc, #8]	; (b6500 <_ZN5spark10LogManager18setSystemCallbacksEv+0xc>)
   b64f6:	4903      	ldr	r1, [pc, #12]	; (b6504 <_ZN5spark10LogManager18setSystemCallbacksEv+0x10>)
   b64f8:	4803      	ldr	r0, [pc, #12]	; (b6508 <_ZN5spark10LogManager18setSystemCallbacksEv+0x14>)
   b64fa:	2300      	movs	r3, #0
   b64fc:	f7fe bce2 	b.w	b4ec4 <log_set_callbacks>
   b6500:	000b67f5 	.word	0x000b67f5
   b6504:	000b6781 	.word	0x000b6781
   b6508:	000b6701 	.word	0x000b6701

000b650c <_ZN5spark10LogManager20resetSystemCallbacksEv>:
}

void spark::LogManager::resetSystemCallbacks() {
    log_set_callbacks(nullptr, nullptr, nullptr, nullptr);
   b650c:	2300      	movs	r3, #0
   b650e:	461a      	mov	r2, r3
   b6510:	4619      	mov	r1, r3
   b6512:	4618      	mov	r0, r3
   b6514:	f7fe bcd6 	b.w	b4ec4 <log_set_callbacks>

000b6518 <_ZN5spark18JSONObjectIteratorC1ERKNS_9JSONValueE>:
inline spark::JSONObjectIterator::JSONObjectIterator(const JSONValue &value) :
   b6518:	b537      	push	{r0, r1, r2, r4, r5, lr}
        JSONObjectIterator(value.t_, value.d_) {
   b651a:	688d      	ldr	r5, [r1, #8]
inline spark::JSONObjectIterator::JSONObjectIterator(const JSONValue &value) :
   b651c:	4604      	mov	r4, r0
   b651e:	4668      	mov	r0, sp
   b6520:	f7ff fe9e 	bl	b6260 <_ZNSt12__shared_ptrIN5spark6detail8JSONDataELN9__gnu_cxx12_Lock_policyE0EEC1ERKS5_>
        JSONObjectIterator(value.t_, value.d_) {
   b6524:	466a      	mov	r2, sp
   b6526:	4629      	mov	r1, r5
   b6528:	4620      	mov	r0, r4
   b652a:	f001 fd21 	bl	b7f70 <_ZN5spark18JSONObjectIteratorC1EPK9jsmntok_tSt10shared_ptrINS_6detail8JSONDataEE>
      ~__shared_ptr() = default;
   b652e:	a801      	add	r0, sp, #4
   b6530:	f7ff fa87 	bl	b5a42 <_ZNSt14__shared_countILN9__gnu_cxx12_Lock_policyE0EED1Ev>
}
   b6534:	4620      	mov	r0, r4
   b6536:	b003      	add	sp, #12
   b6538:	bd30      	pop	{r4, r5, pc}

000b653a <_ZNK5spark18JSONObjectIterator4nameEv>:
inline spark::JSONString spark::JSONObjectIterator::name() const {
   b653a:	b537      	push	{r0, r1, r2, r4, r5, lr}
    return JSONString(k_, d_);
   b653c:	68cd      	ldr	r5, [r1, #12]
inline spark::JSONString spark::JSONObjectIterator::name() const {
   b653e:	4604      	mov	r4, r0
   b6540:	4668      	mov	r0, sp
   b6542:	f7ff fe8d 	bl	b6260 <_ZNSt12__shared_ptrIN5spark6detail8JSONDataELN9__gnu_cxx12_Lock_policyE0EEC1ERKS5_>
    return JSONString(k_, d_);
   b6546:	466a      	mov	r2, sp
   b6548:	4629      	mov	r1, r5
   b654a:	4620      	mov	r0, r4
   b654c:	f001 fcec 	bl	b7f28 <_ZN5spark10JSONStringC1EPK9jsmntok_tSt10shared_ptrINS_6detail8JSONDataEE>
   b6550:	a801      	add	r0, sp, #4
   b6552:	f7ff fa76 	bl	b5a42 <_ZNSt14__shared_countILN9__gnu_cxx12_Lock_policyE0EED1Ev>
}
   b6556:	4620      	mov	r0, r4
   b6558:	b003      	add	sp, #12
   b655a:	bd30      	pop	{r4, r5, pc}

000b655c <_ZNK5spark18JSONObjectIterator5valueEv>:
inline spark::JSONValue spark::JSONObjectIterator::value() const {
   b655c:	b537      	push	{r0, r1, r2, r4, r5, lr}
    return JSONValue(v_, d_);
   b655e:	690d      	ldr	r5, [r1, #16]
inline spark::JSONValue spark::JSONObjectIterator::value() const {
   b6560:	4604      	mov	r4, r0
   b6562:	4668      	mov	r0, sp
   b6564:	f7ff fe7c 	bl	b6260 <_ZNSt12__shared_ptrIN5spark6detail8JSONDataELN9__gnu_cxx12_Lock_policyE0EEC1ERKS5_>
    return JSONValue(v_, d_);
   b6568:	466a      	mov	r2, sp
   b656a:	4629      	mov	r1, r5
   b656c:	4620      	mov	r0, r4
   b656e:	f001 fc84 	bl	b7e7a <_ZN5spark9JSONValueC1EPK9jsmntok_tSt10shared_ptrINS_6detail8JSONDataEE>
   b6572:	a801      	add	r0, sp, #4
   b6574:	f7ff fa65 	bl	b5a42 <_ZNSt14__shared_countILN9__gnu_cxx12_Lock_policyE0EED1Ev>
}
   b6578:	4620      	mov	r0, r4
   b657a:	b003      	add	sp, #12
   b657c:	bd30      	pop	{r4, r5, pc}
	...

000b6580 <_ZN5spark26DefaultOutputStreamFactory9getParamsERKNS_9JSONValueEPi>:
void spark::DefaultOutputStreamFactory::getParams(const JSONValue &params, int *baudRate) {
   b6580:	b570      	push	{r4, r5, r6, lr}
   b6582:	b08a      	sub	sp, #40	; 0x28
   b6584:	460d      	mov	r5, r1
    JSONObjectIterator it(params);
   b6586:	4601      	mov	r1, r0
   b6588:	a804      	add	r0, sp, #16
   b658a:	f7ff ffc5 	bl	b6518 <_ZN5spark18JSONObjectIteratorC1ERKNS_9JSONValueE>
        if (it.name() == "baud" && baudRate) {
   b658e:	4e14      	ldr	r6, [pc, #80]	; (b65e0 <_ZN5spark26DefaultOutputStreamFactory9getParamsERKNS_9JSONValueEPi+0x60>)
    while (it.next()) {
   b6590:	a804      	add	r0, sp, #16
   b6592:	f001 fd05 	bl	b7fa0 <_ZN5spark18JSONObjectIterator4nextEv>
   b6596:	b1e8      	cbz	r0, b65d4 <_ZN5spark26DefaultOutputStreamFactory9getParamsERKNS_9JSONValueEPi+0x54>
        if (it.name() == "baud" && baudRate) {
   b6598:	a904      	add	r1, sp, #16
   b659a:	4668      	mov	r0, sp
   b659c:	f7ff ffcd 	bl	b653a <_ZNK5spark18JSONObjectIterator4nameEv>
   b65a0:	9802      	ldr	r0, [sp, #8]
   b65a2:	4631      	mov	r1, r6
   b65a4:	f7ff fe3c 	bl	b6220 <_ZNK5spark10JSONStringeqEPKc.isra.0>
   b65a8:	4604      	mov	r4, r0
   b65aa:	b110      	cbz	r0, b65b2 <_ZN5spark26DefaultOutputStreamFactory9getParamsERKNS_9JSONValueEPi+0x32>
   b65ac:	1e2c      	subs	r4, r5, #0
   b65ae:	bf18      	it	ne
   b65b0:	2401      	movne	r4, #1
   b65b2:	a801      	add	r0, sp, #4
   b65b4:	f7ff fa45 	bl	b5a42 <_ZNSt14__shared_countILN9__gnu_cxx12_Lock_policyE0EED1Ev>
   b65b8:	2c00      	cmp	r4, #0
   b65ba:	d0e9      	beq.n	b6590 <_ZN5spark26DefaultOutputStreamFactory9getParamsERKNS_9JSONValueEPi+0x10>
            *baudRate = it.value().toInt();
   b65bc:	a904      	add	r1, sp, #16
   b65be:	4668      	mov	r0, sp
   b65c0:	f7ff ffcc 	bl	b655c <_ZNK5spark18JSONObjectIterator5valueEv>
   b65c4:	4668      	mov	r0, sp
   b65c6:	f001 fc8e 	bl	b7ee6 <_ZNK5spark9JSONValue5toIntEv>
   b65ca:	6028      	str	r0, [r5, #0]
   b65cc:	a801      	add	r0, sp, #4
   b65ce:	f7ff fa38 	bl	b5a42 <_ZNSt14__shared_countILN9__gnu_cxx12_Lock_policyE0EED1Ev>
   b65d2:	e7dd      	b.n	b6590 <_ZN5spark26DefaultOutputStreamFactory9getParamsERKNS_9JSONValueEPi+0x10>
   b65d4:	a805      	add	r0, sp, #20
   b65d6:	f7ff fa34 	bl	b5a42 <_ZNSt14__shared_countILN9__gnu_cxx12_Lock_policyE0EED1Ev>
}
   b65da:	b00a      	add	sp, #40	; 0x28
   b65dc:	bd70      	pop	{r4, r5, r6, pc}
   b65de:	bf00      	nop
   b65e0:	000b8b74 	.word	0x000b8b74

000b65e4 <_ZN5spark26DefaultOutputStreamFactory12createStreamEPKcRKNS_9JSONValueE>:
Print* spark::DefaultOutputStreamFactory::createStream(const char *type, const JSONValue &params) {
   b65e4:	b537      	push	{r0, r1, r2, r4, r5, lr}
   b65e6:	460c      	mov	r4, r1
    if (strcmp(type, "Serial") == 0) {
   b65e8:	4620      	mov	r0, r4
   b65ea:	4913      	ldr	r1, [pc, #76]	; (b6638 <_ZN5spark26DefaultOutputStreamFactory12createStreamEPKcRKNS_9JSONValueE+0x54>)
Print* spark::DefaultOutputStreamFactory::createStream(const char *type, const JSONValue &params) {
   b65ec:	4615      	mov	r5, r2
    if (strcmp(type, "Serial") == 0) {
   b65ee:	f7fd fd15 	bl	b401c <strcmp>
   b65f2:	b950      	cbnz	r0, b660a <_ZN5spark26DefaultOutputStreamFactory12createStreamEPKcRKNS_9JSONValueE+0x26>
        Serial.begin();
   b65f4:	f000 ff4c 	bl	b7490 <_Z16_fetch_usbserialv>
   b65f8:	f44f 5116 	mov.w	r1, #9600	; 0x2580
   b65fc:	f000 ff38 	bl	b7470 <_ZN9USBSerial5beginEl>
}
   b6600:	b003      	add	sp, #12
   b6602:	e8bd 4030 	ldmia.w	sp!, {r4, r5, lr}
        return &Serial;
   b6606:	f000 bf43 	b.w	b7490 <_Z16_fetch_usbserialv>
    if (strcmp(type, "Serial1") == 0) {
   b660a:	490c      	ldr	r1, [pc, #48]	; (b663c <_ZN5spark26DefaultOutputStreamFactory12createStreamEPKcRKNS_9JSONValueE+0x58>)
   b660c:	4620      	mov	r0, r4
   b660e:	f7fd fd05 	bl	b401c <strcmp>
   b6612:	b978      	cbnz	r0, b6634 <_ZN5spark26DefaultOutputStreamFactory12createStreamEPKcRKNS_9JSONValueE+0x50>
        int baud = 9600;
   b6614:	f44f 5316 	mov.w	r3, #9600	; 0x2580
        getParams(params, &baud);
   b6618:	a901      	add	r1, sp, #4
   b661a:	4628      	mov	r0, r5
        int baud = 9600;
   b661c:	9301      	str	r3, [sp, #4]
        getParams(params, &baud);
   b661e:	f7ff ffaf 	bl	b6580 <_ZN5spark26DefaultOutputStreamFactory9getParamsERKNS_9JSONValueEPi>
        Serial1.begin(baud);
   b6622:	f001 fe07 	bl	b8234 <_Z22__fetch_global_Serial1v>
   b6626:	9901      	ldr	r1, [sp, #4]
   b6628:	f000 ffae 	bl	b7588 <_ZN11USARTSerial5beginEm>
        return &Serial1;
   b662c:	f001 fe02 	bl	b8234 <_Z22__fetch_global_Serial1v>
}
   b6630:	b003      	add	sp, #12
   b6632:	bd30      	pop	{r4, r5, pc}
    return nullptr;
   b6634:	2000      	movs	r0, #0
   b6636:	e7fb      	b.n	b6630 <_ZN5spark26DefaultOutputStreamFactory12createStreamEPKcRKNS_9JSONValueE+0x4c>
   b6638:	000b8b79 	.word	0x000b8b79
   b663c:	000b8b80 	.word	0x000b8b80

000b6640 <_ZN5spark6VectorINS_6detail9LogFilter4NodeENS_16DefaultAllocatorEED1Ev>:
inline spark::Vector<T, AllocatorT>::~Vector() {
   b6640:	b570      	push	{r4, r5, r6, lr}
    destruct(data_, data_ + size_);
   b6642:	e9d0 5300 	ldrd	r5, r3, [r0]
   b6646:	2614      	movs	r6, #20
inline spark::Vector<T, AllocatorT>::~Vector() {
   b6648:	4604      	mov	r4, r0
    destruct(data_, data_ + size_);
   b664a:	fb06 5603 	mla	r6, r6, r3, r5
        for (; p != end; ++p) {
   b664e:	42ae      	cmp	r6, r5
   b6650:	d005      	beq.n	b665e <_ZN5spark6VectorINS_6detail9LogFilter4NodeENS_16DefaultAllocatorEED1Ev+0x1e>
struct spark::detail::LogFilter::Node {
   b6652:	f105 0008 	add.w	r0, r5, #8
   b6656:	f7ff fff3 	bl	b6640 <_ZN5spark6VectorINS_6detail9LogFilter4NodeENS_16DefaultAllocatorEED1Ev>
   b665a:	3514      	adds	r5, #20
   b665c:	e7f7      	b.n	b664e <_ZN5spark6VectorINS_6detail9LogFilter4NodeENS_16DefaultAllocatorEED1Ev+0xe>
    ::free(ptr);
   b665e:	6820      	ldr	r0, [r4, #0]
   b6660:	f7fe fcd4 	bl	b500c <free>
}
   b6664:	4620      	mov	r0, r4
   b6666:	bd70      	pop	{r4, r5, r6, pc}

000b6668 <_ZN5spark6detail9LogFilterD1Ev>:
spark::detail::LogFilter::~LogFilter() {
   b6668:	b510      	push	{r4, lr}
   b666a:	4604      	mov	r4, r0
   b666c:	300c      	adds	r0, #12
   b666e:	f7ff ffe7 	bl	b6640 <_ZN5spark6VectorINS_6detail9LogFilter4NodeENS_16DefaultAllocatorEED1Ev>
   b6672:	4620      	mov	r0, r4
   b6674:	f7ff f95c 	bl	b5930 <_ZN5spark6VectorI6StringNS_16DefaultAllocatorEED1Ev>
}
   b6678:	4620      	mov	r0, r4
   b667a:	bd10      	pop	{r4, pc}

000b667c <_ZN5spark16StreamLogHandlerD1Ev>:
class StreamLogHandler: public LogHandler {
   b667c:	b510      	push	{r4, lr}
    virtual ~LogHandler() = default;
   b667e:	4b04      	ldr	r3, [pc, #16]	; (b6690 <_ZN5spark16StreamLogHandlerD1Ev+0x14>)
class StreamLogHandler: public LogHandler {
   b6680:	4604      	mov	r4, r0
    virtual ~LogHandler() = default;
   b6682:	f840 3b04 	str.w	r3, [r0], #4
   b6686:	f7ff ffef 	bl	b6668 <_ZN5spark6detail9LogFilterD1Ev>
class StreamLogHandler: public LogHandler {
   b668a:	4620      	mov	r0, r4
   b668c:	bd10      	pop	{r4, pc}
   b668e:	bf00      	nop
   b6690:	000b89d0 	.word	0x000b89d0

000b6694 <_ZN5spark16StreamLogHandlerD0Ev>:
   b6694:	b510      	push	{r4, lr}
   b6696:	4604      	mov	r4, r0
   b6698:	f7ff fff0 	bl	b667c <_ZN5spark16StreamLogHandlerD1Ev>
   b669c:	4620      	mov	r0, r4
   b669e:	2124      	movs	r1, #36	; 0x24
   b66a0:	f7fd fd0f 	bl	b40c2 <_ZdlPvj>
   b66a4:	4620      	mov	r0, r4
   b66a6:	bd10      	pop	{r4, pc}

000b66a8 <_ZN5spark20JSONStreamLogHandlerD1Ev>:
class JSONStreamLogHandler: public StreamLogHandler {
   b66a8:	b510      	push	{r4, lr}
   b66aa:	4b03      	ldr	r3, [pc, #12]	; (b66b8 <_ZN5spark20JSONStreamLogHandlerD1Ev+0x10>)
   b66ac:	6003      	str	r3, [r0, #0]
   b66ae:	4604      	mov	r4, r0
   b66b0:	f7ff ffe4 	bl	b667c <_ZN5spark16StreamLogHandlerD1Ev>
   b66b4:	4620      	mov	r0, r4
   b66b6:	bd10      	pop	{r4, pc}
   b66b8:	000b8c20 	.word	0x000b8c20

000b66bc <_ZN5spark20JSONStreamLogHandlerD0Ev>:
   b66bc:	b510      	push	{r4, lr}
   b66be:	4604      	mov	r4, r0
   b66c0:	f7ff fff2 	bl	b66a8 <_ZN5spark20JSONStreamLogHandlerD1Ev>
   b66c4:	4620      	mov	r0, r4
   b66c6:	2124      	movs	r1, #36	; 0x24
   b66c8:	f7fd fcfb 	bl	b40c2 <_ZdlPvj>
   b66cc:	4620      	mov	r0, r4
   b66ce:	bd10      	pop	{r4, pc}

000b66d0 <_ZN5spark6VectorINS_17LogCategoryFilterENS_16DefaultAllocatorEEC1EOS3_>:
        capacity_(0) {
   b66d0:	2200      	movs	r2, #0
   b66d2:	e9c0 2200 	strd	r2, r2, [r0]
inline spark::Vector<T, AllocatorT>::Vector(Vector<T, AllocatorT>&& vector) : Vector() {
   b66d6:	b510      	push	{r4, lr}
        capacity_(0) {
   b66d8:	6082      	str	r2, [r0, #8]
      __a = _GLIBCXX_MOVE(__b);
   b66da:	680c      	ldr	r4, [r1, #0]
   b66dc:	6004      	str	r4, [r0, #0]
   b66de:	684c      	ldr	r4, [r1, #4]
   b66e0:	6044      	str	r4, [r0, #4]
   b66e2:	688c      	ldr	r4, [r1, #8]
      __b = _GLIBCXX_MOVE(__tmp);
   b66e4:	600a      	str	r2, [r1, #0]
   b66e6:	604a      	str	r2, [r1, #4]
      __a = _GLIBCXX_MOVE(__b);
   b66e8:	6084      	str	r4, [r0, #8]
      __b = _GLIBCXX_MOVE(__tmp);
   b66ea:	608a      	str	r2, [r1, #8]
}
   b66ec:	bd10      	pop	{r4, pc}

000b66ee <_ZNSt10lock_guardI14RecursiveMutexED1Ev>:
      { _M_device.lock(); }

      lock_guard(mutex_type& __m, adopt_lock_t) noexcept : _M_device(__m)
      { } // calling thread owns mutex

      ~lock_guard()
   b66ee:	b510      	push	{r4, lr}
    void unlock() { os_mutex_recursive_unlock(handle_); }
   b66f0:	6803      	ldr	r3, [r0, #0]
   b66f2:	4604      	mov	r4, r0
   b66f4:	6818      	ldr	r0, [r3, #0]
   b66f6:	f7fe fa6d 	bl	b4bd4 <os_mutex_recursive_unlock>
      { _M_device.unlock(); }
   b66fa:	4620      	mov	r0, r4
   b66fc:	bd10      	pop	{r4, pc}
	...

000b6700 <_ZN5spark10LogManager10logMessageEPKciS2_PK13LogAttributesPv>:
}

void spark::LogManager::logMessage(const char *msg, int level, const char *category, const LogAttributes *attr, void *reserved) {
   b6700:	e92d 4ff0 	stmdb	sp!, {r4, r5, r6, r7, r8, r9, sl, fp, lr}
   b6704:	b087      	sub	sp, #28
   b6706:	4680      	mov	r8, r0
   b6708:	9303      	str	r3, [sp, #12]
    #endif /* nRF52840 */

#if defined(STM32F10X_MD) || defined(STM32F10X_HD) || defined(STM32F2XX) || defined(nRF52840)

static inline bool hal_interrupt_is_isr() {
	return (SCB->ICSR & SCB_ICSR_VECTACTIVE_Msk) != 0;
   b670a:	4b1c      	ldr	r3, [pc, #112]	; (b677c <_ZN5spark10LogManager10logMessageEPKciS2_PK13LogAttributesPv+0x7c>)
   b670c:	685b      	ldr	r3, [r3, #4]
   b670e:	f3c3 0308 	ubfx	r3, r3, #0, #9
   b6712:	4689      	mov	r9, r1
   b6714:	4616      	mov	r6, r2
#ifndef LOG_FROM_ISR
    if (hal_interrupt_is_isr()) {
   b6716:	b96b      	cbnz	r3, b6734 <_ZN5spark10LogManager10logMessageEPKciS2_PK13LogAttributesPv+0x34>
        return;
    }
#endif
    LogManager *that = instance();
   b6718:	f7ff fed0 	bl	b64bc <_ZN5spark10LogManager8instanceEv>
   b671c:	4604      	mov	r4, r0
    LOG_WITH_LOCK(that->mutex_) {
   b671e:	f100 0324 	add.w	r3, r0, #36	; 0x24
      { _M_device.lock(); }
   b6722:	6a40      	ldr	r0, [r0, #36]	; 0x24
      explicit lock_guard(mutex_type& __m) : _M_device(__m)
   b6724:	9305      	str	r3, [sp, #20]
      { _M_device.lock(); }
   b6726:	f7ff fd79 	bl	b621c <_ZN14RecursiveMutex4lockEv.isra.0>
        // prevent re-entry
        if (that->isActive()) {
   b672a:	7b23      	ldrb	r3, [r4, #12]
   b672c:	b12b      	cbz	r3, b673a <_ZN5spark10LogManager10logMessageEPKciS2_PK13LogAttributesPv+0x3a>
    LOG_WITH_LOCK(that->mutex_) {
   b672e:	a805      	add	r0, sp, #20
   b6730:	f7ff ffdd 	bl	b66ee <_ZNSt10lock_guardI14RecursiveMutexED1Ev>
        for (LogHandler *handler: that->activeHandlers_) {
            handler->message(msg, (LogLevel)level, category, *attr);
        }
        that->setActive(false);
    }
}
   b6734:	b007      	add	sp, #28
   b6736:	e8bd 8ff0 	ldmia.w	sp!, {r4, r5, r6, r7, r8, r9, sl, fp, pc}
inline bool spark::LogManager::isActive() const {
    return outputActive_;
}

inline void spark::LogManager::setActive(bool outputActive) {
    outputActive_ = outputActive;
   b673a:	2301      	movs	r3, #1
   b673c:	7323      	strb	r3, [r4, #12]
    return data_ + size_;
   b673e:	e9d4 5300 	ldrd	r5, r3, [r4]
            handler->message(msg, (LogLevel)level, category, *attr);
   b6742:	fa5f f989 	uxtb.w	r9, r9
   b6746:	eb05 0a83 	add.w	sl, r5, r3, lsl #2
        for (LogHandler *handler: that->activeHandlers_) {
   b674a:	45aa      	cmp	sl, r5
   b674c:	d012      	beq.n	b6774 <_ZN5spark10LogManager10logMessageEPKciS2_PK13LogAttributesPv+0x74>
   b674e:	f855 7b04 	ldr.w	r7, [r5], #4
    if (level >= filter_.level(category)) {
   b6752:	4631      	mov	r1, r6
   b6754:	1d38      	adds	r0, r7, #4
   b6756:	f7ff fe05 	bl	b6364 <_ZNK5spark6detail9LogFilter5levelEPKc>
   b675a:	4581      	cmp	r9, r0
   b675c:	d3f5      	bcc.n	b674a <_ZN5spark10LogManager10logMessageEPKciS2_PK13LogAttributesPv+0x4a>
        logMessage(msg, level, category, attr);
   b675e:	683b      	ldr	r3, [r7, #0]
   b6760:	9a03      	ldr	r2, [sp, #12]
   b6762:	9200      	str	r2, [sp, #0]
   b6764:	f8d3 b008 	ldr.w	fp, [r3, #8]
   b6768:	464a      	mov	r2, r9
   b676a:	4633      	mov	r3, r6
   b676c:	4641      	mov	r1, r8
   b676e:	4638      	mov	r0, r7
   b6770:	47d8      	blx	fp
   b6772:	e7ea      	b.n	b674a <_ZN5spark10LogManager10logMessageEPKciS2_PK13LogAttributesPv+0x4a>
    outputActive_ = outputActive;
   b6774:	2300      	movs	r3, #0
   b6776:	7323      	strb	r3, [r4, #12]
   b6778:	e7d9      	b.n	b672e <_ZN5spark10LogManager10logMessageEPKciS2_PK13LogAttributesPv+0x2e>
   b677a:	bf00      	nop
   b677c:	e000ed00 	.word	0xe000ed00

000b6780 <_ZN5spark10LogManager8logWriteEPKcjiS2_Pv>:
void spark::LogManager::logWrite(const char *data, size_t size, int level, const char *category, void *reserved) {
   b6780:	e92d 4ff7 	stmdb	sp!, {r0, r1, r2, r4, r5, r6, r7, r8, r9, sl, fp, lr}
   b6784:	469b      	mov	fp, r3
   b6786:	4b1a      	ldr	r3, [pc, #104]	; (b67f0 <_ZN5spark10LogManager8logWriteEPKcjiS2_Pv+0x70>)
   b6788:	685b      	ldr	r3, [r3, #4]
   b678a:	f3c3 0308 	ubfx	r3, r3, #0, #9
   b678e:	4680      	mov	r8, r0
   b6790:	4689      	mov	r9, r1
   b6792:	4616      	mov	r6, r2
    if (hal_interrupt_is_isr()) {
   b6794:	b96b      	cbnz	r3, b67b2 <_ZN5spark10LogManager8logWriteEPKcjiS2_Pv+0x32>
    LogManager *that = instance();
   b6796:	f7ff fe91 	bl	b64bc <_ZN5spark10LogManager8instanceEv>
   b679a:	4604      	mov	r4, r0
    LOG_WITH_LOCK(that->mutex_) {
   b679c:	f100 0324 	add.w	r3, r0, #36	; 0x24
   b67a0:	6a40      	ldr	r0, [r0, #36]	; 0x24
      explicit lock_guard(mutex_type& __m) : _M_device(__m)
   b67a2:	9301      	str	r3, [sp, #4]
      { _M_device.lock(); }
   b67a4:	f7ff fd3a 	bl	b621c <_ZN14RecursiveMutex4lockEv.isra.0>
        if (that->isActive()) {
   b67a8:	7b23      	ldrb	r3, [r4, #12]
   b67aa:	b12b      	cbz	r3, b67b8 <_ZN5spark10LogManager8logWriteEPKcjiS2_Pv+0x38>
    LOG_WITH_LOCK(that->mutex_) {
   b67ac:	a801      	add	r0, sp, #4
   b67ae:	f7ff ff9e 	bl	b66ee <_ZNSt10lock_guardI14RecursiveMutexED1Ev>
}
   b67b2:	b003      	add	sp, #12
   b67b4:	e8bd 8ff0 	ldmia.w	sp!, {r4, r5, r6, r7, r8, r9, sl, fp, pc}
    outputActive_ = outputActive;
   b67b8:	2301      	movs	r3, #1
   b67ba:	7323      	strb	r3, [r4, #12]
   b67bc:	e9d4 5300 	ldrd	r5, r3, [r4]
    if (level >= filter_.level(category)) {
   b67c0:	b2f6      	uxtb	r6, r6
   b67c2:	eb05 0a83 	add.w	sl, r5, r3, lsl #2
        for (LogHandler *handler: that->activeHandlers_) {
   b67c6:	4555      	cmp	r5, sl
   b67c8:	d00e      	beq.n	b67e8 <_ZN5spark10LogManager8logWriteEPKcjiS2_Pv+0x68>
   b67ca:	f855 7b04 	ldr.w	r7, [r5], #4
   b67ce:	4659      	mov	r1, fp
   b67d0:	1d38      	adds	r0, r7, #4
   b67d2:	f7ff fdc7 	bl	b6364 <_ZNK5spark6detail9LogFilter5levelEPKc>
   b67d6:	4286      	cmp	r6, r0
   b67d8:	d3f5      	bcc.n	b67c6 <_ZN5spark10LogManager8logWriteEPKcjiS2_Pv+0x46>
        write(data, size);
   b67da:	683b      	ldr	r3, [r7, #0]
   b67dc:	464a      	mov	r2, r9
   b67de:	68db      	ldr	r3, [r3, #12]
   b67e0:	4641      	mov	r1, r8
   b67e2:	4638      	mov	r0, r7
   b67e4:	4798      	blx	r3
   b67e6:	e7ee      	b.n	b67c6 <_ZN5spark10LogManager8logWriteEPKcjiS2_Pv+0x46>
    outputActive_ = outputActive;
   b67e8:	2300      	movs	r3, #0
   b67ea:	7323      	strb	r3, [r4, #12]
   b67ec:	e7de      	b.n	b67ac <_ZN5spark10LogManager8logWriteEPKcjiS2_Pv+0x2c>
   b67ee:	bf00      	nop
   b67f0:	e000ed00 	.word	0xe000ed00

000b67f4 <_ZN5spark10LogManager10logEnabledEiPKcPv>:
int spark::LogManager::logEnabled(int level, const char *category, void *reserved) {
   b67f4:	e92d 41f3 	stmdb	sp!, {r0, r1, r4, r5, r6, r7, r8, lr}
   b67f8:	4b16      	ldr	r3, [pc, #88]	; (b6854 <_ZN5spark10LogManager10logEnabledEiPKcPv+0x60>)
   b67fa:	685b      	ldr	r3, [r3, #4]
   b67fc:	f3c3 0308 	ubfx	r3, r3, #0, #9
   b6800:	4605      	mov	r5, r0
   b6802:	460f      	mov	r7, r1
    if (hal_interrupt_is_isr()) {
   b6804:	bb1b      	cbnz	r3, b684e <_ZN5spark10LogManager10logEnabledEiPKcPv+0x5a>
    LogManager *that = instance();
   b6806:	f7ff fe59 	bl	b64bc <_ZN5spark10LogManager8instanceEv>
    LOG_WITH_LOCK(that->mutex_) {
   b680a:	f100 0324 	add.w	r3, r0, #36	; 0x24
    LogManager *that = instance();
   b680e:	4604      	mov	r4, r0
   b6810:	6a40      	ldr	r0, [r0, #36]	; 0x24
      explicit lock_guard(mutex_type& __m) : _M_device(__m)
   b6812:	9301      	str	r3, [sp, #4]
      { _M_device.lock(); }
   b6814:	f7ff fd02 	bl	b621c <_ZN14RecursiveMutex4lockEv.isra.0>
   b6818:	e9d4 6300 	ldrd	r6, r3, [r4]
    int minLevel = LOG_LEVEL_NONE;
   b681c:	2446      	movs	r4, #70	; 0x46
   b681e:	eb06 0883 	add.w	r8, r6, r3, lsl #2
        for (LogHandler *handler: that->activeHandlers_) {
   b6822:	45b0      	cmp	r8, r6
   b6824:	d109      	bne.n	b683a <_ZN5spark10LogManager10logEnabledEiPKcPv+0x46>
    LOG_WITH_LOCK(that->mutex_) {
   b6826:	a801      	add	r0, sp, #4
   b6828:	f7ff ff61 	bl	b66ee <_ZNSt10lock_guardI14RecursiveMutexED1Ev>
    return (level >= minLevel);
   b682c:	42a5      	cmp	r5, r4
   b682e:	bfb4      	ite	lt
   b6830:	2000      	movlt	r0, #0
   b6832:	2001      	movge	r0, #1
}
   b6834:	b002      	add	sp, #8
   b6836:	e8bd 81f0 	ldmia.w	sp!, {r4, r5, r6, r7, r8, pc}
    return filter_.level(category);
   b683a:	f856 0b04 	ldr.w	r0, [r6], #4
   b683e:	4639      	mov	r1, r7
   b6840:	3004      	adds	r0, #4
   b6842:	f7ff fd8f 	bl	b6364 <_ZNK5spark6detail9LogFilter5levelEPKc>
            if (level < minLevel) {
   b6846:	4284      	cmp	r4, r0
   b6848:	bfa8      	it	ge
   b684a:	4604      	movge	r4, r0
        for (LogHandler *handler: that->activeHandlers_) {
   b684c:	e7e9      	b.n	b6822 <_ZN5spark10LogManager10logEnabledEiPKcPv+0x2e>
        return 0;
   b684e:	2000      	movs	r0, #0
   b6850:	e7f0      	b.n	b6834 <_ZN5spark10LogManager10logEnabledEiPKcPv+0x40>
   b6852:	bf00      	nop
   b6854:	e000ed00 	.word	0xe000ed00

000b6858 <_ZN5spark6VectorIPNS_10LogHandlerENS_16DefaultAllocatorEE6appendES2_>:
inline bool spark::Vector<T, AllocatorT>::append(T value) {
   b6858:	b5f8      	push	{r3, r4, r5, r6, r7, lr}
    if (size_ + 1 > capacity_ && !realloc(size_ + 1)) {
   b685a:	e9d0 5301 	ldrd	r5, r3, [r0, #4]
   b685e:	429d      	cmp	r5, r3
inline bool spark::Vector<T, AllocatorT>::append(T value) {
   b6860:	4604      	mov	r4, r0
   b6862:	460e      	mov	r6, r1
    if (size_ + 1 > capacity_ && !realloc(size_ + 1)) {
   b6864:	db0d      	blt.n	b6882 <_ZN5spark6VectorIPNS_10LogHandlerENS_16DefaultAllocatorEE6appendES2_+0x2a>
   b6866:	1c6f      	adds	r7, r5, #1
        if (n > 0) {
   b6868:	2f00      	cmp	r7, #0
            d = (T*)AllocatorT::realloc(data_, n * sizeof(T));
   b686a:	6800      	ldr	r0, [r0, #0]
        if (n > 0) {
   b686c:	dd04      	ble.n	b6878 <_ZN5spark6VectorIPNS_10LogHandlerENS_16DefaultAllocatorEE6appendES2_+0x20>
    return ::realloc(ptr, size);
   b686e:	00b9      	lsls	r1, r7, #2
   b6870:	f7fe fbd4 	bl	b501c <realloc>
            if (!d) {
   b6874:	b918      	cbnz	r0, b687e <_ZN5spark6VectorIPNS_10LogHandlerENS_16DefaultAllocatorEE6appendES2_+0x26>
}
   b6876:	bdf8      	pop	{r3, r4, r5, r6, r7, pc}
    ::free(ptr);
   b6878:	f7fe fbc8 	bl	b500c <free>
        T* d = nullptr;
   b687c:	2000      	movs	r0, #0
        data_ = d;
   b687e:	6020      	str	r0, [r4, #0]
        capacity_ = n;
   b6880:	60a7      	str	r7, [r4, #8]
    T* const p = data_ + i;
   b6882:	6827      	ldr	r7, [r4, #0]
    move(p + 1, p, data_ + size_);
   b6884:	6862      	ldr	r2, [r4, #4]
    T* const p = data_ + i;
   b6886:	eb07 0185 	add.w	r1, r7, r5, lsl #2
    move(p + 1, p, data_ + size_);
   b688a:	0092      	lsls	r2, r2, #2
        ::memmove(dest, p, (end - p) * sizeof(T));
   b688c:	eba2 0285 	sub.w	r2, r2, r5, lsl #2
   b6890:	1d08      	adds	r0, r1, #4
   b6892:	f001 fe79 	bl	b8588 <memmove>
    new(p) T(std::move(value));
   b6896:	f847 6025 	str.w	r6, [r7, r5, lsl #2]
    ++size_;
   b689a:	6863      	ldr	r3, [r4, #4]
   b689c:	3301      	adds	r3, #1
   b689e:	6063      	str	r3, [r4, #4]
    return true;
   b68a0:	2001      	movs	r0, #1
   b68a2:	e7e8      	b.n	b6876 <_ZN5spark6VectorIPNS_10LogHandlerENS_16DefaultAllocatorEE6appendES2_+0x1e>

000b68a4 <_ZN5spark10LogManager10addHandlerEPNS_10LogHandlerE>:
bool spark::LogManager::addHandler(LogHandler *handler) {
   b68a4:	b537      	push	{r0, r1, r2, r4, r5, lr}
    LOG_WITH_LOCK(mutex_) {
   b68a6:	f100 0324 	add.w	r3, r0, #36	; 0x24
bool spark::LogManager::addHandler(LogHandler *handler) {
   b68aa:	4604      	mov	r4, r0
   b68ac:	6a40      	ldr	r0, [r0, #36]	; 0x24
      explicit lock_guard(mutex_type& __m) : _M_device(__m)
   b68ae:	9301      	str	r3, [sp, #4]
   b68b0:	460d      	mov	r5, r1
      { _M_device.lock(); }
   b68b2:	f7ff fcb3 	bl	b621c <_ZN14RecursiveMutex4lockEv.isra.0>
    return find(data_, data_ + size_, value);
   b68b6:	e9d4 3200 	ldrd	r3, r2, [r4]
   b68ba:	eb03 0282 	add.w	r2, r3, r2, lsl #2
        for (; p != end; ++p) {
   b68be:	4293      	cmp	r3, r2
   b68c0:	4619      	mov	r1, r3
   b68c2:	d00b      	beq.n	b68dc <_ZN5spark10LogManager10addHandlerEPNS_10LogHandlerE+0x38>
            if (*p == value) {
   b68c4:	6809      	ldr	r1, [r1, #0]
   b68c6:	42a9      	cmp	r1, r5
   b68c8:	f103 0304 	add.w	r3, r3, #4
   b68cc:	d1f7      	bne.n	b68be <_ZN5spark10LogManager10addHandlerEPNS_10LogHandlerE+0x1a>
            return false;
   b68ce:	a801      	add	r0, sp, #4
   b68d0:	f7ff ff0d 	bl	b66ee <_ZNSt10lock_guardI14RecursiveMutexED1Ev>
   b68d4:	2500      	movs	r5, #0
}
   b68d6:	4628      	mov	r0, r5
   b68d8:	b003      	add	sp, #12
   b68da:	bd30      	pop	{r4, r5, pc}
        if (activeHandlers_.contains(handler) || !activeHandlers_.append(handler)) {
   b68dc:	4629      	mov	r1, r5
   b68de:	4620      	mov	r0, r4
   b68e0:	f7ff ffba 	bl	b6858 <_ZN5spark6VectorIPNS_10LogHandlerENS_16DefaultAllocatorEE6appendES2_>
   b68e4:	4605      	mov	r5, r0
   b68e6:	2800      	cmp	r0, #0
   b68e8:	d0f1      	beq.n	b68ce <_ZN5spark10LogManager10addHandlerEPNS_10LogHandlerE+0x2a>
        if (activeHandlers_.size() == 1) {
   b68ea:	6863      	ldr	r3, [r4, #4]
   b68ec:	2b01      	cmp	r3, #1
   b68ee:	d101      	bne.n	b68f4 <_ZN5spark10LogManager10addHandlerEPNS_10LogHandlerE+0x50>
            setSystemCallbacks();
   b68f0:	f7ff fe00 	bl	b64f4 <_ZN5spark10LogManager18setSystemCallbacksEv>
    LOG_WITH_LOCK(mutex_) {
   b68f4:	a801      	add	r0, sp, #4
   b68f6:	f7ff fefa 	bl	b66ee <_ZNSt10lock_guardI14RecursiveMutexED1Ev>
   b68fa:	e7ec      	b.n	b68d6 <_ZN5spark10LogManager10addHandlerEPNS_10LogHandlerE+0x32>

000b68fc <_ZN5spark6VectorIPNS_10LogHandlerENS_16DefaultAllocatorEE9removeOneERKS2_>:
inline bool spark::Vector<T, AllocatorT>::removeOne(const T &value) {
   b68fc:	b570      	push	{r4, r5, r6, lr}
   b68fe:	4604      	mov	r4, r0
    T* const p = find(data_, data_ + size_, value);
   b6900:	e9d0 0200 	ldrd	r0, r2, [r0]
inline bool spark::Vector<T, AllocatorT>::removeOne(const T &value) {
   b6904:	460b      	mov	r3, r1
    T* const p = find(data_, data_ + size_, value);
   b6906:	eb00 0282 	add.w	r2, r0, r2, lsl #2
        for (; p != end; ++p) {
   b690a:	4282      	cmp	r2, r0
   b690c:	d00f      	beq.n	b692e <_ZN5spark6VectorIPNS_10LogHandlerENS_16DefaultAllocatorEE9removeOneERKS2_+0x32>
    move(p, p + 1, data_ + size_);
   b690e:	4601      	mov	r1, r0
            if (*p == value) {
   b6910:	681d      	ldr	r5, [r3, #0]
   b6912:	f851 6b04 	ldr.w	r6, [r1], #4
   b6916:	42ae      	cmp	r6, r5
   b6918:	d107      	bne.n	b692a <_ZN5spark6VectorIPNS_10LogHandlerENS_16DefaultAllocatorEE9removeOneERKS2_+0x2e>
        ::memmove(dest, p, (end - p) * sizeof(T));
   b691a:	1a52      	subs	r2, r2, r1
   b691c:	f001 fe34 	bl	b8588 <memmove>
    --size_;
   b6920:	6863      	ldr	r3, [r4, #4]
   b6922:	3b01      	subs	r3, #1
   b6924:	6063      	str	r3, [r4, #4]
    return true;
   b6926:	2001      	movs	r0, #1
}
   b6928:	bd70      	pop	{r4, r5, r6, pc}
    move(p, p + 1, data_ + size_);
   b692a:	4608      	mov	r0, r1
   b692c:	e7ed      	b.n	b690a <_ZN5spark6VectorIPNS_10LogHandlerENS_16DefaultAllocatorEE9removeOneERKS2_+0xe>
        return false;
   b692e:	2000      	movs	r0, #0
   b6930:	e7fa      	b.n	b6928 <_ZN5spark6VectorIPNS_10LogHandlerENS_16DefaultAllocatorEE9removeOneERKS2_+0x2c>

000b6932 <_ZN5spark10LogManager13removeHandlerEPNS_10LogHandlerE>:
void spark::LogManager::removeHandler(LogHandler *handler) {
   b6932:	b51f      	push	{r0, r1, r2, r3, r4, lr}
    LOG_WITH_LOCK(mutex_) {
   b6934:	f100 0324 	add.w	r3, r0, #36	; 0x24
void spark::LogManager::removeHandler(LogHandler *handler) {
   b6938:	4604      	mov	r4, r0
   b693a:	6a40      	ldr	r0, [r0, #36]	; 0x24
   b693c:	9101      	str	r1, [sp, #4]
      explicit lock_guard(mutex_type& __m) : _M_device(__m)
   b693e:	9303      	str	r3, [sp, #12]
      { _M_device.lock(); }
   b6940:	f7ff fc6c 	bl	b621c <_ZN14RecursiveMutex4lockEv.isra.0>
        if (activeHandlers_.removeOne(handler) && activeHandlers_.isEmpty()) {
   b6944:	a901      	add	r1, sp, #4
   b6946:	4620      	mov	r0, r4
   b6948:	f7ff ffd8 	bl	b68fc <_ZN5spark6VectorIPNS_10LogHandlerENS_16DefaultAllocatorEE9removeOneERKS2_>
   b694c:	b118      	cbz	r0, b6956 <_ZN5spark10LogManager13removeHandlerEPNS_10LogHandlerE+0x24>
   b694e:	6863      	ldr	r3, [r4, #4]
   b6950:	b90b      	cbnz	r3, b6956 <_ZN5spark10LogManager13removeHandlerEPNS_10LogHandlerE+0x24>
            resetSystemCallbacks();
   b6952:	f7ff fddb 	bl	b650c <_ZN5spark10LogManager20resetSystemCallbacksEv>
    LOG_WITH_LOCK(mutex_) {
   b6956:	a803      	add	r0, sp, #12
   b6958:	f7ff fec9 	bl	b66ee <_ZNSt10lock_guardI14RecursiveMutexED1Ev>
}
   b695c:	b004      	add	sp, #16
   b695e:	bd10      	pop	{r4, pc}

000b6960 <_ZN5spark10LogManager22destroyFactoryHandlersEv>:
void spark::LogManager::destroyFactoryHandlers() {
   b6960:	b570      	push	{r4, r5, r6, lr}
    return data_ + size_;
   b6962:	e9d0 5604 	ldrd	r5, r6, [r0, #16]
   b6966:	2318      	movs	r3, #24
   b6968:	4604      	mov	r4, r0
   b696a:	fb03 5606 	mla	r6, r3, r6, r5
    for (const FactoryHandler &h: factoryHandlers_) {
   b696e:	42ae      	cmp	r6, r5
   b6970:	d015      	beq.n	b699e <_ZN5spark10LogManager22destroyFactoryHandlersEv+0x3e>
        activeHandlers_.removeOne(h.handler);
   b6972:	f105 0110 	add.w	r1, r5, #16
   b6976:	4620      	mov	r0, r4
   b6978:	f7ff ffc0 	bl	b68fc <_ZN5spark6VectorIPNS_10LogHandlerENS_16DefaultAllocatorEE9removeOneERKS2_>
        if (activeHandlers_.isEmpty()) {
   b697c:	6863      	ldr	r3, [r4, #4]
   b697e:	b90b      	cbnz	r3, b6984 <_ZN5spark10LogManager22destroyFactoryHandlersEv+0x24>
            resetSystemCallbacks();
   b6980:	f7ff fdc4 	bl	b650c <_ZN5spark10LogManager20resetSystemCallbacksEv>
        handlerFactory_->destroyHandler(h.handler);
   b6984:	69e0      	ldr	r0, [r4, #28]
   b6986:	6929      	ldr	r1, [r5, #16]
   b6988:	6803      	ldr	r3, [r0, #0]
   b698a:	68db      	ldr	r3, [r3, #12]
   b698c:	4798      	blx	r3
        if (h.stream) {
   b698e:	6969      	ldr	r1, [r5, #20]
   b6990:	b119      	cbz	r1, b699a <_ZN5spark10LogManager22destroyFactoryHandlersEv+0x3a>
            streamFactory_->destroyStream(h.stream);
   b6992:	6a20      	ldr	r0, [r4, #32]
   b6994:	6803      	ldr	r3, [r0, #0]
   b6996:	68db      	ldr	r3, [r3, #12]
   b6998:	4798      	blx	r3
    for (const FactoryHandler &h: factoryHandlers_) {
   b699a:	3518      	adds	r5, #24
   b699c:	e7e7      	b.n	b696e <_ZN5spark10LogManager22destroyFactoryHandlersEv+0xe>
    destruct(data_, data_ + size_);
   b699e:	e9d4 5304 	ldrd	r5, r3, [r4, #16]
   b69a2:	2618      	movs	r6, #24
   b69a4:	fb06 5603 	mla	r6, r6, r3, r5
        for (; p != end; ++p) {
   b69a8:	42ae      	cmp	r6, r5
   b69aa:	d004      	beq.n	b69b6 <_ZN5spark10LogManager22destroyFactoryHandlersEv+0x56>
struct spark::LogManager::FactoryHandler {
   b69ac:	4628      	mov	r0, r5
   b69ae:	f7fe fcb3 	bl	b5318 <_ZN6StringD1Ev>
   b69b2:	3518      	adds	r5, #24
   b69b4:	e7f8      	b.n	b69a8 <_ZN5spark10LogManager22destroyFactoryHandlersEv+0x48>
    size_ = 0;
   b69b6:	2300      	movs	r3, #0
   b69b8:	6163      	str	r3, [r4, #20]
}
   b69ba:	bd70      	pop	{r4, r5, r6, pc}

000b69bc <_ZN5spark10LogManagerD1Ev>:
spark::LogManager::~LogManager() {
   b69bc:	b573      	push	{r0, r1, r4, r5, r6, lr}
   b69be:	4604      	mov	r4, r0
    resetSystemCallbacks();
   b69c0:	f7ff fda4 	bl	b650c <_ZN5spark10LogManager20resetSystemCallbacksEv>
    LOG_WITH_LOCK(mutex_) {
   b69c4:	f104 0324 	add.w	r3, r4, #36	; 0x24
   b69c8:	6a60      	ldr	r0, [r4, #36]	; 0x24
      explicit lock_guard(mutex_type& __m) : _M_device(__m)
   b69ca:	9301      	str	r3, [sp, #4]
      { _M_device.lock(); }
   b69cc:	f7ff fc26 	bl	b621c <_ZN14RecursiveMutex4lockEv.isra.0>
         destroyFactoryHandlers();
   b69d0:	4620      	mov	r0, r4
   b69d2:	f7ff ffc5 	bl	b6960 <_ZN5spark10LogManager22destroyFactoryHandlersEv>
    LOG_WITH_LOCK(mutex_) {
   b69d6:	a801      	add	r0, sp, #4
   b69d8:	f7ff fe89 	bl	b66ee <_ZNSt10lock_guardI14RecursiveMutexED1Ev>
        if (handle_) {
   b69dc:	6a60      	ldr	r0, [r4, #36]	; 0x24
   b69de:	b108      	cbz	r0, b69e4 <_ZN5spark10LogManagerD1Ev+0x28>
            os_mutex_recursive_destroy(handle_);
   b69e0:	f7fe f8e8 	bl	b4bb4 <os_mutex_recursive_destroy>
    destruct(data_, data_ + size_);
   b69e4:	e9d4 5304 	ldrd	r5, r3, [r4, #16]
   b69e8:	2618      	movs	r6, #24
   b69ea:	fb06 5603 	mla	r6, r6, r3, r5
        for (; p != end; ++p) {
   b69ee:	42ae      	cmp	r6, r5
   b69f0:	d004      	beq.n	b69fc <_ZN5spark10LogManagerD1Ev+0x40>
struct spark::LogManager::FactoryHandler {
   b69f2:	4628      	mov	r0, r5
   b69f4:	f7fe fc90 	bl	b5318 <_ZN6StringD1Ev>
   b69f8:	3518      	adds	r5, #24
   b69fa:	e7f8      	b.n	b69ee <_ZN5spark10LogManagerD1Ev+0x32>
    ::free(ptr);
   b69fc:	6920      	ldr	r0, [r4, #16]
   b69fe:	f7fe fb05 	bl	b500c <free>
   b6a02:	6820      	ldr	r0, [r4, #0]
   b6a04:	f7fe fb02 	bl	b500c <free>
}
   b6a08:	4620      	mov	r0, r4
   b6a0a:	b002      	add	sp, #8
   b6a0c:	bd70      	pop	{r4, r5, r6, pc}
	...

000b6a10 <__tcf_2>:
    static LogManager mgr;
   b6a10:	4801      	ldr	r0, [pc, #4]	; (b6a18 <__tcf_2+0x8>)
   b6a12:	f7ff bfd3 	b.w	b69bc <_ZN5spark10LogManagerD1Ev>
   b6a16:	bf00      	nop
   b6a18:	2003e6bc 	.word	0x2003e6bc

000b6a1c <_ZN5spark6VectorINS_6detail9LogFilter4NodeENS_16DefaultAllocatorEE4moveIS3_Li0EEEvPS3_S7_S7_>:
        if (dest > p && dest < end) {
   b6a1c:	4288      	cmp	r0, r1
    static void move(T* dest, T* p, T* end) {
   b6a1e:	b5f8      	push	{r3, r4, r5, r6, r7, lr}
   b6a20:	4604      	mov	r4, r0
   b6a22:	460d      	mov	r5, r1
   b6a24:	4616      	mov	r6, r2
        if (dest > p && dest < end) {
   b6a26:	d915      	bls.n	b6a54 <_ZN5spark6VectorINS_6detail9LogFilter4NodeENS_16DefaultAllocatorEE4moveIS3_Li0EEEvPS3_S7_S7_+0x38>
   b6a28:	4290      	cmp	r0, r2
   b6a2a:	d214      	bcs.n	b6a56 <_ZN5spark6VectorINS_6detail9LogFilter4NodeENS_16DefaultAllocatorEE4moveIS3_Li0EEEvPS3_S7_S7_+0x3a>
            --end;
   b6a2c:	f1a2 0614 	sub.w	r6, r2, #20
            dest += end - p - 1;
   b6a30:	1a75      	subs	r5, r6, r1
   b6a32:	f1a1 0714 	sub.w	r7, r1, #20
   b6a36:	442c      	add	r4, r5
            for (; end != p; --end, --dest) {
   b6a38:	42b7      	cmp	r7, r6
   b6a3a:	d01a      	beq.n	b6a72 <_ZN5spark6VectorINS_6detail9LogFilter4NodeENS_16DefaultAllocatorEE4moveIS3_Li0EEEvPS3_S7_S7_+0x56>
                new(dest) T(std::move(*end));
   b6a3c:	b11c      	cbz	r4, b6a46 <_ZN5spark6VectorINS_6detail9LogFilter4NodeENS_16DefaultAllocatorEE4moveIS3_Li0EEEvPS3_S7_S7_+0x2a>
   b6a3e:	4631      	mov	r1, r6
   b6a40:	4620      	mov	r0, r4
   b6a42:	f7ff fc3f 	bl	b62c4 <_ZN5spark6detail9LogFilter4NodeC1EOS2_>
struct spark::detail::LogFilter::Node {
   b6a46:	f106 0008 	add.w	r0, r6, #8
   b6a4a:	f7ff fdf9 	bl	b6640 <_ZN5spark6VectorINS_6detail9LogFilter4NodeENS_16DefaultAllocatorEED1Ev>
            for (; end != p; --end, --dest) {
   b6a4e:	3e14      	subs	r6, #20
   b6a50:	3c14      	subs	r4, #20
   b6a52:	e7f1      	b.n	b6a38 <_ZN5spark6VectorINS_6detail9LogFilter4NodeENS_16DefaultAllocatorEE4moveIS3_Li0EEEvPS3_S7_S7_+0x1c>
        } else if (dest != p) {
   b6a54:	d00d      	beq.n	b6a72 <_ZN5spark6VectorINS_6detail9LogFilter4NodeENS_16DefaultAllocatorEE4moveIS3_Li0EEEvPS3_S7_S7_+0x56>
            for (; p != end; ++p, ++dest) {
   b6a56:	42b5      	cmp	r5, r6
   b6a58:	d00b      	beq.n	b6a72 <_ZN5spark6VectorINS_6detail9LogFilter4NodeENS_16DefaultAllocatorEE4moveIS3_Li0EEEvPS3_S7_S7_+0x56>
                new(dest) T(std::move(*p));
   b6a5a:	b11c      	cbz	r4, b6a64 <_ZN5spark6VectorINS_6detail9LogFilter4NodeENS_16DefaultAllocatorEE4moveIS3_Li0EEEvPS3_S7_S7_+0x48>
   b6a5c:	4629      	mov	r1, r5
   b6a5e:	4620      	mov	r0, r4
   b6a60:	f7ff fc30 	bl	b62c4 <_ZN5spark6detail9LogFilter4NodeC1EOS2_>
   b6a64:	f105 0008 	add.w	r0, r5, #8
   b6a68:	f7ff fdea 	bl	b6640 <_ZN5spark6VectorINS_6detail9LogFilter4NodeENS_16DefaultAllocatorEED1Ev>
            for (; p != end; ++p, ++dest) {
   b6a6c:	3514      	adds	r5, #20
   b6a6e:	3414      	adds	r4, #20
   b6a70:	e7f1      	b.n	b6a56 <_ZN5spark6VectorINS_6detail9LogFilter4NodeENS_16DefaultAllocatorEE4moveIS3_Li0EEEvPS3_S7_S7_+0x3a>
    }
   b6a72:	bdf8      	pop	{r3, r4, r5, r6, r7, pc}

000b6a74 <_ZN5spark6VectorI6StringNS_16DefaultAllocatorEE4moveIS1_Li0EEEvPS1_S5_S5_>:
        if (dest > p && dest < end) {
   b6a74:	4288      	cmp	r0, r1
    static void move(T* dest, T* p, T* end) {
   b6a76:	b5f8      	push	{r3, r4, r5, r6, r7, lr}
   b6a78:	4604      	mov	r4, r0
   b6a7a:	460d      	mov	r5, r1
   b6a7c:	4616      	mov	r6, r2
        if (dest > p && dest < end) {
   b6a7e:	d914      	bls.n	b6aaa <_ZN5spark6VectorI6StringNS_16DefaultAllocatorEE4moveIS1_Li0EEEvPS1_S5_S5_+0x36>
   b6a80:	4290      	cmp	r0, r2
   b6a82:	d213      	bcs.n	b6aac <_ZN5spark6VectorI6StringNS_16DefaultAllocatorEE4moveIS1_Li0EEEvPS1_S5_S5_+0x38>
            --end;
   b6a84:	f1a2 0610 	sub.w	r6, r2, #16
            dest += end - p - 1;
   b6a88:	1a75      	subs	r5, r6, r1
   b6a8a:	f1a1 0710 	sub.w	r7, r1, #16
   b6a8e:	442c      	add	r4, r5
            for (; end != p; --end, --dest) {
   b6a90:	42b7      	cmp	r7, r6
   b6a92:	d018      	beq.n	b6ac6 <_ZN5spark6VectorI6StringNS_16DefaultAllocatorEE4moveIS1_Li0EEEvPS1_S5_S5_+0x52>
                new(dest) T(std::move(*end));
   b6a94:	b11c      	cbz	r4, b6a9e <_ZN5spark6VectorI6StringNS_16DefaultAllocatorEE4moveIS1_Li0EEEvPS1_S5_S5_+0x2a>
   b6a96:	4631      	mov	r1, r6
   b6a98:	4620      	mov	r0, r4
   b6a9a:	f7fe fcb9 	bl	b5410 <_ZN6StringC1EOS_>
                end->~T();
   b6a9e:	4630      	mov	r0, r6
   b6aa0:	f7fe fc3a 	bl	b5318 <_ZN6StringD1Ev>
            for (; end != p; --end, --dest) {
   b6aa4:	3e10      	subs	r6, #16
   b6aa6:	3c10      	subs	r4, #16
   b6aa8:	e7f2      	b.n	b6a90 <_ZN5spark6VectorI6StringNS_16DefaultAllocatorEE4moveIS1_Li0EEEvPS1_S5_S5_+0x1c>
        } else if (dest != p) {
   b6aaa:	d00c      	beq.n	b6ac6 <_ZN5spark6VectorI6StringNS_16DefaultAllocatorEE4moveIS1_Li0EEEvPS1_S5_S5_+0x52>
            for (; p != end; ++p, ++dest) {
   b6aac:	42b5      	cmp	r5, r6
   b6aae:	d00a      	beq.n	b6ac6 <_ZN5spark6VectorI6StringNS_16DefaultAllocatorEE4moveIS1_Li0EEEvPS1_S5_S5_+0x52>
                new(dest) T(std::move(*p));
   b6ab0:	b11c      	cbz	r4, b6aba <_ZN5spark6VectorI6StringNS_16DefaultAllocatorEE4moveIS1_Li0EEEvPS1_S5_S5_+0x46>
   b6ab2:	4629      	mov	r1, r5
   b6ab4:	4620      	mov	r0, r4
   b6ab6:	f7fe fcab 	bl	b5410 <_ZN6StringC1EOS_>
                p->~T();
   b6aba:	4628      	mov	r0, r5
   b6abc:	f7fe fc2c 	bl	b5318 <_ZN6StringD1Ev>
            for (; p != end; ++p, ++dest) {
   b6ac0:	3510      	adds	r5, #16
   b6ac2:	3410      	adds	r4, #16
   b6ac4:	e7f2      	b.n	b6aac <_ZN5spark6VectorI6StringNS_16DefaultAllocatorEE4moveIS1_Li0EEEvPS1_S5_S5_+0x38>
    }
   b6ac6:	bdf8      	pop	{r3, r4, r5, r6, r7, pc}

000b6ac8 <_ZN5spark6VectorI6StringNS_16DefaultAllocatorEE7reallocIS1_Li0EEEbi>:
    bool realloc(int n) {
   b6ac8:	b570      	push	{r4, r5, r6, lr}
        if (n > 0) {
   b6aca:	1e0e      	subs	r6, r1, #0
    bool realloc(int n) {
   b6acc:	4605      	mov	r5, r0
        if (n > 0) {
   b6ace:	dd11      	ble.n	b6af4 <_ZN5spark6VectorI6StringNS_16DefaultAllocatorEE7reallocIS1_Li0EEEbi+0x2c>
    return ::malloc(size);
   b6ad0:	0130      	lsls	r0, r6, #4
   b6ad2:	f7fe fa93 	bl	b4ffc <malloc>
            if (!d) {
   b6ad6:	4604      	mov	r4, r0
   b6ad8:	b158      	cbz	r0, b6af2 <_ZN5spark6VectorI6StringNS_16DefaultAllocatorEE7reallocIS1_Li0EEEbi+0x2a>
            move(d, data_, data_ + size_);
   b6ada:	e9d5 1200 	ldrd	r1, r2, [r5]
   b6ade:	eb01 1202 	add.w	r2, r1, r2, lsl #4
   b6ae2:	f7ff ffc7 	bl	b6a74 <_ZN5spark6VectorI6StringNS_16DefaultAllocatorEE4moveIS1_Li0EEEvPS1_S5_S5_>
    ::free(ptr);
   b6ae6:	6828      	ldr	r0, [r5, #0]
   b6ae8:	f7fe fa90 	bl	b500c <free>
        data_ = d;
   b6aec:	602c      	str	r4, [r5, #0]
        capacity_ = n;
   b6aee:	60ae      	str	r6, [r5, #8]
        return true;
   b6af0:	2001      	movs	r0, #1
    }
   b6af2:	bd70      	pop	{r4, r5, r6, pc}
        T* d = nullptr;
   b6af4:	2400      	movs	r4, #0
   b6af6:	e7f6      	b.n	b6ae6 <_ZN5spark6VectorI6StringNS_16DefaultAllocatorEE7reallocIS1_Li0EEEbi+0x1e>

000b6af8 <_ZN5spark6detail9LogFilterC1E8LogLevelNS_6VectorINS_17LogCategoryFilterENS_16DefaultAllocatorEEE>:
spark::detail::LogFilter::LogFilter(LogLevel level, LogCategoryFilters filters) :
   b6af8:	e92d 4ff0 	stmdb	sp!, {r4, r5, r6, r7, r8, r9, sl, fp, lr}
   b6afc:	4690      	mov	r8, r2
   b6afe:	b095      	sub	sp, #84	; 0x54
        capacity_(0) {
   b6b00:	2300      	movs	r3, #0
   b6b02:	9103      	str	r1, [sp, #12]
    return size_;
   b6b04:	f8d8 1004 	ldr.w	r1, [r8, #4]
        capacity_(0) {
   b6b08:	930a      	str	r3, [sp, #40]	; 0x28
        level_(LOG_LEVEL_NONE) { // Fallback level that will be used in case of construction errors
   b6b0a:	2246      	movs	r2, #70	; 0x46
    if (n > capacity_ && !realloc(n)) {
   b6b0c:	4299      	cmp	r1, r3
        capacity_(0) {
   b6b0e:	e9c0 3300 	strd	r3, r3, [r0]
   b6b12:	e9c0 3302 	strd	r3, r3, [r0, #8]
   b6b16:	e9c0 3304 	strd	r3, r3, [r0, #16]
   b6b1a:	e9cd 3308 	strd	r3, r3, [sp, #32]
spark::detail::LogFilter::LogFilter(LogLevel level, LogCategoryFilters filters) :
   b6b1e:	4604      	mov	r4, r0
        level_(LOG_LEVEL_NONE) { // Fallback level that will be used in case of construction errors
   b6b20:	7602      	strb	r2, [r0, #24]
    if (n > capacity_ && !realloc(n)) {
   b6b22:	dc23      	bgt.n	b6b6c <_ZN5spark6detail9LogFilterC1E8LogLevelNS_6VectorINS_17LogCategoryFilterENS_16DefaultAllocatorEEE+0x74>
    return data_ + size_;
   b6b24:	e9d8 5700 	ldrd	r5, r7, [r8]
   b6b28:	2314      	movs	r3, #20
   b6b2a:	fb03 5707 	mla	r7, r3, r7, r5
    for (LogCategoryFilter &filter: filters) {
   b6b2e:	42af      	cmp	r7, r5
   b6b30:	d03b      	beq.n	b6baa <_ZN5spark6detail9LogFilterC1E8LogLevelNS_6VectorINS_17LogCategoryFilterENS_16DefaultAllocatorEEE+0xb2>
        cats.append(std::move(filter.cat_));
   b6b32:	4629      	mov	r1, r5
   b6b34:	a80b      	add	r0, sp, #44	; 0x2c
   b6b36:	f7fe fc6b 	bl	b5410 <_ZN6StringC1EOS_>
    return insert(size_, std::move(value));
   b6b3a:	a90b      	add	r1, sp, #44	; 0x2c
   b6b3c:	a80f      	add	r0, sp, #60	; 0x3c
   b6b3e:	9e09      	ldr	r6, [sp, #36]	; 0x24
   b6b40:	f7fe fc66 	bl	b5410 <_ZN6StringC1EOS_>
    if (size_ + 1 > capacity_ && !realloc(size_ + 1)) {
   b6b44:	e9dd 1309 	ldrd	r1, r3, [sp, #36]	; 0x24
   b6b48:	4299      	cmp	r1, r3
   b6b4a:	da1b      	bge.n	b6b84 <_ZN5spark6detail9LogFilterC1E8LogLevelNS_6VectorINS_17LogCategoryFilterENS_16DefaultAllocatorEEE+0x8c>
    T* const p = data_ + i;
   b6b4c:	9b08      	ldr	r3, [sp, #32]
    move(p + 1, p, data_ + size_);
   b6b4e:	9a09      	ldr	r2, [sp, #36]	; 0x24
    T* const p = data_ + i;
   b6b50:	eb03 1606 	add.w	r6, r3, r6, lsl #4
    move(p + 1, p, data_ + size_);
   b6b54:	eb03 1202 	add.w	r2, r3, r2, lsl #4
   b6b58:	4631      	mov	r1, r6
   b6b5a:	f106 0010 	add.w	r0, r6, #16
   b6b5e:	f7ff ff89 	bl	b6a74 <_ZN5spark6VectorI6StringNS_16DefaultAllocatorEE4moveIS1_Li0EEEvPS1_S5_S5_>
    new(p) T(std::move(value));
   b6b62:	b9ee      	cbnz	r6, b6ba0 <_ZN5spark6detail9LogFilterC1E8LogLevelNS_6VectorINS_17LogCategoryFilterENS_16DefaultAllocatorEEE+0xa8>
    ++size_;
   b6b64:	9b09      	ldr	r3, [sp, #36]	; 0x24
   b6b66:	3301      	adds	r3, #1
   b6b68:	9309      	str	r3, [sp, #36]	; 0x24
    return true;
   b6b6a:	e011      	b.n	b6b90 <_ZN5spark6detail9LogFilterC1E8LogLevelNS_6VectorINS_17LogCategoryFilterENS_16DefaultAllocatorEEE+0x98>
    if (n > capacity_ && !realloc(n)) {
   b6b6c:	a808      	add	r0, sp, #32
   b6b6e:	f7ff ffab 	bl	b6ac8 <_ZN5spark6VectorI6StringNS_16DefaultAllocatorEE7reallocIS1_Li0EEEbi>
   b6b72:	2800      	cmp	r0, #0
   b6b74:	d1d6      	bne.n	b6b24 <_ZN5spark6detail9LogFilterC1E8LogLevelNS_6VectorINS_17LogCategoryFilterENS_16DefaultAllocatorEEE+0x2c>
        return;
   b6b76:	a808      	add	r0, sp, #32
   b6b78:	f7fe feda 	bl	b5930 <_ZN5spark6VectorI6StringNS_16DefaultAllocatorEED1Ev>
}
   b6b7c:	4620      	mov	r0, r4
   b6b7e:	b015      	add	sp, #84	; 0x54
   b6b80:	e8bd 8ff0 	ldmia.w	sp!, {r4, r5, r6, r7, r8, r9, sl, fp, pc}
    if (size_ + 1 > capacity_ && !realloc(size_ + 1)) {
   b6b84:	3101      	adds	r1, #1
   b6b86:	a808      	add	r0, sp, #32
   b6b88:	f7ff ff9e 	bl	b6ac8 <_ZN5spark6VectorI6StringNS_16DefaultAllocatorEE7reallocIS1_Li0EEEbi>
   b6b8c:	2800      	cmp	r0, #0
   b6b8e:	d1dd      	bne.n	b6b4c <_ZN5spark6detail9LogFilterC1E8LogLevelNS_6VectorINS_17LogCategoryFilterENS_16DefaultAllocatorEEE+0x54>
    return insert(size_, std::move(value));
   b6b90:	a80f      	add	r0, sp, #60	; 0x3c
   b6b92:	f7fe fbc1 	bl	b5318 <_ZN6StringD1Ev>
        cats.append(std::move(filter.cat_));
   b6b96:	a80b      	add	r0, sp, #44	; 0x2c
   b6b98:	f7fe fbbe 	bl	b5318 <_ZN6StringD1Ev>
    for (LogCategoryFilter &filter: filters) {
   b6b9c:	3514      	adds	r5, #20
   b6b9e:	e7c6      	b.n	b6b2e <_ZN5spark6detail9LogFilterC1E8LogLevelNS_6VectorINS_17LogCategoryFilterENS_16DefaultAllocatorEEE+0x36>
    new(p) T(std::move(value));
   b6ba0:	a90f      	add	r1, sp, #60	; 0x3c
   b6ba2:	4630      	mov	r0, r6
   b6ba4:	f7fe fc34 	bl	b5410 <_ZN6StringC1EOS_>
   b6ba8:	e7dc      	b.n	b6b64 <_ZN5spark6detail9LogFilterC1E8LogLevelNS_6VectorINS_17LogCategoryFilterENS_16DefaultAllocatorEEE+0x6c>
        capacity_(0) {
   b6baa:	2600      	movs	r6, #0
   b6bac:	e9cd 660b 	strd	r6, r6, [sp, #44]	; 0x2c
   b6bb0:	960d      	str	r6, [sp, #52]	; 0x34
    for (int i = 0; i < cats.size(); ++i) {
   b6bb2:	f04f 0914 	mov.w	r9, #20
    return data_[i];
   b6bb6:	e9dd 2308 	ldrd	r2, r3, [sp, #32]
   b6bba:	429e      	cmp	r6, r3
   b6bbc:	da7c      	bge.n	b6cb8 <_ZN5spark6detail9LogFilterC1E8LogLevelNS_6VectorINS_17LogCategoryFilterENS_16DefaultAllocatorEEE+0x1c0>
	char operator [] (unsigned int index) const;
	char& operator [] (unsigned int index);
	void getBytes(unsigned char *buf, unsigned int bufsize, unsigned int index=0) const;
	void toCharArray(char *buf, unsigned int bufsize, unsigned int index=0) const
		{getBytes((unsigned char *)buf, bufsize, index);}
	const char * c_str() const { return buffer; }
   b6bbe:	0133      	lsls	r3, r6, #4
   b6bc0:	58d3      	ldr	r3, [r2, r3]
        const char *category = cats.at(i).c_str();
   b6bc2:	9306      	str	r3, [sp, #24]
        if (!category) {
   b6bc4:	b90b      	cbnz	r3, b6bca <_ZN5spark6detail9LogFilterC1E8LogLevelNS_6VectorINS_17LogCategoryFilterENS_16DefaultAllocatorEEE+0xd2>
    for (int i = 0; i < cats.size(); ++i) {
   b6bc6:	3601      	adds	r6, #1
   b6bc8:	e7f5      	b.n	b6bb6 <_ZN5spark6detail9LogFilterC1E8LogLevelNS_6VectorINS_17LogCategoryFilterENS_16DefaultAllocatorEEE+0xbe>
        size_t size = 0; // Name length
   b6bca:	2300      	movs	r3, #0
   b6bcc:	9307      	str	r3, [sp, #28]
   b6bce:	fb09 f306 	mul.w	r3, r9, r6
   b6bd2:	9302      	str	r3, [sp, #8]
        Vector<Node> *pNodes = &nodes; // Root nodes
   b6bd4:	ad0b      	add	r5, sp, #44	; 0x2c
        while ((name = nextSubcategoryName(category, size))) {
   b6bd6:	a907      	add	r1, sp, #28
   b6bd8:	a806      	add	r0, sp, #24
   b6bda:	f7ff faf8 	bl	b61ce <_ZN12_GLOBAL__N_119nextSubcategoryNameERPKcRj>
   b6bde:	4682      	mov	sl, r0
   b6be0:	2800      	cmp	r0, #0
   b6be2:	d0f0      	beq.n	b6bc6 <_ZN5spark6detail9LogFilterC1E8LogLevelNS_6VectorINS_17LogCategoryFilterENS_16DefaultAllocatorEEE+0xce>
            bool found = false;
   b6be4:	f04f 0300 	mov.w	r3, #0
   b6be8:	f88d 3017 	strb.w	r3, [sp, #23]
            const int index = nodeIndex(*pNodes, name, size, found);
   b6bec:	4601      	mov	r1, r0
   b6bee:	9a07      	ldr	r2, [sp, #28]
   b6bf0:	f10d 0317 	add.w	r3, sp, #23
   b6bf4:	4628      	mov	r0, r5
   b6bf6:	f7ff fb79 	bl	b62ec <_ZN5spark6detail9LogFilter9nodeIndexERKNS_6VectorINS1_4NodeENS_16DefaultAllocatorEEEPKcjRb>
            if (!found && !pNodes->insert(index, Node(name, size))) { // Add node
   b6bfa:	f89d 7017 	ldrb.w	r7, [sp, #23]
            const int index = nodeIndex(*pNodes, name, size, found);
   b6bfe:	9001      	str	r0, [sp, #4]
            if (!found && !pNodes->insert(index, Node(name, size))) { // Add node
   b6c00:	2f00      	cmp	r7, #0
   b6c02:	d14a      	bne.n	b6c9a <_ZN5spark6detail9LogFilterC1E8LogLevelNS_6VectorINS_17LogCategoryFilterENS_16DefaultAllocatorEEE+0x1a2>
   b6c04:	f8bd 301c 	ldrh.w	r3, [sp, #28]
            level(-1) {
   b6c08:	f8ad 3040 	strh.w	r3, [sp, #64]	; 0x40
        capacity_(0) {
   b6c0c:	e9cd 7711 	strd	r7, r7, [sp, #68]	; 0x44
   b6c10:	f64f 73ff 	movw	r3, #65535	; 0xffff
   b6c14:	f8cd a03c 	str.w	sl, [sp, #60]	; 0x3c
   b6c18:	f8ad 3042 	strh.w	r3, [sp, #66]	; 0x42
   b6c1c:	9713      	str	r7, [sp, #76]	; 0x4c
    if (size_ + 1 > capacity_ && !realloc(size_ + 1)) {
   b6c1e:	e9d5 3201 	ldrd	r3, r2, [r5, #4]
   b6c22:	4293      	cmp	r3, r2
   b6c24:	db17      	blt.n	b6c56 <_ZN5spark6detail9LogFilterC1E8LogLevelNS_6VectorINS_17LogCategoryFilterENS_16DefaultAllocatorEEE+0x15e>
   b6c26:	f103 0a01 	add.w	sl, r3, #1
        if (n > 0) {
   b6c2a:	f1ba 0f00 	cmp.w	sl, #0
   b6c2e:	dd30      	ble.n	b6c92 <_ZN5spark6detail9LogFilterC1E8LogLevelNS_6VectorINS_17LogCategoryFilterENS_16DefaultAllocatorEEE+0x19a>
    return ::malloc(size);
   b6c30:	fb09 f00a 	mul.w	r0, r9, sl
   b6c34:	f7fe f9e2 	bl	b4ffc <malloc>
            if (!d) {
   b6c38:	4683      	mov	fp, r0
   b6c3a:	b360      	cbz	r0, b6c96 <_ZN5spark6detail9LogFilterC1E8LogLevelNS_6VectorINS_17LogCategoryFilterENS_16DefaultAllocatorEEE+0x19e>
            move(d, data_, data_ + size_);
   b6c3c:	e9d5 1200 	ldrd	r1, r2, [r5]
   b6c40:	fb09 1202 	mla	r2, r9, r2, r1
   b6c44:	f7ff feea 	bl	b6a1c <_ZN5spark6VectorINS_6detail9LogFilter4NodeENS_16DefaultAllocatorEE4moveIS3_Li0EEEvPS3_S7_S7_>
    ::free(ptr);
   b6c48:	6828      	ldr	r0, [r5, #0]
   b6c4a:	f7fe f9df 	bl	b500c <free>
        data_ = d;
   b6c4e:	f8c5 b000 	str.w	fp, [r5]
        capacity_ = n;
   b6c52:	f8c5 a008 	str.w	sl, [r5, #8]
    T* const p = data_ + i;
   b6c56:	682b      	ldr	r3, [r5, #0]
   b6c58:	9a01      	ldr	r2, [sp, #4]
   b6c5a:	fb09 3a02 	mla	sl, r9, r2, r3
    move(p + 1, p, data_ + size_);
   b6c5e:	686a      	ldr	r2, [r5, #4]
   b6c60:	4651      	mov	r1, sl
   b6c62:	fb09 3202 	mla	r2, r9, r2, r3
   b6c66:	f10a 0014 	add.w	r0, sl, #20
   b6c6a:	f7ff fed7 	bl	b6a1c <_ZN5spark6VectorINS_6detail9LogFilter4NodeENS_16DefaultAllocatorEE4moveIS3_Li0EEEvPS3_S7_S7_>
    new(p) T(std::move(value));
   b6c6e:	f1ba 0f00 	cmp.w	sl, #0
   b6c72:	d003      	beq.n	b6c7c <_ZN5spark6detail9LogFilterC1E8LogLevelNS_6VectorINS_17LogCategoryFilterENS_16DefaultAllocatorEEE+0x184>
   b6c74:	a90f      	add	r1, sp, #60	; 0x3c
   b6c76:	4650      	mov	r0, sl
   b6c78:	f7ff fb24 	bl	b62c4 <_ZN5spark6detail9LogFilter4NodeC1EOS2_>
    ++size_;
   b6c7c:	686b      	ldr	r3, [r5, #4]
   b6c7e:	3301      	adds	r3, #1
   b6c80:	606b      	str	r3, [r5, #4]
struct spark::detail::LogFilter::Node {
   b6c82:	a811      	add	r0, sp, #68	; 0x44
   b6c84:	f7ff fcdc 	bl	b6640 <_ZN5spark6VectorINS_6detail9LogFilter4NodeENS_16DefaultAllocatorEED1Ev>
            if (!found && !pNodes->insert(index, Node(name, size))) { // Add node
   b6c88:	b13f      	cbz	r7, b6c9a <_ZN5spark6detail9LogFilterC1E8LogLevelNS_6VectorINS_17LogCategoryFilterENS_16DefaultAllocatorEEE+0x1a2>
    Vector<Node> nodes;
   b6c8a:	a80b      	add	r0, sp, #44	; 0x2c
   b6c8c:	f7ff fcd8 	bl	b6640 <_ZN5spark6VectorINS_6detail9LogFilter4NodeENS_16DefaultAllocatorEED1Ev>
   b6c90:	e771      	b.n	b6b76 <_ZN5spark6detail9LogFilterC1E8LogLevelNS_6VectorINS_17LogCategoryFilterENS_16DefaultAllocatorEEE+0x7e>
        T* d = nullptr;
   b6c92:	46bb      	mov	fp, r7
   b6c94:	e7d8      	b.n	b6c48 <_ZN5spark6detail9LogFilterC1E8LogLevelNS_6VectorINS_17LogCategoryFilterENS_16DefaultAllocatorEEE+0x150>
            if (!found && !pNodes->insert(index, Node(name, size))) { // Add node
   b6c96:	2701      	movs	r7, #1
   b6c98:	e7f3      	b.n	b6c82 <_ZN5spark6detail9LogFilterC1E8LogLevelNS_6VectorINS_17LogCategoryFilterENS_16DefaultAllocatorEEE+0x18a>
    return data_[i];
   b6c9a:	9b01      	ldr	r3, [sp, #4]
   b6c9c:	682d      	ldr	r5, [r5, #0]
   b6c9e:	fb09 5503 	mla	r5, r9, r3, r5
            if (!*category) { // Check if it's last subcategory
   b6ca2:	9b06      	ldr	r3, [sp, #24]
   b6ca4:	781b      	ldrb	r3, [r3, #0]
   b6ca6:	b92b      	cbnz	r3, b6cb4 <_ZN5spark6detail9LogFilterC1E8LogLevelNS_6VectorINS_17LogCategoryFilterENS_16DefaultAllocatorEEE+0x1bc>
                node.level = filters.at(i).level_;
   b6ca8:	f8d8 3000 	ldr.w	r3, [r8]
   b6cac:	9a02      	ldr	r2, [sp, #8]
   b6cae:	4413      	add	r3, r2
   b6cb0:	7c1b      	ldrb	r3, [r3, #16]
   b6cb2:	80eb      	strh	r3, [r5, #6]
            pNodes = &node.nodes;
   b6cb4:	3508      	adds	r5, #8
        while ((name = nextSubcategoryName(category, size))) {
   b6cb6:	e78e      	b.n	b6bd6 <_ZN5spark6detail9LogFilterC1E8LogLevelNS_6VectorINS_17LogCategoryFilterENS_16DefaultAllocatorEEE+0xde>
      _Tp __tmp = _GLIBCXX_MOVE(__a);
   b6cb8:	6821      	ldr	r1, [r4, #0]
      __a = _GLIBCXX_MOVE(__b);
   b6cba:	6022      	str	r2, [r4, #0]
      _Tp __tmp = _GLIBCXX_MOVE(__a);
   b6cbc:	6862      	ldr	r2, [r4, #4]
      __a = _GLIBCXX_MOVE(__b);
   b6cbe:	6063      	str	r3, [r4, #4]
      _Tp __tmp = _GLIBCXX_MOVE(__a);
   b6cc0:	68a3      	ldr	r3, [r4, #8]
      __b = _GLIBCXX_MOVE(__tmp);
   b6cc2:	9209      	str	r2, [sp, #36]	; 0x24
      __a = _GLIBCXX_MOVE(__b);
   b6cc4:	9a0a      	ldr	r2, [sp, #40]	; 0x28
      __b = _GLIBCXX_MOVE(__tmp);
   b6cc6:	930a      	str	r3, [sp, #40]	; 0x28
      _Tp __tmp = _GLIBCXX_MOVE(__a);
   b6cc8:	68e3      	ldr	r3, [r4, #12]
      __a = _GLIBCXX_MOVE(__b);
   b6cca:	60a2      	str	r2, [r4, #8]
   b6ccc:	9a0b      	ldr	r2, [sp, #44]	; 0x2c
      __b = _GLIBCXX_MOVE(__tmp);
   b6cce:	930b      	str	r3, [sp, #44]	; 0x2c
      _Tp __tmp = _GLIBCXX_MOVE(__a);
   b6cd0:	6923      	ldr	r3, [r4, #16]
      __a = _GLIBCXX_MOVE(__b);
   b6cd2:	60e2      	str	r2, [r4, #12]
   b6cd4:	9a0c      	ldr	r2, [sp, #48]	; 0x30
      __b = _GLIBCXX_MOVE(__tmp);
   b6cd6:	930c      	str	r3, [sp, #48]	; 0x30
      _Tp __tmp = _GLIBCXX_MOVE(__a);
   b6cd8:	6963      	ldr	r3, [r4, #20]
      __a = _GLIBCXX_MOVE(__b);
   b6cda:	6122      	str	r2, [r4, #16]
   b6cdc:	9a0d      	ldr	r2, [sp, #52]	; 0x34
      __b = _GLIBCXX_MOVE(__tmp);
   b6cde:	930d      	str	r3, [sp, #52]	; 0x34
    level_ = level;
   b6ce0:	9b03      	ldr	r3, [sp, #12]
   b6ce2:	9108      	str	r1, [sp, #32]
      __a = _GLIBCXX_MOVE(__b);
   b6ce4:	6162      	str	r2, [r4, #20]
   b6ce6:	7623      	strb	r3, [r4, #24]
   b6ce8:	e7cf      	b.n	b6c8a <_ZN5spark6detail9LogFilterC1E8LogLevelNS_6VectorINS_17LogCategoryFilterENS_16DefaultAllocatorEEE+0x192>
	...

000b6cec <_ZN5spark16StreamLogHandlerC1ER5Print8LogLevelNS_6VectorINS_17LogCategoryFilterENS_16DefaultAllocatorEEE>:
inline spark::StreamLogHandler::StreamLogHandler(Print &stream, LogLevel level, LogCategoryFilters filters) :
   b6cec:	b5f0      	push	{r4, r5, r6, r7, lr}
   b6cee:	4604      	mov	r4, r0
   b6cf0:	b087      	sub	sp, #28
   b6cf2:	460d      	mov	r5, r1
        filter_(level, filters) {
   b6cf4:	4626      	mov	r6, r4
        stream_(&stream) {
   b6cf6:	4619      	mov	r1, r3
   b6cf8:	4668      	mov	r0, sp
inline spark::StreamLogHandler::StreamLogHandler(Print &stream, LogLevel level, LogCategoryFilters filters) :
   b6cfa:	4617      	mov	r7, r2
        stream_(&stream) {
   b6cfc:	f7fd fb67 	bl	b43ce <_ZN5spark6VectorINS_17LogCategoryFilterENS_16DefaultAllocatorEEC1ERKS3_>
        filter_(level, filters) {
   b6d00:	4b0b      	ldr	r3, [pc, #44]	; (b6d30 <_ZN5spark16StreamLogHandlerC1ER5Print8LogLevelNS_6VectorINS_17LogCategoryFilterENS_16DefaultAllocatorEEE+0x44>)
   b6d02:	f846 3b04 	str.w	r3, [r6], #4
   b6d06:	4669      	mov	r1, sp
   b6d08:	a803      	add	r0, sp, #12
   b6d0a:	f7fd fb60 	bl	b43ce <_ZN5spark6VectorINS_17LogCategoryFilterENS_16DefaultAllocatorEEC1ERKS3_>
   b6d0e:	aa03      	add	r2, sp, #12
   b6d10:	4639      	mov	r1, r7
   b6d12:	4630      	mov	r0, r6
   b6d14:	f7ff fef0 	bl	b6af8 <_ZN5spark6detail9LogFilterC1E8LogLevelNS_6VectorINS_17LogCategoryFilterENS_16DefaultAllocatorEEE>
   b6d18:	a803      	add	r0, sp, #12
   b6d1a:	f7fd fb17 	bl	b434c <_ZN5spark6VectorINS_17LogCategoryFilterENS_16DefaultAllocatorEED1Ev>
        stream_(&stream) {
   b6d1e:	4668      	mov	r0, sp
   b6d20:	f7fd fb14 	bl	b434c <_ZN5spark6VectorINS_17LogCategoryFilterENS_16DefaultAllocatorEED1Ev>
   b6d24:	4b03      	ldr	r3, [pc, #12]	; (b6d34 <_ZN5spark16StreamLogHandlerC1ER5Print8LogLevelNS_6VectorINS_17LogCategoryFilterENS_16DefaultAllocatorEEE+0x48>)
   b6d26:	6023      	str	r3, [r4, #0]
}
   b6d28:	4620      	mov	r0, r4
        stream_(&stream) {
   b6d2a:	6225      	str	r5, [r4, #32]
}
   b6d2c:	b007      	add	sp, #28
   b6d2e:	bdf0      	pop	{r4, r5, r6, r7, pc}
   b6d30:	000b89d0 	.word	0x000b89d0
   b6d34:	000b8c08 	.word	0x000b8c08

000b6d38 <_ZN5spark24DefaultLogHandlerFactory13createHandlerEPKc8LogLevelNS_6VectorINS_17LogCategoryFilterENS_16DefaultAllocatorEEEP5PrintRKNS_9JSONValueE>:
            Print *stream, const JSONValue &params) {
   b6d38:	b5f0      	push	{r4, r5, r6, r7, lr}
   b6d3a:	460f      	mov	r7, r1
   b6d3c:	b085      	sub	sp, #20
    if (strcmp(type, "JSONStreamLogHandler") == 0) {
   b6d3e:	491d      	ldr	r1, [pc, #116]	; (b6db4 <_ZN5spark24DefaultLogHandlerFactory13createHandlerEPKc8LogLevelNS_6VectorINS_17LogCategoryFilterENS_16DefaultAllocatorEEEP5PrintRKNS_9JSONValueE+0x7c>)
            Print *stream, const JSONValue &params) {
   b6d40:	9c0a      	ldr	r4, [sp, #40]	; 0x28
    if (strcmp(type, "JSONStreamLogHandler") == 0) {
   b6d42:	4638      	mov	r0, r7
            Print *stream, const JSONValue &params) {
   b6d44:	4616      	mov	r6, r2
   b6d46:	461d      	mov	r5, r3
    if (strcmp(type, "JSONStreamLogHandler") == 0) {
   b6d48:	f7fd f968 	bl	b401c <strcmp>
   b6d4c:	b9c0      	cbnz	r0, b6d80 <_ZN5spark24DefaultLogHandlerFactory13createHandlerEPKc8LogLevelNS_6VectorINS_17LogCategoryFilterENS_16DefaultAllocatorEEEP5PrintRKNS_9JSONValueE+0x48>
        if (!stream) {
   b6d4e:	b1a4      	cbz	r4, b6d7a <_ZN5spark24DefaultLogHandlerFactory13createHandlerEPKc8LogLevelNS_6VectorINS_17LogCategoryFilterENS_16DefaultAllocatorEEEP5PrintRKNS_9JSONValueE+0x42>
        return new(std::nothrow) JSONStreamLogHandler(*stream, level, std::move(filters));
   b6d50:	4629      	mov	r1, r5
   b6d52:	a801      	add	r0, sp, #4
   b6d54:	f7ff fcbc 	bl	b66d0 <_ZN5spark6VectorINS_17LogCategoryFilterENS_16DefaultAllocatorEEC1EOS3_>
   b6d58:	4917      	ldr	r1, [pc, #92]	; (b6db8 <_ZN5spark24DefaultLogHandlerFactory13createHandlerEPKc8LogLevelNS_6VectorINS_17LogCategoryFilterENS_16DefaultAllocatorEEEP5PrintRKNS_9JSONValueE+0x80>)
   b6d5a:	2024      	movs	r0, #36	; 0x24
   b6d5c:	f001 face 	bl	b82fc <_ZnwjRKSt9nothrow_t>
   b6d60:	4605      	mov	r5, r0
   b6d62:	b130      	cbz	r0, b6d72 <_ZN5spark24DefaultLogHandlerFactory13createHandlerEPKc8LogLevelNS_6VectorINS_17LogCategoryFilterENS_16DefaultAllocatorEEEP5PrintRKNS_9JSONValueE+0x3a>
    using StreamLogHandler::StreamLogHandler;
   b6d64:	ab01      	add	r3, sp, #4
   b6d66:	4632      	mov	r2, r6
   b6d68:	4621      	mov	r1, r4
   b6d6a:	f7ff ffbf 	bl	b6cec <_ZN5spark16StreamLogHandlerC1ER5Print8LogLevelNS_6VectorINS_17LogCategoryFilterENS_16DefaultAllocatorEEE>
   b6d6e:	4b13      	ldr	r3, [pc, #76]	; (b6dbc <_ZN5spark24DefaultLogHandlerFactory13createHandlerEPKc8LogLevelNS_6VectorINS_17LogCategoryFilterENS_16DefaultAllocatorEEEP5PrintRKNS_9JSONValueE+0x84>)
   b6d70:	602b      	str	r3, [r5, #0]
        return new(std::nothrow) StreamLogHandler(*stream, level, std::move(filters));
   b6d72:	a801      	add	r0, sp, #4
   b6d74:	f7fd faea 	bl	b434c <_ZN5spark6VectorINS_17LogCategoryFilterENS_16DefaultAllocatorEED1Ev>
   b6d78:	462c      	mov	r4, r5
}
   b6d7a:	4620      	mov	r0, r4
   b6d7c:	b005      	add	sp, #20
   b6d7e:	bdf0      	pop	{r4, r5, r6, r7, pc}
    } else if (strcmp(type, "StreamLogHandler") == 0) {
   b6d80:	490f      	ldr	r1, [pc, #60]	; (b6dc0 <_ZN5spark24DefaultLogHandlerFactory13createHandlerEPKc8LogLevelNS_6VectorINS_17LogCategoryFilterENS_16DefaultAllocatorEEEP5PrintRKNS_9JSONValueE+0x88>)
   b6d82:	4638      	mov	r0, r7
   b6d84:	f7fd f94a 	bl	b401c <strcmp>
   b6d88:	b990      	cbnz	r0, b6db0 <_ZN5spark24DefaultLogHandlerFactory13createHandlerEPKc8LogLevelNS_6VectorINS_17LogCategoryFilterENS_16DefaultAllocatorEEEP5PrintRKNS_9JSONValueE+0x78>
        if (!stream) {
   b6d8a:	2c00      	cmp	r4, #0
   b6d8c:	d0f5      	beq.n	b6d7a <_ZN5spark24DefaultLogHandlerFactory13createHandlerEPKc8LogLevelNS_6VectorINS_17LogCategoryFilterENS_16DefaultAllocatorEEEP5PrintRKNS_9JSONValueE+0x42>
        return new(std::nothrow) StreamLogHandler(*stream, level, std::move(filters));
   b6d8e:	4629      	mov	r1, r5
   b6d90:	a801      	add	r0, sp, #4
   b6d92:	f7ff fc9d 	bl	b66d0 <_ZN5spark6VectorINS_17LogCategoryFilterENS_16DefaultAllocatorEEC1EOS3_>
   b6d96:	4908      	ldr	r1, [pc, #32]	; (b6db8 <_ZN5spark24DefaultLogHandlerFactory13createHandlerEPKc8LogLevelNS_6VectorINS_17LogCategoryFilterENS_16DefaultAllocatorEEEP5PrintRKNS_9JSONValueE+0x80>)
   b6d98:	2024      	movs	r0, #36	; 0x24
   b6d9a:	f001 faaf 	bl	b82fc <_ZnwjRKSt9nothrow_t>
   b6d9e:	4605      	mov	r5, r0
   b6da0:	2800      	cmp	r0, #0
   b6da2:	d0e6      	beq.n	b6d72 <_ZN5spark24DefaultLogHandlerFactory13createHandlerEPKc8LogLevelNS_6VectorINS_17LogCategoryFilterENS_16DefaultAllocatorEEEP5PrintRKNS_9JSONValueE+0x3a>
   b6da4:	ab01      	add	r3, sp, #4
   b6da6:	4632      	mov	r2, r6
   b6da8:	4621      	mov	r1, r4
   b6daa:	f7ff ff9f 	bl	b6cec <_ZN5spark16StreamLogHandlerC1ER5Print8LogLevelNS_6VectorINS_17LogCategoryFilterENS_16DefaultAllocatorEEE>
   b6dae:	e7e0      	b.n	b6d72 <_ZN5spark24DefaultLogHandlerFactory13createHandlerEPKc8LogLevelNS_6VectorINS_17LogCategoryFilterENS_16DefaultAllocatorEEEP5PrintRKNS_9JSONValueE+0x3a>
            return nullptr; // Output stream is not specified
   b6db0:	2400      	movs	r4, #0
   b6db2:	e7e2      	b.n	b6d7a <_ZN5spark24DefaultLogHandlerFactory13createHandlerEPKc8LogLevelNS_6VectorINS_17LogCategoryFilterENS_16DefaultAllocatorEEEP5PrintRKNS_9JSONValueE+0x42>
   b6db4:	000b8b88 	.word	0x000b8b88
   b6db8:	000b8e19 	.word	0x000b8e19
   b6dbc:	000b8c20 	.word	0x000b8c20
   b6dc0:	000b8b8c 	.word	0x000b8b8c

000b6dc4 <_GLOBAL__sub_I__ZN5spark3LogE>:
        name_(name) {
   b6dc4:	4b01      	ldr	r3, [pc, #4]	; (b6dcc <_GLOBAL__sub_I__ZN5spark3LogE+0x8>)
   b6dc6:	4a02      	ldr	r2, [pc, #8]	; (b6dd0 <_GLOBAL__sub_I__ZN5spark3LogE+0xc>)
   b6dc8:	601a      	str	r2, [r3, #0]
#if Wiring_LogConfig

// spark::
void spark::logProcessControlRequest(ctrl_request* req) {
    JSONRequestHandler::process(req);
}
   b6dca:	4770      	bx	lr
   b6dcc:	2003e6b8 	.word	0x2003e6b8
   b6dd0:	000b8b9d 	.word	0x000b8b9d

000b6dd4 <_ZN5spark16StreamLogHandler10logMessageEPKc8LogLevelS2_RK13LogAttributes>:
void spark::StreamLogHandler::logMessage(const char *msg, LogLevel level, const char *category, const LogAttributes &attr) {
   b6dd4:	e92d 47f0 	stmdb	sp!, {r4, r5, r6, r7, r8, r9, sl, lr}
   b6dd8:	9d08      	ldr	r5, [sp, #32]
    if (stream_ == &Serial && Network.listening()) {
   b6dda:	f8d0 9020 	ldr.w	r9, [r0, #32]
void spark::StreamLogHandler::logMessage(const char *msg, LogLevel level, const char *category, const LogAttributes &attr) {
   b6dde:	4604      	mov	r4, r0
   b6de0:	460e      	mov	r6, r1
   b6de2:	4617      	mov	r7, r2
   b6de4:	4698      	mov	r8, r3
    if (stream_ == &Serial && Network.listening()) {
   b6de6:	f000 fb53 	bl	b7490 <_Z16_fetch_usbserialv>
   b6dea:	4581      	cmp	r9, r0
   b6dec:	d04c      	beq.n	b6e88 <_ZN5spark16StreamLogHandler10logMessageEPKc8LogLevelS2_RK13LogAttributes+0xb4>
    if (attr.has_time) {
   b6dee:	792b      	ldrb	r3, [r5, #4]
   b6df0:	0719      	lsls	r1, r3, #28
   b6df2:	d504      	bpl.n	b6dfe <_ZN5spark16StreamLogHandler10logMessageEPKc8LogLevelS2_RK13LogAttributes+0x2a>
        printf("%010u ", (unsigned)attr.time);
   b6df4:	696a      	ldr	r2, [r5, #20]
   b6df6:	4954      	ldr	r1, [pc, #336]	; (b6f48 <_ZN5spark16StreamLogHandler10logMessageEPKc8LogLevelS2_RK13LogAttributes+0x174>)
   b6df8:	4620      	mov	r0, r4
   b6dfa:	f7ff fadc 	bl	b63b6 <_ZN5spark16StreamLogHandler6printfEPKcz>
    if (category) {
   b6dfe:	f1b8 0f00 	cmp.w	r8, #0
   b6e02:	d00d      	beq.n	b6e20 <_ZN5spark16StreamLogHandler10logMessageEPKc8LogLevelS2_RK13LogAttributes+0x4c>
        write('[');
   b6e04:	215b      	movs	r1, #91	; 0x5b
   b6e06:	4620      	mov	r0, r4
   b6e08:	f7ff fa50 	bl	b62ac <_ZN5spark16StreamLogHandler5writeEc>
        write(category);
   b6e0c:	4641      	mov	r1, r8
   b6e0e:	4620      	mov	r0, r4
   b6e10:	f7ff fa3d 	bl	b628e <_ZN5spark16StreamLogHandler5writeEPKc>
        write("] ", 2);
   b6e14:	6823      	ldr	r3, [r4, #0]
   b6e16:	494d      	ldr	r1, [pc, #308]	; (b6f4c <_ZN5spark16StreamLogHandler10logMessageEPKc8LogLevelS2_RK13LogAttributes+0x178>)
   b6e18:	68db      	ldr	r3, [r3, #12]
   b6e1a:	2202      	movs	r2, #2
   b6e1c:	4620      	mov	r0, r4
   b6e1e:	4798      	blx	r3
    if (attr.has_file) {
   b6e20:	792b      	ldrb	r3, [r5, #4]
   b6e22:	07da      	lsls	r2, r3, #31
   b6e24:	d523      	bpl.n	b6e6e <_ZN5spark16StreamLogHandler10logMessageEPKc8LogLevelS2_RK13LogAttributes+0x9a>
        s = extractFileName(attr.file); // Strip directory path
   b6e26:	f8d5 8008 	ldr.w	r8, [r5, #8]
    const char *s1 = strrchr(s, '/');
   b6e2a:	212f      	movs	r1, #47	; 0x2f
   b6e2c:	4640      	mov	r0, r8
   b6e2e:	f001 fc3a 	bl	b86a6 <strrchr>
    if (s1) {
   b6e32:	b108      	cbz	r0, b6e38 <_ZN5spark16StreamLogHandler10logMessageEPKc8LogLevelS2_RK13LogAttributes+0x64>
        return s1 + 1;
   b6e34:	f100 0801 	add.w	r8, r0, #1
        write(s); // File name
   b6e38:	4641      	mov	r1, r8
   b6e3a:	4620      	mov	r0, r4
   b6e3c:	f7ff fa27 	bl	b628e <_ZN5spark16StreamLogHandler5writeEPKc>
        if (attr.has_line) {
   b6e40:	792b      	ldrb	r3, [r5, #4]
   b6e42:	079b      	lsls	r3, r3, #30
   b6e44:	d508      	bpl.n	b6e58 <_ZN5spark16StreamLogHandler10logMessageEPKc8LogLevelS2_RK13LogAttributes+0x84>
            write(':');
   b6e46:	213a      	movs	r1, #58	; 0x3a
   b6e48:	4620      	mov	r0, r4
   b6e4a:	f7ff fa2f 	bl	b62ac <_ZN5spark16StreamLogHandler5writeEc>
            printf("%d", (int)attr.line); // Line number
   b6e4e:	68ea      	ldr	r2, [r5, #12]
   b6e50:	493f      	ldr	r1, [pc, #252]	; (b6f50 <_ZN5spark16StreamLogHandler10logMessageEPKc8LogLevelS2_RK13LogAttributes+0x17c>)
   b6e52:	4620      	mov	r0, r4
   b6e54:	f7ff faaf 	bl	b63b6 <_ZN5spark16StreamLogHandler6printfEPKcz>
        if (attr.has_function) {
   b6e58:	792a      	ldrb	r2, [r5, #4]
            write(", ", 2);
   b6e5a:	6823      	ldr	r3, [r4, #0]
        if (attr.has_function) {
   b6e5c:	f012 0f04 	tst.w	r2, #4
            write(", ", 2);
   b6e60:	68db      	ldr	r3, [r3, #12]
   b6e62:	bf14      	ite	ne
   b6e64:	493b      	ldrne	r1, [pc, #236]	; (b6f54 <_ZN5spark16StreamLogHandler10logMessageEPKc8LogLevelS2_RK13LogAttributes+0x180>)
            write(": ", 2);
   b6e66:	493c      	ldreq	r1, [pc, #240]	; (b6f58 <_ZN5spark16StreamLogHandler10logMessageEPKc8LogLevelS2_RK13LogAttributes+0x184>)
            write(", ", 2);
   b6e68:	2202      	movs	r2, #2
            write(": ", 2);
   b6e6a:	4620      	mov	r0, r4
   b6e6c:	4798      	blx	r3
    if (attr.has_function) {
   b6e6e:	792b      	ldrb	r3, [r5, #4]
   b6e70:	0758      	lsls	r0, r3, #29
   b6e72:	d51d      	bpl.n	b6eb0 <_ZN5spark16StreamLogHandler10logMessageEPKc8LogLevelS2_RK13LogAttributes+0xdc>
        s = extractFuncName(attr.function, &n); // Strip argument and return types
   b6e74:	6929      	ldr	r1, [r5, #16]
const char* extractFuncName(const char *s, size_t *size) {
   b6e76:	460b      	mov	r3, r1
   b6e78:	461a      	mov	r2, r3
    for (; *s; ++s) {
   b6e7a:	f813 0b01 	ldrb.w	r0, [r3], #1
   b6e7e:	b160      	cbz	r0, b6e9a <_ZN5spark16StreamLogHandler10logMessageEPKc8LogLevelS2_RK13LogAttributes+0xc6>
        if (*s == ' ') {
   b6e80:	2820      	cmp	r0, #32
   b6e82:	d108      	bne.n	b6e96 <_ZN5spark16StreamLogHandler10logMessageEPKc8LogLevelS2_RK13LogAttributes+0xc2>
            s1 = s + 1; // Skip return type
   b6e84:	4619      	mov	r1, r3
   b6e86:	e7f7      	b.n	b6e78 <_ZN5spark16StreamLogHandler10logMessageEPKc8LogLevelS2_RK13LogAttributes+0xa4>
    if (stream_ == &Serial && Network.listening()) {
   b6e88:	4834      	ldr	r0, [pc, #208]	; (b6f5c <_ZN5spark16StreamLogHandler10logMessageEPKc8LogLevelS2_RK13LogAttributes+0x188>)
   b6e8a:	f000 ff0e 	bl	b7caa <_ZN5spark12NetworkClass9listeningEv>
   b6e8e:	2800      	cmp	r0, #0
   b6e90:	d0ad      	beq.n	b6dee <_ZN5spark16StreamLogHandler10logMessageEPKc8LogLevelS2_RK13LogAttributes+0x1a>
}
   b6e92:	e8bd 87f0 	ldmia.w	sp!, {r4, r5, r6, r7, r8, r9, sl, pc}
        } else if (*s == '(') {
   b6e96:	2828      	cmp	r0, #40	; 0x28
   b6e98:	d1ee      	bne.n	b6e78 <_ZN5spark16StreamLogHandler10logMessageEPKc8LogLevelS2_RK13LogAttributes+0xa4>
        write(s, n);
   b6e9a:	6823      	ldr	r3, [r4, #0]
   b6e9c:	1a52      	subs	r2, r2, r1
   b6e9e:	68db      	ldr	r3, [r3, #12]
   b6ea0:	4620      	mov	r0, r4
   b6ea2:	4798      	blx	r3
        write("(): ", 4);
   b6ea4:	6823      	ldr	r3, [r4, #0]
   b6ea6:	492e      	ldr	r1, [pc, #184]	; (b6f60 <_ZN5spark16StreamLogHandler10logMessageEPKc8LogLevelS2_RK13LogAttributes+0x18c>)
   b6ea8:	68db      	ldr	r3, [r3, #12]
   b6eaa:	2204      	movs	r2, #4
   b6eac:	4620      	mov	r0, r4
   b6eae:	4798      	blx	r3
    return log_level_name(level, nullptr);
   b6eb0:	2100      	movs	r1, #0
   b6eb2:	4638      	mov	r0, r7
   b6eb4:	f7fd fffe 	bl	b4eb4 <log_level_name>
   b6eb8:	4601      	mov	r1, r0
    write(s);
   b6eba:	4620      	mov	r0, r4
   b6ebc:	f7ff f9e7 	bl	b628e <_ZN5spark16StreamLogHandler5writeEPKc>
    write(": ", 2);
   b6ec0:	6823      	ldr	r3, [r4, #0]
   b6ec2:	4925      	ldr	r1, [pc, #148]	; (b6f58 <_ZN5spark16StreamLogHandler10logMessageEPKc8LogLevelS2_RK13LogAttributes+0x184>)
   b6ec4:	68db      	ldr	r3, [r3, #12]
   b6ec6:	2202      	movs	r2, #2
   b6ec8:	4620      	mov	r0, r4
   b6eca:	4798      	blx	r3
    if (msg) {
   b6ecc:	b11e      	cbz	r6, b6ed6 <_ZN5spark16StreamLogHandler10logMessageEPKc8LogLevelS2_RK13LogAttributes+0x102>
        write(msg);
   b6ece:	4631      	mov	r1, r6
   b6ed0:	4620      	mov	r0, r4
   b6ed2:	f7ff f9dc 	bl	b628e <_ZN5spark16StreamLogHandler5writeEPKc>
    if (attr.has_code || attr.has_details) {
   b6ed6:	792b      	ldrb	r3, [r5, #4]
   b6ed8:	f013 0f30 	tst.w	r3, #48	; 0x30
   b6edc:	d02c      	beq.n	b6f38 <_ZN5spark16StreamLogHandler10logMessageEPKc8LogLevelS2_RK13LogAttributes+0x164>
        write(" [", 2);
   b6ede:	6823      	ldr	r3, [r4, #0]
   b6ee0:	4920      	ldr	r1, [pc, #128]	; (b6f64 <_ZN5spark16StreamLogHandler10logMessageEPKc8LogLevelS2_RK13LogAttributes+0x190>)
   b6ee2:	68db      	ldr	r3, [r3, #12]
   b6ee4:	2202      	movs	r2, #2
   b6ee6:	4620      	mov	r0, r4
   b6ee8:	4798      	blx	r3
        if (attr.has_code) {
   b6eea:	792b      	ldrb	r3, [r5, #4]
   b6eec:	06d9      	lsls	r1, r3, #27
   b6eee:	d50a      	bpl.n	b6f06 <_ZN5spark16StreamLogHandler10logMessageEPKc8LogLevelS2_RK13LogAttributes+0x132>
            write("code = ", 7);
   b6ef0:	6823      	ldr	r3, [r4, #0]
   b6ef2:	491d      	ldr	r1, [pc, #116]	; (b6f68 <_ZN5spark16StreamLogHandler10logMessageEPKc8LogLevelS2_RK13LogAttributes+0x194>)
   b6ef4:	68db      	ldr	r3, [r3, #12]
   b6ef6:	2207      	movs	r2, #7
   b6ef8:	4620      	mov	r0, r4
   b6efa:	4798      	blx	r3
            printf("%" PRIiPTR, (intptr_t)attr.code);
   b6efc:	69aa      	ldr	r2, [r5, #24]
   b6efe:	491b      	ldr	r1, [pc, #108]	; (b6f6c <_ZN5spark16StreamLogHandler10logMessageEPKc8LogLevelS2_RK13LogAttributes+0x198>)
   b6f00:	4620      	mov	r0, r4
   b6f02:	f7ff fa58 	bl	b63b6 <_ZN5spark16StreamLogHandler6printfEPKcz>
        if (attr.has_details) {
   b6f06:	792b      	ldrb	r3, [r5, #4]
   b6f08:	069a      	lsls	r2, r3, #26
   b6f0a:	d511      	bpl.n	b6f30 <_ZN5spark16StreamLogHandler10logMessageEPKc8LogLevelS2_RK13LogAttributes+0x15c>
            if (attr.has_code) {
   b6f0c:	06db      	lsls	r3, r3, #27
   b6f0e:	d505      	bpl.n	b6f1c <_ZN5spark16StreamLogHandler10logMessageEPKc8LogLevelS2_RK13LogAttributes+0x148>
                write(", ", 2);
   b6f10:	6823      	ldr	r3, [r4, #0]
   b6f12:	4910      	ldr	r1, [pc, #64]	; (b6f54 <_ZN5spark16StreamLogHandler10logMessageEPKc8LogLevelS2_RK13LogAttributes+0x180>)
   b6f14:	68db      	ldr	r3, [r3, #12]
   b6f16:	2202      	movs	r2, #2
   b6f18:	4620      	mov	r0, r4
   b6f1a:	4798      	blx	r3
            write("details = ", 10);
   b6f1c:	6823      	ldr	r3, [r4, #0]
   b6f1e:	4914      	ldr	r1, [pc, #80]	; (b6f70 <_ZN5spark16StreamLogHandler10logMessageEPKc8LogLevelS2_RK13LogAttributes+0x19c>)
   b6f20:	68db      	ldr	r3, [r3, #12]
   b6f22:	4620      	mov	r0, r4
   b6f24:	220a      	movs	r2, #10
   b6f26:	4798      	blx	r3
            write(attr.details);
   b6f28:	69e9      	ldr	r1, [r5, #28]
   b6f2a:	4620      	mov	r0, r4
   b6f2c:	f7ff f9af 	bl	b628e <_ZN5spark16StreamLogHandler5writeEPKc>
        write(']');
   b6f30:	215d      	movs	r1, #93	; 0x5d
   b6f32:	4620      	mov	r0, r4
   b6f34:	f7ff f9ba 	bl	b62ac <_ZN5spark16StreamLogHandler5writeEc>
    write("\r\n", 2);
   b6f38:	6823      	ldr	r3, [r4, #0]
   b6f3a:	490e      	ldr	r1, [pc, #56]	; (b6f74 <_ZN5spark16StreamLogHandler10logMessageEPKc8LogLevelS2_RK13LogAttributes+0x1a0>)
   b6f3c:	68db      	ldr	r3, [r3, #12]
   b6f3e:	4620      	mov	r0, r4
   b6f40:	2202      	movs	r2, #2
}
   b6f42:	e8bd 47f0 	ldmia.w	sp!, {r4, r5, r6, r7, r8, r9, sl, lr}
    write("\r\n", 2);
   b6f46:	4718      	bx	r3
   b6f48:	000b8ba1 	.word	0x000b8ba1
   b6f4c:	000b8ba8 	.word	0x000b8ba8
   b6f50:	000b8d2c 	.word	0x000b8d2c
   b6f54:	000b8bab 	.word	0x000b8bab
   b6f58:	000b8bb0 	.word	0x000b8bb0
   b6f5c:	2003e720 	.word	0x2003e720
   b6f60:	000b8bae 	.word	0x000b8bae
   b6f64:	000b8bb3 	.word	0x000b8bb3
   b6f68:	000b8bb6 	.word	0x000b8bb6
   b6f6c:	000b8bbe 	.word	0x000b8bbe
   b6f70:	000b8bc1 	.word	0x000b8bc1
   b6f74:	000b8bcc 	.word	0x000b8bcc

000b6f78 <_ZN5spark16StreamLogHandler5writeEPKcj>:
void spark::StreamLogHandler::write(const char *data, size_t size) {
   b6f78:	e92d 41f0 	stmdb	sp!, {r4, r5, r6, r7, r8, lr}
   b6f7c:	4604      	mov	r4, r0
    if (stream_ == &Serial && Network.listening()) {
   b6f7e:	6a07      	ldr	r7, [r0, #32]
void spark::StreamLogHandler::write(const char *data, size_t size) {
   b6f80:	460d      	mov	r5, r1
   b6f82:	4616      	mov	r6, r2
    if (stream_ == &Serial && Network.listening()) {
   b6f84:	f000 fa84 	bl	b7490 <_Z16_fetch_usbserialv>
   b6f88:	4287      	cmp	r7, r0
   b6f8a:	d007      	beq.n	b6f9c <_ZN5spark16StreamLogHandler5writeEPKcj+0x24>
    stream_->write((const uint8_t*)data, size);
   b6f8c:	6a20      	ldr	r0, [r4, #32]
   b6f8e:	6803      	ldr	r3, [r0, #0]
   b6f90:	4632      	mov	r2, r6
   b6f92:	4629      	mov	r1, r5
   b6f94:	68db      	ldr	r3, [r3, #12]
}
   b6f96:	e8bd 41f0 	ldmia.w	sp!, {r4, r5, r6, r7, r8, lr}
    stream_->write((const uint8_t*)data, size);
   b6f9a:	4718      	bx	r3
    if (stream_ == &Serial && Network.listening()) {
   b6f9c:	4803      	ldr	r0, [pc, #12]	; (b6fac <_ZN5spark16StreamLogHandler5writeEPKcj+0x34>)
   b6f9e:	f000 fe84 	bl	b7caa <_ZN5spark12NetworkClass9listeningEv>
   b6fa2:	2800      	cmp	r0, #0
   b6fa4:	d0f2      	beq.n	b6f8c <_ZN5spark16StreamLogHandler5writeEPKcj+0x14>
}
   b6fa6:	e8bd 81f0 	ldmia.w	sp!, {r4, r5, r6, r7, r8, pc}
   b6faa:	bf00      	nop
   b6fac:	2003e720 	.word	0x2003e720

000b6fb0 <_ZN5spark20JSONStreamLogHandler10logMessageEPKc8LogLevelS2_RK13LogAttributes>:
void spark::JSONStreamLogHandler::logMessage(const char *msg, LogLevel level, const char *category, const LogAttributes &attr) {
   b6fb0:	e92d 43f0 	stmdb	sp!, {r4, r5, r6, r7, r8, r9, lr}
   b6fb4:	b085      	sub	sp, #20
    return stream_;
   b6fb6:	f8d0 9020 	ldr.w	r9, [r0, #32]
   b6fba:	9c0c      	ldr	r4, [sp, #48]	; 0x30
   b6fbc:	4605      	mov	r5, r0
   b6fbe:	460f      	mov	r7, r1
   b6fc0:	4690      	mov	r8, r2
   b6fc2:	461e      	mov	r6, r3
    if (this->stream() == &Serial && Network.listening()) {
   b6fc4:	f000 fa64 	bl	b7490 <_Z16_fetch_usbserialv>
   b6fc8:	4581      	cmp	r9, r0
   b6fca:	d105      	bne.n	b6fd8 <_ZN5spark20JSONStreamLogHandler10logMessageEPKc8LogLevelS2_RK13LogAttributes+0x28>
   b6fcc:	4849      	ldr	r0, [pc, #292]	; (b70f4 <_ZN5spark20JSONStreamLogHandler10logMessageEPKc8LogLevelS2_RK13LogAttributes+0x144>)
   b6fce:	f000 fe6c 	bl	b7caa <_ZN5spark12NetworkClass9listeningEv>
   b6fd2:	2800      	cmp	r0, #0
   b6fd4:	f040 808a 	bne.w	b70ec <_ZN5spark20JSONStreamLogHandler10logMessageEPKc8LogLevelS2_RK13LogAttributes+0x13c>
   b6fd8:	6a2b      	ldr	r3, [r5, #32]
        strm_(stream) {
   b6fda:	4a47      	ldr	r2, [pc, #284]	; (b70f8 <_ZN5spark20JSONStreamLogHandler10logMessageEPKc8LogLevelS2_RK13LogAttributes+0x148>)
   b6fdc:	9201      	str	r2, [sp, #4]
        state_(BEGIN) {
   b6fde:	f04f 0900 	mov.w	r9, #0
    json.beginObject();
   b6fe2:	a801      	add	r0, sp, #4
        strm_(stream) {
   b6fe4:	9303      	str	r3, [sp, #12]
        state_(BEGIN) {
   b6fe6:	f88d 9008 	strb.w	r9, [sp, #8]
   b6fea:	f001 f802 	bl	b7ff2 <_ZN5spark10JSONWriter11beginObjectEv>
    return log_level_name(level, nullptr);
   b6fee:	4649      	mov	r1, r9
   b6ff0:	4640      	mov	r0, r8
   b6ff2:	f7fd ff5f 	bl	b4eb4 <log_level_name>
    json.name("l", 1).value(s);
   b6ff6:	4941      	ldr	r1, [pc, #260]	; (b70fc <_ZN5spark20JSONStreamLogHandler10logMessageEPKc8LogLevelS2_RK13LogAttributes+0x14c>)
   b6ff8:	4680      	mov	r8, r0
   b6ffa:	2201      	movs	r2, #1
   b6ffc:	a801      	add	r0, sp, #4
   b6ffe:	f001 f887 	bl	b8110 <_ZN5spark10JSONWriter4nameEPKcj>
   b7002:	4641      	mov	r1, r8
   b7004:	f7ff f935 	bl	b6272 <_ZN5spark10JSONWriter5valueEPKc>
    if (msg) {
   b7008:	b13f      	cbz	r7, b701a <_ZN5spark20JSONStreamLogHandler10logMessageEPKc8LogLevelS2_RK13LogAttributes+0x6a>
        json.name("m", 1).value(msg);
   b700a:	493d      	ldr	r1, [pc, #244]	; (b7100 <_ZN5spark20JSONStreamLogHandler10logMessageEPKc8LogLevelS2_RK13LogAttributes+0x150>)
   b700c:	2201      	movs	r2, #1
   b700e:	a801      	add	r0, sp, #4
   b7010:	f001 f87e 	bl	b8110 <_ZN5spark10JSONWriter4nameEPKcj>
   b7014:	4639      	mov	r1, r7
   b7016:	f7ff f92c 	bl	b6272 <_ZN5spark10JSONWriter5valueEPKc>
    if (category) {
   b701a:	b13e      	cbz	r6, b702c <_ZN5spark20JSONStreamLogHandler10logMessageEPKc8LogLevelS2_RK13LogAttributes+0x7c>
        json.name("c", 1).value(category);
   b701c:	4939      	ldr	r1, [pc, #228]	; (b7104 <_ZN5spark20JSONStreamLogHandler10logMessageEPKc8LogLevelS2_RK13LogAttributes+0x154>)
   b701e:	2201      	movs	r2, #1
   b7020:	a801      	add	r0, sp, #4
   b7022:	f001 f875 	bl	b8110 <_ZN5spark10JSONWriter4nameEPKcj>
   b7026:	4631      	mov	r1, r6
   b7028:	f7ff f923 	bl	b6272 <_ZN5spark10JSONWriter5valueEPKc>
    if (attr.has_file) {
   b702c:	7923      	ldrb	r3, [r4, #4]
   b702e:	07df      	lsls	r7, r3, #31
   b7030:	d50e      	bpl.n	b7050 <_ZN5spark20JSONStreamLogHandler10logMessageEPKc8LogLevelS2_RK13LogAttributes+0xa0>
        s = extractFileName(attr.file); // Strip directory path
   b7032:	68a6      	ldr	r6, [r4, #8]
    const char *s1 = strrchr(s, '/');
   b7034:	212f      	movs	r1, #47	; 0x2f
   b7036:	4630      	mov	r0, r6
   b7038:	f001 fb35 	bl	b86a6 <strrchr>
    if (s1) {
   b703c:	b100      	cbz	r0, b7040 <_ZN5spark20JSONStreamLogHandler10logMessageEPKc8LogLevelS2_RK13LogAttributes+0x90>
        return s1 + 1;
   b703e:	1c46      	adds	r6, r0, #1
        json.name("f", 1).value(s);
   b7040:	4931      	ldr	r1, [pc, #196]	; (b7108 <_ZN5spark20JSONStreamLogHandler10logMessageEPKc8LogLevelS2_RK13LogAttributes+0x158>)
   b7042:	2201      	movs	r2, #1
   b7044:	a801      	add	r0, sp, #4
   b7046:	f001 f863 	bl	b8110 <_ZN5spark10JSONWriter4nameEPKcj>
   b704a:	4631      	mov	r1, r6
   b704c:	f7ff f911 	bl	b6272 <_ZN5spark10JSONWriter5valueEPKc>
    if (attr.has_line) {
   b7050:	7923      	ldrb	r3, [r4, #4]
   b7052:	079e      	lsls	r6, r3, #30
   b7054:	d507      	bpl.n	b7066 <_ZN5spark20JSONStreamLogHandler10logMessageEPKc8LogLevelS2_RK13LogAttributes+0xb6>
        json.name("ln", 2).value(attr.line);
   b7056:	492d      	ldr	r1, [pc, #180]	; (b710c <_ZN5spark20JSONStreamLogHandler10logMessageEPKc8LogLevelS2_RK13LogAttributes+0x15c>)
   b7058:	2202      	movs	r2, #2
   b705a:	a801      	add	r0, sp, #4
   b705c:	f001 f858 	bl	b8110 <_ZN5spark10JSONWriter4nameEPKcj>
   b7060:	68e1      	ldr	r1, [r4, #12]
   b7062:	f000 ffd3 	bl	b800c <_ZN5spark10JSONWriter5valueEi>
    if (attr.has_function) {
   b7066:	7923      	ldrb	r3, [r4, #4]
   b7068:	0758      	lsls	r0, r3, #29
   b706a:	d514      	bpl.n	b7096 <_ZN5spark20JSONStreamLogHandler10logMessageEPKc8LogLevelS2_RK13LogAttributes+0xe6>
        s = extractFuncName(attr.function, &n); // Strip argument and return types
   b706c:	6926      	ldr	r6, [r4, #16]
const char* extractFuncName(const char *s, size_t *size) {
   b706e:	4633      	mov	r3, r6
   b7070:	461f      	mov	r7, r3
    for (; *s; ++s) {
   b7072:	f813 2b01 	ldrb.w	r2, [r3], #1
   b7076:	b12a      	cbz	r2, b7084 <_ZN5spark20JSONStreamLogHandler10logMessageEPKc8LogLevelS2_RK13LogAttributes+0xd4>
        if (*s == ' ') {
   b7078:	2a20      	cmp	r2, #32
   b707a:	d101      	bne.n	b7080 <_ZN5spark20JSONStreamLogHandler10logMessageEPKc8LogLevelS2_RK13LogAttributes+0xd0>
            s1 = s + 1; // Skip return type
   b707c:	461e      	mov	r6, r3
   b707e:	e7f7      	b.n	b7070 <_ZN5spark20JSONStreamLogHandler10logMessageEPKc8LogLevelS2_RK13LogAttributes+0xc0>
        } else if (*s == '(') {
   b7080:	2a28      	cmp	r2, #40	; 0x28
   b7082:	d1f5      	bne.n	b7070 <_ZN5spark20JSONStreamLogHandler10logMessageEPKc8LogLevelS2_RK13LogAttributes+0xc0>
        json.name("fn", 2).value(s, n);
   b7084:	4922      	ldr	r1, [pc, #136]	; (b7110 <_ZN5spark20JSONStreamLogHandler10logMessageEPKc8LogLevelS2_RK13LogAttributes+0x160>)
   b7086:	2202      	movs	r2, #2
   b7088:	a801      	add	r0, sp, #4
   b708a:	f001 f841 	bl	b8110 <_ZN5spark10JSONWriter4nameEPKcj>
   b708e:	1bba      	subs	r2, r7, r6
   b7090:	4631      	mov	r1, r6
   b7092:	f001 f84d 	bl	b8130 <_ZN5spark10JSONWriter5valueEPKcj>
    if (attr.has_time) {
   b7096:	7923      	ldrb	r3, [r4, #4]
   b7098:	0719      	lsls	r1, r3, #28
   b709a:	d507      	bpl.n	b70ac <_ZN5spark20JSONStreamLogHandler10logMessageEPKc8LogLevelS2_RK13LogAttributes+0xfc>
        json.name("t", 1).value((unsigned)attr.time);
   b709c:	491d      	ldr	r1, [pc, #116]	; (b7114 <_ZN5spark20JSONStreamLogHandler10logMessageEPKc8LogLevelS2_RK13LogAttributes+0x164>)
   b709e:	2201      	movs	r2, #1
   b70a0:	a801      	add	r0, sp, #4
   b70a2:	f001 f835 	bl	b8110 <_ZN5spark10JSONWriter4nameEPKcj>
   b70a6:	6961      	ldr	r1, [r4, #20]
   b70a8:	f000 ffc2 	bl	b8030 <_ZN5spark10JSONWriter5valueEj>
    if (attr.has_code) {
   b70ac:	7923      	ldrb	r3, [r4, #4]
   b70ae:	06da      	lsls	r2, r3, #27
   b70b0:	d508      	bpl.n	b70c4 <_ZN5spark20JSONStreamLogHandler10logMessageEPKc8LogLevelS2_RK13LogAttributes+0x114>
        json.name("code", 4).value((int)attr.code);
   b70b2:	2204      	movs	r2, #4
   b70b4:	4918      	ldr	r1, [pc, #96]	; (b7118 <_ZN5spark20JSONStreamLogHandler10logMessageEPKc8LogLevelS2_RK13LogAttributes+0x168>)
   b70b6:	eb0d 0002 	add.w	r0, sp, r2
   b70ba:	f001 f829 	bl	b8110 <_ZN5spark10JSONWriter4nameEPKcj>
   b70be:	69a1      	ldr	r1, [r4, #24]
   b70c0:	f000 ffa4 	bl	b800c <_ZN5spark10JSONWriter5valueEi>
    if (attr.has_details) {
   b70c4:	7923      	ldrb	r3, [r4, #4]
   b70c6:	069b      	lsls	r3, r3, #26
   b70c8:	d507      	bpl.n	b70da <_ZN5spark20JSONStreamLogHandler10logMessageEPKc8LogLevelS2_RK13LogAttributes+0x12a>
        json.name("detail", 6).value(attr.details);
   b70ca:	4914      	ldr	r1, [pc, #80]	; (b711c <_ZN5spark20JSONStreamLogHandler10logMessageEPKc8LogLevelS2_RK13LogAttributes+0x16c>)
   b70cc:	2206      	movs	r2, #6
   b70ce:	a801      	add	r0, sp, #4
   b70d0:	f001 f81e 	bl	b8110 <_ZN5spark10JSONWriter4nameEPKcj>
   b70d4:	69e1      	ldr	r1, [r4, #28]
   b70d6:	f7ff f8cc 	bl	b6272 <_ZN5spark10JSONWriter5valueEPKc>
    json.endObject();
   b70da:	a801      	add	r0, sp, #4
   b70dc:	f000 ff73 	bl	b7fc6 <_ZN5spark10JSONWriter9endObjectEv>
    return stream_;
   b70e0:	6a28      	ldr	r0, [r5, #32]
    this->stream()->write((const uint8_t*)"\r\n", 2);
   b70e2:	490f      	ldr	r1, [pc, #60]	; (b7120 <_ZN5spark20JSONStreamLogHandler10logMessageEPKc8LogLevelS2_RK13LogAttributes+0x170>)
   b70e4:	6803      	ldr	r3, [r0, #0]
   b70e6:	2202      	movs	r2, #2
   b70e8:	68db      	ldr	r3, [r3, #12]
   b70ea:	4798      	blx	r3
}
   b70ec:	b005      	add	sp, #20
   b70ee:	e8bd 83f0 	ldmia.w	sp!, {r4, r5, r6, r7, r8, r9, pc}
   b70f2:	bf00      	nop
   b70f4:	2003e720 	.word	0x2003e720
   b70f8:	000b8bf0 	.word	0x000b8bf0
   b70fc:	000b8b7e 	.word	0x000b8b7e
   b7100:	000b898c 	.word	0x000b898c
   b7104:	000b8f9f 	.word	0x000b8f9f
   b7108:	000b8bcf 	.word	0x000b8bcf
   b710c:	000b8bd1 	.word	0x000b8bd1
   b7110:	000b8bd4 	.word	0x000b8bd4
   b7114:	000b8bd7 	.word	0x000b8bd7
   b7118:	000b8bd9 	.word	0x000b8bd9
   b711c:	000b8bde 	.word	0x000b8bde
   b7120:	000b8bcc 	.word	0x000b8bcc

000b7124 <_GLOBAL__sub_I_TIME_FORMAT_DEFAULT>:
            calendar_time_cache = Convert_UnixTime_To_CalendarTime(unix_time);
            unix_time_cache = unix_time;
    }
}

const char* TimeClass::format_spec = TIME_FORMAT_DEFAULT;
   b7124:	4b02      	ldr	r3, [pc, #8]	; (b7130 <_GLOBAL__sub_I_TIME_FORMAT_DEFAULT+0xc>)
   b7126:	681a      	ldr	r2, [r3, #0]
   b7128:	4b02      	ldr	r3, [pc, #8]	; (b7134 <_GLOBAL__sub_I_TIME_FORMAT_DEFAULT+0x10>)
   b712a:	601a      	str	r2, [r3, #0]
{
  return isValid();
}


TimeClass Time;
   b712c:	4770      	bx	lr
   b712e:	bf00      	nop
   b7130:	2003e550 	.word	0x2003e550
   b7134:	2003e6e4 	.word	0x2003e6e4

000b7138 <delay>:
    return (value - fromStart) * (toEnd - toStart) / (fromEnd - fromStart) + toStart;
}

void delay(unsigned long ms)
{
    system_delay_ms(ms, false);
   b7138:	2100      	movs	r1, #0
   b713a:	f7fd bed3 	b.w	b4ee4 <system_delay_ms>
	...

000b7140 <_ZN9TCPClientD1Ev>:
class TCPClient : public Client {

public:
    TCPClient();
    TCPClient(sock_handle_t sock);
    virtual ~TCPClient() {};
   b7140:	b510      	push	{r4, lr}
   b7142:	4b04      	ldr	r3, [pc, #16]	; (b7154 <_ZN9TCPClientD1Ev+0x14>)
   b7144:	6003      	str	r3, [r0, #0]
   b7146:	4604      	mov	r4, r0
	if (_M_pi != nullptr)
   b7148:	6980      	ldr	r0, [r0, #24]
   b714a:	b108      	cbz	r0, b7150 <_ZN9TCPClientD1Ev+0x10>
	  _M_pi->_M_release();
   b714c:	f7fe fa0a 	bl	b5564 <_ZNSt16_Sp_counted_baseILN9__gnu_cxx12_Lock_policyE0EE10_M_releaseEv>
   b7150:	4620      	mov	r0, r4
   b7152:	bd10      	pop	{r4, pc}
   b7154:	000b8d54 	.word	0x000b8d54

000b7158 <_ZN9TCPClientD0Ev>:
   b7158:	b510      	push	{r4, lr}
   b715a:	4604      	mov	r4, r0
   b715c:	f7ff fff0 	bl	b7140 <_ZN9TCPClientD1Ev>
   b7160:	4620      	mov	r0, r4
   b7162:	211c      	movs	r1, #28
   b7164:	f7fc ffad 	bl	b40c2 <_ZdlPvj>
   b7168:	4620      	mov	r0, r4
   b716a:	bd10      	pop	{r4, pc}

000b716c <_GLOBAL__sub_I_RGB>:
    _Function_base() : _M_manager(nullptr) { }
   b716c:	4b01      	ldr	r3, [pc, #4]	; (b7174 <_GLOBAL__sub_I_RGB+0x8>)
   b716e:	2200      	movs	r2, #0
   b7170:	609a      	str	r2, [r3, #8]
{
    RGBClass* const d = static_cast<RGBClass*>(data);
    if (d->changeHandler_) {
        d->changeHandler_(r, g, b);
    }
}
   b7172:	4770      	bx	lr
   b7174:	2003e6e8 	.word	0x2003e6e8

000b7178 <_ZZ21module_user_init_hookENUlP6_reentjmPvE_4_FUNES0_jmS1_>:

void module_user_init_hook()
{
#if HAL_PLATFORM_NEWLIB
    newlib_impure_ptr_callback([](struct _reent* r, size_t size, uint32_t version, void* ctx) -> void {
        _impure_ptr = r;
   b7178:	4b01      	ldr	r3, [pc, #4]	; (b7180 <_ZZ21module_user_init_hookENUlP6_reentjmPvE_4_FUNES0_jmS1_+0x8>)
   b717a:	6018      	str	r0, [r3, #0]
    }, nullptr);
   b717c:	4770      	bx	lr
   b717e:	bf00      	nop
   b7180:	2003e554 	.word	0x2003e554

000b7184 <serialEventRun>:
{
   b7184:	b508      	push	{r3, lr}
    if (serialEvent && Serial.available()>0)
   b7186:	4b0b      	ldr	r3, [pc, #44]	; (b71b4 <serialEventRun+0x30>)
   b7188:	b143      	cbz	r3, b719c <serialEventRun+0x18>
   b718a:	f000 f981 	bl	b7490 <_Z16_fetch_usbserialv>
   b718e:	6803      	ldr	r3, [r0, #0]
   b7190:	691b      	ldr	r3, [r3, #16]
   b7192:	4798      	blx	r3
   b7194:	2800      	cmp	r0, #0
   b7196:	dd01      	ble.n	b719c <serialEventRun+0x18>
        serialEvent();
   b7198:	f3af 8000 	nop.w
    if (serialEvent1 && Serial1.available()>0)
   b719c:	4b06      	ldr	r3, [pc, #24]	; (b71b8 <serialEventRun+0x34>)
   b719e:	b143      	cbz	r3, b71b2 <serialEventRun+0x2e>
   b71a0:	f001 f848 	bl	b8234 <_Z22__fetch_global_Serial1v>
   b71a4:	6803      	ldr	r3, [r0, #0]
   b71a6:	691b      	ldr	r3, [r3, #16]
   b71a8:	4798      	blx	r3
   b71aa:	2800      	cmp	r0, #0
   b71ac:	dd01      	ble.n	b71b2 <serialEventRun+0x2e>
        serialEvent1();
   b71ae:	f3af 8000 	nop.w
}
   b71b2:	bd08      	pop	{r3, pc}
	...

000b71bc <_post_loop>:
{
   b71bc:	b508      	push	{r3, lr}
	serialEventRun();
   b71be:	f7ff ffe1 	bl	b7184 <serialEventRun>
		return !thread || !thread->isRunning();
	}

	static inline system_tick_t current_time()
	{
		return HAL_Timer_Get_Milli_Seconds();
   b71c2:	f7fd fc8b 	bl	b4adc <HAL_Timer_Get_Milli_Seconds>
	/**
	 * Lifesign that the application is still working normally.
	 */
	static void checkin()
	{
		last_checkin = current_time();
   b71c6:	4b01      	ldr	r3, [pc, #4]	; (b71cc <_post_loop+0x10>)
   b71c8:	6018      	str	r0, [r3, #0]
}
   b71ca:	bd08      	pop	{r3, pc}
   b71cc:	2003e740 	.word	0x2003e740

000b71d0 <_Z33system_initialize_user_backup_ramv>:
    memcpy(&link_global_retained_start, &link_global_retained_initial_values, len);
   b71d0:	4805      	ldr	r0, [pc, #20]	; (b71e8 <_Z33system_initialize_user_backup_ramv+0x18>)
   b71d2:	4a06      	ldr	r2, [pc, #24]	; (b71ec <_Z33system_initialize_user_backup_ramv+0x1c>)
   b71d4:	4906      	ldr	r1, [pc, #24]	; (b71f0 <_Z33system_initialize_user_backup_ramv+0x20>)
{
   b71d6:	b508      	push	{r3, lr}
    memcpy(&link_global_retained_start, &link_global_retained_initial_values, len);
   b71d8:	1a12      	subs	r2, r2, r0
   b71da:	f001 f9c7 	bl	b856c <memcpy>
    __backup_sram_signature = signature;
   b71de:	4b05      	ldr	r3, [pc, #20]	; (b71f4 <_Z33system_initialize_user_backup_ramv+0x24>)
   b71e0:	4a05      	ldr	r2, [pc, #20]	; (b71f8 <_Z33system_initialize_user_backup_ramv+0x28>)
   b71e2:	601a      	str	r2, [r3, #0]
}
   b71e4:	bd08      	pop	{r3, pc}
   b71e6:	bf00      	nop
   b71e8:	2003f400 	.word	0x2003f400
   b71ec:	2003f404 	.word	0x2003f404
   b71f0:	000b9160 	.word	0x000b9160
   b71f4:	2003f400 	.word	0x2003f400
   b71f8:	9a271c1e 	.word	0x9a271c1e

000b71fc <_Z27ctrl_request_custom_handlerP12ctrl_request>:
void __attribute((weak)) ctrl_request_custom_handler(ctrl_request* req) {
   b71fc:	b507      	push	{r0, r1, r2, lr}
    system_ctrl_set_result(req, SYSTEM_ERROR_NOT_SUPPORTED, nullptr, nullptr, nullptr);
   b71fe:	2300      	movs	r3, #0
   b7200:	9300      	str	r3, [sp, #0]
   b7202:	461a      	mov	r2, r3
   b7204:	f06f 0177 	mvn.w	r1, #119	; 0x77
   b7208:	f7fd fe86 	bl	b4f18 <system_ctrl_set_result>
}
   b720c:	b003      	add	sp, #12
   b720e:	f85d fb04 	ldr.w	pc, [sp], #4
	...

000b7214 <_ZL20ctrl_request_handlerP12ctrl_request>:
static void ctrl_request_handler(ctrl_request* req) {
   b7214:	b507      	push	{r0, r1, r2, lr}
    switch (req->type) {
   b7216:	8843      	ldrh	r3, [r0, #2]
   b7218:	2b0a      	cmp	r3, #10
   b721a:	d008      	beq.n	b722e <_ZL20ctrl_request_handlerP12ctrl_request+0x1a>
   b721c:	2b50      	cmp	r3, #80	; 0x50
   b721e:	d10b      	bne.n	b7238 <_ZL20ctrl_request_handlerP12ctrl_request+0x24>
        if (log_process_ctrl_request_callback) {
   b7220:	4b09      	ldr	r3, [pc, #36]	; (b7248 <_ZL20ctrl_request_handlerP12ctrl_request+0x34>)
   b7222:	681b      	ldr	r3, [r3, #0]
   b7224:	b14b      	cbz	r3, b723a <_ZL20ctrl_request_handlerP12ctrl_request+0x26>
}
   b7226:	b003      	add	sp, #12
   b7228:	f85d eb04 	ldr.w	lr, [sp], #4
            log_process_ctrl_request_callback(req);
   b722c:	4718      	bx	r3
        ctrl_request_custom_handler(req);
   b722e:	f7ff ffe5 	bl	b71fc <_Z27ctrl_request_custom_handlerP12ctrl_request>
}
   b7232:	b003      	add	sp, #12
   b7234:	f85d fb04 	ldr.w	pc, [sp], #4
        system_ctrl_set_result(req, SYSTEM_ERROR_NOT_SUPPORTED, nullptr, nullptr, nullptr);
   b7238:	2300      	movs	r3, #0
   b723a:	9300      	str	r3, [sp, #0]
   b723c:	461a      	mov	r2, r3
   b723e:	f06f 0177 	mvn.w	r1, #119	; 0x77
   b7242:	f7fd fe69 	bl	b4f18 <system_ctrl_set_result>
}
   b7246:	e7f4      	b.n	b7232 <_ZL20ctrl_request_handlerP12ctrl_request+0x1e>
   b7248:	2003e6fc 	.word	0x2003e6fc

000b724c <module_user_init_hook>:
{
   b724c:	b510      	push	{r4, lr}
    newlib_impure_ptr_callback([](struct _reent* r, size_t size, uint32_t version, void* ctx) -> void {
   b724e:	4812      	ldr	r0, [pc, #72]	; (b7298 <module_user_init_hook+0x4c>)
   b7250:	2100      	movs	r1, #0
   b7252:	f7fd ff0b 	bl	b506c <newlib_impure_ptr_callback>
#endif // HAL_PLATFORM_NEWLIB

#if HAL_PLATFORM_BACKUP_RAM
    backup_ram_was_valid_ = __backup_sram_signature == signature;
   b7256:	4b11      	ldr	r3, [pc, #68]	; (b729c <module_user_init_hook+0x50>)
   b7258:	681a      	ldr	r2, [r3, #0]
   b725a:	4b11      	ldr	r3, [pc, #68]	; (b72a0 <module_user_init_hook+0x54>)
   b725c:	429a      	cmp	r2, r3
   b725e:	4b11      	ldr	r3, [pc, #68]	; (b72a4 <module_user_init_hook+0x58>)
   b7260:	bf0c      	ite	eq
   b7262:	2201      	moveq	r2, #1
   b7264:	2200      	movne	r2, #0
   b7266:	701a      	strb	r2, [r3, #0]
    if (!backup_ram_was_valid_) {
   b7268:	d001      	beq.n	b726e <module_user_init_hook+0x22>
        system_initialize_user_backup_ram();
   b726a:	f7ff ffb1 	bl	b71d0 <_Z33system_initialize_user_backup_ramv>
    }
#endif

#if HAL_PLATFORM_RNG
    // Initialize the default stdlib PRNG using hardware RNG as a seed
    const uint32_t seed = HAL_RNG_GetRandomNumber();
   b726e:	f7fd fc25 	bl	b4abc <HAL_RNG_GetRandomNumber>
   b7272:	4604      	mov	r4, r0
    srand(seed);
   b7274:	f001 f9aa 	bl	b85cc <srand>

    // If the user defines random_seed_from_cloud, call it with a seed value
    // generated by a hardware RNG as well.
    if (random_seed_from_cloud) {
   b7278:	4b0b      	ldr	r3, [pc, #44]	; (b72a8 <module_user_init_hook+0x5c>)
   b727a:	b113      	cbz	r3, b7282 <module_user_init_hook+0x36>
        random_seed_from_cloud(seed);
   b727c:	4620      	mov	r0, r4
   b727e:	f3af 8000 	nop.w
    }
#endif
    // Register the random_seed_from_cloud handler
    spark_set_random_seed_from_cloud_handler(&random_seed_from_cloud, nullptr);
   b7282:	2100      	movs	r1, #0
   b7284:	4808      	ldr	r0, [pc, #32]	; (b72a8 <module_user_init_hook+0x5c>)
   b7286:	f7fd feb1 	bl	b4fec <spark_set_random_seed_from_cloud_handler>

    // Register application handler for the control requests
    system_ctrl_set_app_request_handler(ctrl_request_handler, nullptr);
}
   b728a:	e8bd 4010 	ldmia.w	sp!, {r4, lr}
    system_ctrl_set_app_request_handler(ctrl_request_handler, nullptr);
   b728e:	4807      	ldr	r0, [pc, #28]	; (b72ac <module_user_init_hook+0x60>)
   b7290:	2100      	movs	r1, #0
   b7292:	f7fd be37 	b.w	b4f04 <system_ctrl_set_app_request_handler>
   b7296:	bf00      	nop
   b7298:	000b7179 	.word	0x000b7179
   b729c:	2003f400 	.word	0x2003f400
   b72a0:	9a271c1e 	.word	0x9a271c1e
   b72a4:	2003e6f8 	.word	0x2003e6f8
   b72a8:	00000000 	.word	0x00000000
   b72ac:	000b7215 	.word	0x000b7215

000b72b0 <_ZN9IPAddressD1Ev>:
    IPAddress(uint32_t address);
    // 4 bytes defining the IP address in network order
    IPAddress(const uint8_t* address);
    IPAddress(const HAL_IPAddress& address);

    virtual ~IPAddress() {}
   b72b0:	4770      	bx	lr

000b72b2 <_ZN9IPAddressD0Ev>:
   b72b2:	b510      	push	{r4, lr}
   b72b4:	2118      	movs	r1, #24
   b72b6:	4604      	mov	r4, r0
   b72b8:	f7fc ff03 	bl	b40c2 <_ZdlPvj>
   b72bc:	4620      	mov	r0, r4
   b72be:	bd10      	pop	{r4, pc}

000b72c0 <_ZNK9IPAddress7printToER5Print>:
#endif // Wiring_IPv6
	return address.ipv4==that.address.ipv4;
}

size_t IPAddress::printTo(Print& p) const
{
   b72c0:	b5f0      	push	{r4, r5, r6, r7, lr}
#if Wiring_IPv6
#if HAL_USE_INET_HAL_POSIX
	if (address.v==6) {
   b72c2:	7d03      	ldrb	r3, [r0, #20]
   b72c4:	2b06      	cmp	r3, #6
{
   b72c6:	b08d      	sub	sp, #52	; 0x34
   b72c8:	460e      	mov	r6, r1
		char buf[INET6_ADDRSTRLEN+1];
		buf[0] = 0;
		inet_inet_ntop(AF_INET6, address.ipv6, buf, sizeof(buf));
   b72ca:	f100 0704 	add.w	r7, r0, #4
   b72ce:	f04f 0400 	mov.w	r4, #0
	if (address.v==6) {
   b72d2:	d012      	beq.n	b72fa <_ZNK9IPAddress7printToER5Print+0x3a>
   b72d4:	f100 0508 	add.w	r5, r0, #8
            val = n;
        }
#if __GNUC__ >= 9
#pragma GCC diagnostic pop
#endif // __GNUC__ >= 9
        return printNumber(val, base) + t;
   b72d8:	f815 1d01 	ldrb.w	r1, [r5, #-1]!
   b72dc:	220a      	movs	r2, #10
   b72de:	4630      	mov	r0, r6
   b72e0:	f7fe ff17 	bl	b6112 <_ZN5Print11printNumberEmh>
#else
#pragma message "HAL_USE_INET_HAL_POSIX is required for IPv6 support in IPAddress::printTo()"
#endif // HAL_USE_INET_HAL_POSIX
#endif // Wiring_IPv6
    size_t n = 0;
    for (int i = 0; i < 4; i++)
   b72e4:	42af      	cmp	r7, r5
    {
        if (n)
            n += p.print('.');
        n += p.print((*this)[i], DEC);
   b72e6:	4404      	add	r4, r0
    for (int i = 0; i < 4; i++)
   b72e8:	d019      	beq.n	b731e <_ZNK9IPAddress7printToER5Print+0x5e>
        if (n)
   b72ea:	2c00      	cmp	r4, #0
   b72ec:	d0f4      	beq.n	b72d8 <_ZNK9IPAddress7printToER5Print+0x18>
            n += p.print('.');
   b72ee:	212e      	movs	r1, #46	; 0x2e
   b72f0:	4630      	mov	r0, r6
   b72f2:	f7fe fef5 	bl	b60e0 <_ZN5Print5printEc>
   b72f6:	4404      	add	r4, r0
   b72f8:	e7ee      	b.n	b72d8 <_ZNK9IPAddress7printToER5Print+0x18>
		inet_inet_ntop(AF_INET6, address.ipv6, buf, sizeof(buf));
   b72fa:	232f      	movs	r3, #47	; 0x2f
   b72fc:	466a      	mov	r2, sp
   b72fe:	4639      	mov	r1, r7
   b7300:	200a      	movs	r0, #10
		buf[0] = 0;
   b7302:	f88d 4000 	strb.w	r4, [sp]
		inet_inet_ntop(AF_INET6, address.ipv6, buf, sizeof(buf));
   b7306:	f7fd fc6d 	bl	b4be4 <inet_inet_ntop>
      return write((const uint8_t *)str, strlen(str));
   b730a:	4668      	mov	r0, sp
   b730c:	f7fc fe90 	bl	b4030 <strlen>
   b7310:	6833      	ldr	r3, [r6, #0]
   b7312:	4602      	mov	r2, r0
   b7314:	68db      	ldr	r3, [r3, #12]
   b7316:	4669      	mov	r1, sp
   b7318:	4630      	mov	r0, r6
   b731a:	4798      	blx	r3
   b731c:	4604      	mov	r4, r0
    }
    return n;
}
   b731e:	4620      	mov	r0, r4
   b7320:	b00d      	add	sp, #52	; 0x34
   b7322:	bdf0      	pop	{r4, r5, r6, r7, pc}

000b7324 <_ZN9IPAddressC1Ev>:
IPAddress::IPAddress()
   b7324:	b510      	push	{r4, lr}
   b7326:	4b05      	ldr	r3, [pc, #20]	; (b733c <_ZN9IPAddressC1Ev+0x18>)
   b7328:	4604      	mov	r4, r0
        return address;
    }

    virtual size_t printTo(Print& p) const;

    void clear() { memset(&address, 0, sizeof (address)); }
   b732a:	2211      	movs	r2, #17
   b732c:	f840 3b04 	str.w	r3, [r0], #4
   b7330:	2100      	movs	r1, #0
   b7332:	f001 f943 	bl	b85bc <memset>
}
   b7336:	4620      	mov	r0, r4
   b7338:	bd10      	pop	{r4, pc}
   b733a:	bf00      	nop
   b733c:	000b8c84 	.word	0x000b8c84

000b7340 <_ZN9IPAddressC1ERK16_HAL_IPAddress_t>:
IPAddress::IPAddress(const HAL_IPAddress& address)
   b7340:	4603      	mov	r3, r0
   b7342:	4a07      	ldr	r2, [pc, #28]	; (b7360 <_ZN9IPAddressC1ERK16_HAL_IPAddress_t+0x20>)
   b7344:	b510      	push	{r4, lr}
   b7346:	f843 2b04 	str.w	r2, [r3], #4
    memcpy(&this->address, &address, sizeof(address));
   b734a:	f101 0210 	add.w	r2, r1, #16
   b734e:	f851 4b04 	ldr.w	r4, [r1], #4
   b7352:	f843 4b04 	str.w	r4, [r3], #4
   b7356:	4291      	cmp	r1, r2
   b7358:	d1f9      	bne.n	b734e <_ZN9IPAddressC1ERK16_HAL_IPAddress_t+0xe>
   b735a:	780a      	ldrb	r2, [r1, #0]
   b735c:	701a      	strb	r2, [r3, #0]
}
   b735e:	bd10      	pop	{r4, pc}
   b7360:	000b8c84 	.word	0x000b8c84

000b7364 <_ZNK9IPAddresscvbEv>:

    String toString() const { return String(*this); }

    uint8_t version() const {
#if HAL_IPv6
    		return address.v;
   b7364:	7d03      	ldrb	r3, [r0, #20]
    if (version() == 4) {
   b7366:	2b04      	cmp	r3, #4
   b7368:	d104      	bne.n	b7374 <_ZNK9IPAddresscvbEv+0x10>
        return address.ipv4 != 0;
   b736a:	6840      	ldr	r0, [r0, #4]
        return address.ipv6[0] != 0 || address.ipv6[1] != 0 || address.ipv6[2] != 0 || address.ipv6[3] != 0;
   b736c:	3800      	subs	r0, #0
   b736e:	bf18      	it	ne
   b7370:	2001      	movne	r0, #1
   b7372:	4770      	bx	lr
    } else if (version() == 6) {
   b7374:	2b06      	cmp	r3, #6
   b7376:	d107      	bne.n	b7388 <_ZNK9IPAddresscvbEv+0x24>
        return address.ipv6[0] != 0 || address.ipv6[1] != 0 || address.ipv6[2] != 0 || address.ipv6[3] != 0;
   b7378:	6843      	ldr	r3, [r0, #4]
   b737a:	b93b      	cbnz	r3, b738c <_ZNK9IPAddresscvbEv+0x28>
   b737c:	6883      	ldr	r3, [r0, #8]
   b737e:	b92b      	cbnz	r3, b738c <_ZNK9IPAddresscvbEv+0x28>
   b7380:	68c3      	ldr	r3, [r0, #12]
   b7382:	b91b      	cbnz	r3, b738c <_ZNK9IPAddresscvbEv+0x28>
   b7384:	6900      	ldr	r0, [r0, #16]
   b7386:	e7f1      	b.n	b736c <_ZNK9IPAddresscvbEv+0x8>
        return false;
   b7388:	2000      	movs	r0, #0
   b738a:	4770      	bx	lr
        return address.ipv6[0] != 0 || address.ipv6[1] != 0 || address.ipv6[2] != 0 || address.ipv6[3] != 0;
   b738c:	2001      	movs	r0, #1
}
   b738e:	4770      	bx	lr

000b7390 <_ZN9IPAddress8set_ipv4Ehhhh>:
{
   b7390:	b510      	push	{r4, lr}
    address.ipv4 = b0<<24 | b1 << 16 | b2 << 8 | b3;
   b7392:	f89d 4008 	ldrb.w	r4, [sp, #8]
   b7396:	ea44 2303 	orr.w	r3, r4, r3, lsl #8
   b739a:	ea43 4202 	orr.w	r2, r3, r2, lsl #16
   b739e:	ea42 6101 	orr.w	r1, r2, r1, lsl #24
        address.v = version;
   b73a2:	2304      	movs	r3, #4
   b73a4:	6041      	str	r1, [r0, #4]
   b73a6:	7503      	strb	r3, [r0, #20]
}
   b73a8:	bd10      	pop	{r4, pc}
	...

000b73ac <_ZN9IPAddressC1EPKh>:
IPAddress::IPAddress(const uint8_t* addr)
   b73ac:	b507      	push	{r0, r1, r2, lr}
   b73ae:	4b06      	ldr	r3, [pc, #24]	; (b73c8 <_ZN9IPAddressC1EPKh+0x1c>)
   b73b0:	6003      	str	r3, [r0, #0]
    set_ipv4(addr[0], addr[1], addr[2], addr[3]);
   b73b2:	78cb      	ldrb	r3, [r1, #3]
   b73b4:	9300      	str	r3, [sp, #0]
   b73b6:	788b      	ldrb	r3, [r1, #2]
   b73b8:	784a      	ldrb	r2, [r1, #1]
   b73ba:	7809      	ldrb	r1, [r1, #0]
   b73bc:	f7ff ffe8 	bl	b7390 <_ZN9IPAddress8set_ipv4Ehhhh>
}
   b73c0:	b003      	add	sp, #12
   b73c2:	f85d fb04 	ldr.w	pc, [sp], #4
   b73c6:	bf00      	nop
   b73c8:	000b8c84 	.word	0x000b8c84

000b73cc <_ZN9USBSerial14blockOnOverrunEb>:
  HAL_USB_USART_Flush_Data(_serial);
}

void USBSerial::blockOnOverrun(bool block)
{
  _blocking = block;
   b73cc:	7441      	strb	r1, [r0, #17]
}
   b73ce:	4770      	bx	lr

000b73d0 <__tcf_0>:
}

USBSerial& _fetch_usbserial()
{
  HAL_USB_USART_Config conf = acquireSerialBuffer();
	static USBSerial _usbserial(HAL_USB_USART_SERIAL, conf);
   b73d0:	4770      	bx	lr

000b73d2 <_ZN9USBSerialD1Ev>:
#include "usb_hal.h"
#include "system_task.h"
#include "spark_wiring_startup.h"
#include "concurrent_hal.h"

class USBSerial : public Stream
   b73d2:	4770      	bx	lr

000b73d4 <_ZN9USBSerial4readEv>:
{
   b73d4:	b508      	push	{r3, lr}
	return std::max(-1, (int)HAL_USB_USART_Receive_Data(_serial, false));
   b73d6:	2100      	movs	r1, #0
   b73d8:	7c00      	ldrb	r0, [r0, #16]
   b73da:	f7fd fd3b 	bl	b4e54 <HAL_USB_USART_Receive_Data>
}
   b73de:	ea40 70e0 	orr.w	r0, r0, r0, asr #31
   b73e2:	bd08      	pop	{r3, pc}

000b73e4 <_ZN9USBSerial4peekEv>:
{
   b73e4:	b508      	push	{r3, lr}
	return std::max(-1, (int)HAL_USB_USART_Receive_Data(_serial, true));
   b73e6:	2101      	movs	r1, #1
   b73e8:	7c00      	ldrb	r0, [r0, #16]
   b73ea:	f7fd fd33 	bl	b4e54 <HAL_USB_USART_Receive_Data>
}
   b73ee:	ea40 70e0 	orr.w	r0, r0, r0, asr #31
   b73f2:	bd08      	pop	{r3, pc}

000b73f4 <_ZN9USBSerial17availableForWriteEv>:
{
   b73f4:	b508      	push	{r3, lr}
  return std::max(0, (int)HAL_USB_USART_Available_Data_For_Write(_serial));
   b73f6:	7c00      	ldrb	r0, [r0, #16]
   b73f8:	f7fd fd24 	bl	b4e44 <HAL_USB_USART_Available_Data_For_Write>
}
   b73fc:	ea20 70e0 	bic.w	r0, r0, r0, asr #31
   b7400:	bd08      	pop	{r3, pc}

000b7402 <_ZN9USBSerial9availableEv>:
{
   b7402:	b508      	push	{r3, lr}
	return std::max(0, (int)HAL_USB_USART_Available_Data(_serial));
   b7404:	7c00      	ldrb	r0, [r0, #16]
   b7406:	f7fd fd15 	bl	b4e34 <HAL_USB_USART_Available_Data>
}
   b740a:	ea20 70e0 	bic.w	r0, r0, r0, asr #31
   b740e:	bd08      	pop	{r3, pc}

000b7410 <_ZN9USBSerial5writeEh>:
{
   b7410:	b513      	push	{r0, r1, r4, lr}
   b7412:	4604      	mov	r4, r0
  if (HAL_USB_USART_Available_Data_For_Write(_serial) > 0 || _blocking) {
   b7414:	7c00      	ldrb	r0, [r0, #16]
{
   b7416:	9101      	str	r1, [sp, #4]
  if (HAL_USB_USART_Available_Data_For_Write(_serial) > 0 || _blocking) {
   b7418:	f7fd fd14 	bl	b4e44 <HAL_USB_USART_Available_Data_For_Write>
   b741c:	2800      	cmp	r0, #0
   b741e:	9901      	ldr	r1, [sp, #4]
   b7420:	dc01      	bgt.n	b7426 <_ZN9USBSerial5writeEh+0x16>
   b7422:	7c60      	ldrb	r0, [r4, #17]
   b7424:	b120      	cbz	r0, b7430 <_ZN9USBSerial5writeEh+0x20>
    return std::max(0, (int)HAL_USB_USART_Send_Data(_serial, byte));
   b7426:	7c20      	ldrb	r0, [r4, #16]
   b7428:	f7fd fd1c 	bl	b4e64 <HAL_USB_USART_Send_Data>
   b742c:	ea20 70e0 	bic.w	r0, r0, r0, asr #31
}
   b7430:	b002      	add	sp, #8
   b7432:	bd10      	pop	{r4, pc}

000b7434 <_ZN9USBSerial5flushEv>:
  HAL_USB_USART_Flush_Data(_serial);
   b7434:	7c00      	ldrb	r0, [r0, #16]
   b7436:	f7fd bd1d 	b.w	b4e74 <HAL_USB_USART_Flush_Data>

000b743a <_ZN9USBSerialD0Ev>:
   b743a:	b510      	push	{r4, lr}
   b743c:	2114      	movs	r1, #20
   b743e:	4604      	mov	r4, r0
   b7440:	f7fc fe3f 	bl	b40c2 <_ZdlPvj>
   b7444:	4620      	mov	r0, r4
   b7446:	bd10      	pop	{r4, pc}

000b7448 <_ZN9USBSerialC1E20HAL_USB_USART_SerialRK20HAL_USB_USART_Config>:
USBSerial::USBSerial(HAL_USB_USART_Serial serial, const HAL_USB_USART_Config& conf)
   b7448:	b510      	push	{r4, lr}
    virtual int available() = 0;
    virtual int read() = 0;
    virtual int peek() = 0;
    virtual void flush() = 0;

    Stream() {_timeout=1000;}
   b744a:	f44f 737a 	mov.w	r3, #1000	; 0x3e8
   b744e:	4604      	mov	r4, r0
   b7450:	4608      	mov	r0, r1
   b7452:	2100      	movs	r1, #0
   b7454:	e9c4 1301 	strd	r1, r3, [r4, #4]
   b7458:	4b04      	ldr	r3, [pc, #16]	; (b746c <_ZN9USBSerialC1E20HAL_USB_USART_SerialRK20HAL_USB_USART_Config+0x24>)
   b745a:	6023      	str	r3, [r4, #0]
  _blocking = true;
   b745c:	2301      	movs	r3, #1
  _serial = serial;
   b745e:	7420      	strb	r0, [r4, #16]
  _blocking = true;
   b7460:	7463      	strb	r3, [r4, #17]
  HAL_USB_USART_Init(_serial, &conf);
   b7462:	4611      	mov	r1, r2
   b7464:	f7fd fcce 	bl	b4e04 <HAL_USB_USART_Init>
}
   b7468:	4620      	mov	r0, r4
   b746a:	bd10      	pop	{r4, pc}
   b746c:	000b8c98 	.word	0x000b8c98

000b7470 <_ZN9USBSerial5beginEl>:
    HAL_USB_USART_Begin(_serial, speed, NULL);
   b7470:	7c00      	ldrb	r0, [r0, #16]
   b7472:	2200      	movs	r2, #0
   b7474:	f7fd bcce 	b.w	b4e14 <HAL_USB_USART_Begin>

000b7478 <_ZN9USBSerial3endEv>:
    HAL_USB_USART_End(_serial);
   b7478:	7c00      	ldrb	r0, [r0, #16]
   b747a:	f7fd bcd3 	b.w	b4e24 <HAL_USB_USART_End>

000b747e <_Z19acquireSerialBufferv>:
{
   b747e:	b510      	push	{r4, lr}
  HAL_USB_USART_Config conf = {};
   b7480:	2214      	movs	r2, #20
{
   b7482:	4604      	mov	r4, r0
  HAL_USB_USART_Config conf = {};
   b7484:	2100      	movs	r1, #0
   b7486:	f001 f899 	bl	b85bc <memset>
}
   b748a:	4620      	mov	r0, r4
   b748c:	bd10      	pop	{r4, pc}
	...

000b7490 <_Z16_fetch_usbserialv>:
{
   b7490:	b510      	push	{r4, lr}
	static USBSerial _usbserial(HAL_USB_USART_SERIAL, conf);
   b7492:	4c0f      	ldr	r4, [pc, #60]	; (b74d0 <_Z16_fetch_usbserialv+0x40>)
{
   b7494:	b088      	sub	sp, #32
  HAL_USB_USART_Config conf = acquireSerialBuffer();
   b7496:	a803      	add	r0, sp, #12
   b7498:	f7ff fff1 	bl	b747e <_Z19acquireSerialBufferv>
	static USBSerial _usbserial(HAL_USB_USART_SERIAL, conf);
   b749c:	7821      	ldrb	r1, [r4, #0]
   b749e:	f3bf 8f5b 	dmb	ish
   b74a2:	f011 0101 	ands.w	r1, r1, #1
   b74a6:	d10f      	bne.n	b74c8 <_Z16_fetch_usbserialv+0x38>
   b74a8:	4620      	mov	r0, r4
   b74aa:	9101      	str	r1, [sp, #4]
   b74ac:	f7fc fe18 	bl	b40e0 <__cxa_guard_acquire>
   b74b0:	9901      	ldr	r1, [sp, #4]
   b74b2:	b148      	cbz	r0, b74c8 <_Z16_fetch_usbserialv+0x38>
   b74b4:	aa03      	add	r2, sp, #12
   b74b6:	4807      	ldr	r0, [pc, #28]	; (b74d4 <_Z16_fetch_usbserialv+0x44>)
   b74b8:	f7ff ffc6 	bl	b7448 <_ZN9USBSerialC1E20HAL_USB_USART_SerialRK20HAL_USB_USART_Config>
   b74bc:	4620      	mov	r0, r4
   b74be:	f7fc fe14 	bl	b40ea <__cxa_guard_release>
   b74c2:	4805      	ldr	r0, [pc, #20]	; (b74d8 <_Z16_fetch_usbserialv+0x48>)
   b74c4:	f001 f834 	bl	b8530 <atexit>
	return _usbserial;
}
   b74c8:	4802      	ldr	r0, [pc, #8]	; (b74d4 <_Z16_fetch_usbserialv+0x44>)
   b74ca:	b008      	add	sp, #32
   b74cc:	bd10      	pop	{r4, pc}
   b74ce:	bf00      	nop
   b74d0:	2003e700 	.word	0x2003e700
   b74d4:	2003e704 	.word	0x2003e704
   b74d8:	000b73d1 	.word	0x000b73d1

000b74dc <_ZN11USARTSerialD1Ev>:
private:
  hal_usart_interface_t _serial;
  bool _blocking;
public:
  USARTSerial(hal_usart_interface_t serial, const hal_usart_buffer_config_t& config);
  virtual ~USARTSerial() {};
   b74dc:	4770      	bx	lr

000b74de <_ZN11USARTSerial14blockOnOverrunEb>:
    hal_usart_half_duplex(_serial, Enable);
}

void USARTSerial::blockOnOverrun(bool block)
{
  _blocking = block;
   b74de:	7441      	strb	r1, [r0, #17]
}
   b74e0:	4770      	bx	lr

000b74e2 <_ZN11USARTSerial17availableForWriteEv>:


int USARTSerial::availableForWrite(void)
{
   b74e2:	b508      	push	{r3, lr}
  return std::max(0, (int)hal_usart_available_data_for_write(_serial));
   b74e4:	7c00      	ldrb	r0, [r0, #16]
   b74e6:	f7fd fbcd 	bl	b4c84 <hal_usart_available_data_for_write>
}
   b74ea:	ea20 70e0 	bic.w	r0, r0, r0, asr #31
   b74ee:	bd08      	pop	{r3, pc}

000b74f0 <_ZN11USARTSerial9availableEv>:

int USARTSerial::available(void)
{
   b74f0:	b508      	push	{r3, lr}
  return std::max(0, (int)hal_usart_available(_serial));
   b74f2:	7c00      	ldrb	r0, [r0, #16]
   b74f4:	f7fd fb9e 	bl	b4c34 <hal_usart_available>
}
   b74f8:	ea20 70e0 	bic.w	r0, r0, r0, asr #31
   b74fc:	bd08      	pop	{r3, pc}

000b74fe <_ZN11USARTSerial4peekEv>:

int USARTSerial::peek(void)
{
   b74fe:	b508      	push	{r3, lr}
  return std::max(-1, (int)hal_usart_peek(_serial));
   b7500:	7c00      	ldrb	r0, [r0, #16]
   b7502:	f7fd fba7 	bl	b4c54 <hal_usart_peek>
}
   b7506:	ea40 70e0 	orr.w	r0, r0, r0, asr #31
   b750a:	bd08      	pop	{r3, pc}

000b750c <_ZN11USARTSerial4readEv>:

int USARTSerial::read(void)
{
   b750c:	b508      	push	{r3, lr}
  return std::max(-1, (int)hal_usart_read(_serial));
   b750e:	7c00      	ldrb	r0, [r0, #16]
   b7510:	f7fd fb98 	bl	b4c44 <hal_usart_read>
}
   b7514:	ea40 70e0 	orr.w	r0, r0, r0, asr #31
   b7518:	bd08      	pop	{r3, pc}

000b751a <_ZN11USARTSerial5flushEv>:

void USARTSerial::flush()
{
  hal_usart_flush(_serial);
   b751a:	7c00      	ldrb	r0, [r0, #16]
   b751c:	f7fd bba2 	b.w	b4c64 <hal_usart_flush>

000b7520 <_ZN11USARTSerial5writeEh>:
}

size_t USARTSerial::write(uint8_t c)
{
   b7520:	b537      	push	{r0, r1, r2, r4, r5, lr}
  // attempt a write if blocking, or for non-blocking if there is room.
  if (_blocking || hal_usart_available_data_for_write(_serial) > 0) {
   b7522:	7c45      	ldrb	r5, [r0, #17]
{
   b7524:	4604      	mov	r4, r0
  if (_blocking || hal_usart_available_data_for_write(_serial) > 0) {
   b7526:	b12d      	cbz	r5, b7534 <_ZN11USARTSerial5writeEh+0x14>
    // the HAL always blocks.
	  return hal_usart_write(_serial, c);
   b7528:	7c20      	ldrb	r0, [r4, #16]
  }
  return 0;
}
   b752a:	b003      	add	sp, #12
   b752c:	e8bd 4030 	ldmia.w	sp!, {r4, r5, lr}
	  return hal_usart_write(_serial, c);
   b7530:	f7fd bb78 	b.w	b4c24 <hal_usart_write>
  if (_blocking || hal_usart_available_data_for_write(_serial) > 0) {
   b7534:	7c00      	ldrb	r0, [r0, #16]
   b7536:	9101      	str	r1, [sp, #4]
   b7538:	f7fd fba4 	bl	b4c84 <hal_usart_available_data_for_write>
   b753c:	2800      	cmp	r0, #0
   b753e:	9901      	ldr	r1, [sp, #4]
   b7540:	dcf2      	bgt.n	b7528 <_ZN11USARTSerial5writeEh+0x8>
}
   b7542:	4628      	mov	r0, r5
   b7544:	b003      	add	sp, #12
   b7546:	bd30      	pop	{r4, r5, pc}

000b7548 <_ZN11USARTSerialD0Ev>:
   b7548:	b510      	push	{r4, lr}
   b754a:	2114      	movs	r1, #20
   b754c:	4604      	mov	r4, r0
   b754e:	f7fc fdb8 	bl	b40c2 <_ZdlPvj>
   b7552:	4620      	mov	r0, r4
   b7554:	bd10      	pop	{r4, pc}
	...

000b7558 <_ZN11USARTSerialC1E21hal_usart_interface_tRK25hal_usart_buffer_config_t>:
USARTSerial::USARTSerial(hal_usart_interface_t serial, const hal_usart_buffer_config_t& config)
   b7558:	b510      	push	{r4, lr}
   b755a:	f44f 737a 	mov.w	r3, #1000	; 0x3e8
   b755e:	4604      	mov	r4, r0
   b7560:	4608      	mov	r0, r1
   b7562:	4611      	mov	r1, r2
   b7564:	2200      	movs	r2, #0
   b7566:	e9c4 2301 	strd	r2, r3, [r4, #4]
   b756a:	4b04      	ldr	r3, [pc, #16]	; (b757c <_ZN11USARTSerialC1E21hal_usart_interface_tRK25hal_usart_buffer_config_t+0x24>)
   b756c:	6023      	str	r3, [r4, #0]
  _blocking = true;
   b756e:	2301      	movs	r3, #1
  _serial = serial;
   b7570:	7420      	strb	r0, [r4, #16]
  _blocking = true;
   b7572:	7463      	strb	r3, [r4, #17]
  hal_usart_init_ex(serial, &config, nullptr);
   b7574:	f7fd fb96 	bl	b4ca4 <hal_usart_init_ex>
}
   b7578:	4620      	mov	r0, r4
   b757a:	bd10      	pop	{r4, pc}
   b757c:	000b8cc8 	.word	0x000b8cc8

000b7580 <_ZN11USARTSerial5beginEmm>:
  hal_usart_begin_config(_serial, baud, config, nullptr);
   b7580:	7c00      	ldrb	r0, [r0, #16]
   b7582:	2300      	movs	r3, #0
   b7584:	f7fd bb86 	b.w	b4c94 <hal_usart_begin_config>

000b7588 <_ZN11USARTSerial5beginEm>:
  begin(baud, SERIAL_8N1);
   b7588:	2200      	movs	r2, #0
   b758a:	f7ff bff9 	b.w	b7580 <_ZN11USARTSerial5beginEmm>

000b758e <_ZN11USARTSerial3endEv>:
  hal_usart_end(_serial);
   b758e:	7c00      	ldrb	r0, [r0, #16]
   b7590:	f7fd bb40 	b.w	b4c14 <hal_usart_end>

000b7594 <_ZN7TwoWireD1Ev>:
private:
  hal_i2c_interface_t _i2c;

public:
  TwoWire(hal_i2c_interface_t i2c, const hal_i2c_config_t& config);
  virtual ~TwoWire() {};
   b7594:	4770      	bx	lr

000b7596 <_ZN7TwoWire5writeEPKhj>:

// must be called in:
// slave tx event callback
// or after beginTransmission(address)
size_t TwoWire::write(const uint8_t *data, size_t quantity)
{
   b7596:	b5f8      	push	{r3, r4, r5, r6, r7, lr}
   b7598:	4606      	mov	r6, r0
   b759a:	4615      	mov	r5, r2
   b759c:	460c      	mov	r4, r1
   b759e:	188f      	adds	r7, r1, r2
  // in master/slave transmitter mode
  for(size_t i = 0; i < quantity; ++i)
   b75a0:	42bc      	cmp	r4, r7
   b75a2:	d006      	beq.n	b75b2 <_ZN7TwoWire5writeEPKhj+0x1c>
  {
    write(data[i]);
   b75a4:	6833      	ldr	r3, [r6, #0]
   b75a6:	f814 1b01 	ldrb.w	r1, [r4], #1
   b75aa:	689b      	ldr	r3, [r3, #8]
   b75ac:	4630      	mov	r0, r6
   b75ae:	4798      	blx	r3
  for(size_t i = 0; i < quantity; ++i)
   b75b0:	e7f6      	b.n	b75a0 <_ZN7TwoWire5writeEPKhj+0xa>
  }

  return quantity;
}
   b75b2:	4628      	mov	r0, r5
   b75b4:	bdf8      	pop	{r3, r4, r5, r6, r7, pc}

000b75b6 <_ZN7TwoWire5writeEh>:
  return hal_i2c_write(_i2c, data, NULL);
   b75b6:	7c00      	ldrb	r0, [r0, #16]
   b75b8:	2200      	movs	r2, #0
   b75ba:	f7fd bb7b 	b.w	b4cb4 <hal_i2c_write>

000b75be <_ZN7TwoWire9availableEv>:
// must be called in:
// slave rx event callback
// or after requestFrom(address, numBytes)
int TwoWire::available(void)
{
  return hal_i2c_available(_i2c, NULL);
   b75be:	7c00      	ldrb	r0, [r0, #16]
   b75c0:	2100      	movs	r1, #0
   b75c2:	f7fd bb7f 	b.w	b4cc4 <hal_i2c_available>

000b75c6 <_ZN7TwoWire4readEv>:
// must be called in:
// slave rx event callback
// or after requestFrom(address, numBytes)
int TwoWire::read(void)
{
  return hal_i2c_read(_i2c, NULL);
   b75c6:	7c00      	ldrb	r0, [r0, #16]
   b75c8:	2100      	movs	r1, #0
   b75ca:	f7fd bb83 	b.w	b4cd4 <hal_i2c_read>

000b75ce <_ZN7TwoWire4peekEv>:
// must be called in:
// slave rx event callback
// or after requestFrom(address, numBytes)
int TwoWire::peek(void)
{
  return hal_i2c_peek(_i2c, NULL);
   b75ce:	7c00      	ldrb	r0, [r0, #16]
   b75d0:	2100      	movs	r1, #0
   b75d2:	f7fd bb87 	b.w	b4ce4 <hal_i2c_peek>

000b75d6 <_ZN7TwoWire5flushEv>:
}

void TwoWire::flush(void)
{
  hal_i2c_flush(_i2c, NULL);
   b75d6:	7c00      	ldrb	r0, [r0, #16]
   b75d8:	2100      	movs	r1, #0
   b75da:	f7fd bb8b 	b.w	b4cf4 <hal_i2c_flush>

000b75de <_ZN7TwoWireD0Ev>:
   b75de:	b510      	push	{r4, lr}
   b75e0:	2114      	movs	r1, #20
   b75e2:	4604      	mov	r4, r0
   b75e4:	f7fc fd6d 	bl	b40c2 <_ZdlPvj>
   b75e8:	4620      	mov	r0, r4
   b75ea:	bd10      	pop	{r4, pc}

000b75ec <_ZN7TwoWireC1E19hal_i2c_interface_tRK16hal_i2c_config_t>:
TwoWire::TwoWire(hal_i2c_interface_t i2c, const hal_i2c_config_t& conf)
   b75ec:	b538      	push	{r3, r4, r5, lr}
   b75ee:	4604      	mov	r4, r0
   b75f0:	4615      	mov	r5, r2
   b75f2:	f44f 737a 	mov.w	r3, #1000	; 0x3e8
   b75f6:	2200      	movs	r2, #0
   b75f8:	e9c4 2301 	strd	r2, r3, [r4, #4]
   b75fc:	4b09      	ldr	r3, [pc, #36]	; (b7624 <_ZN7TwoWireC1E19hal_i2c_interface_tRK16hal_i2c_config_t+0x38>)
  _i2c = i2c;
   b75fe:	7421      	strb	r1, [r4, #16]
TwoWire::TwoWire(hal_i2c_interface_t i2c, const hal_i2c_config_t& conf)
   b7600:	4608      	mov	r0, r1
   b7602:	6023      	str	r3, [r4, #0]
  int result = hal_i2c_init(_i2c, &conf);
   b7604:	4629      	mov	r1, r5
   b7606:	f7fd fb85 	bl	b4d14 <hal_i2c_init>
  if (result == SYSTEM_ERROR_NOT_ENOUGH_DATA && 
   b760a:	30bf      	adds	r0, #191	; 0xbf
   b760c:	d108      	bne.n	b7620 <_ZN7TwoWireC1E19hal_i2c_interface_tRK16hal_i2c_config_t+0x34>
      (conf.flags & HAL_I2C_CONFIG_FLAG_FREEABLE)) {
   b760e:	696b      	ldr	r3, [r5, #20]
  if (result == SYSTEM_ERROR_NOT_ENOUGH_DATA && 
   b7610:	07db      	lsls	r3, r3, #31
   b7612:	d505      	bpl.n	b7620 <_ZN7TwoWireC1E19hal_i2c_interface_tRK16hal_i2c_config_t+0x34>
    free(conf.rx_buffer);
   b7614:	6868      	ldr	r0, [r5, #4]
   b7616:	f7fd fcf9 	bl	b500c <free>
    free(conf.tx_buffer);
   b761a:	68e8      	ldr	r0, [r5, #12]
   b761c:	f7fd fcf6 	bl	b500c <free>
}
   b7620:	4620      	mov	r0, r4
   b7622:	bd38      	pop	{r3, r4, r5, pc}
   b7624:	000b8cf8 	.word	0x000b8cf8

000b7628 <_ZN9TCPClient5writeEh>:
    done.dismiss();

    return 1; // success
}

size_t TCPClient::write(uint8_t b) {
   b7628:	b513      	push	{r0, r1, r4, lr}
    return write(&b, 1, SOCKET_WAIT_FOREVER);
   b762a:	6803      	ldr	r3, [r0, #0]
size_t TCPClient::write(uint8_t b) {
   b762c:	f88d 1007 	strb.w	r1, [sp, #7]
    return write(&b, 1, SOCKET_WAIT_FOREVER);
   b7630:	6bdc      	ldr	r4, [r3, #60]	; 0x3c
   b7632:	2201      	movs	r2, #1
   b7634:	f04f 33ff 	mov.w	r3, #4294967295
   b7638:	f10d 0107 	add.w	r1, sp, #7
   b763c:	47a0      	blx	r4
}
   b763e:	b002      	add	sp, #8
   b7640:	bd10      	pop	{r4, pc}

000b7642 <_ZN9TCPClient5writeEPKhj>:

size_t TCPClient::write(const uint8_t *buffer, size_t size) {
   b7642:	b410      	push	{r4}
    return write(buffer, size, SOCKET_WAIT_FOREVER);
   b7644:	6803      	ldr	r3, [r0, #0]
   b7646:	6bdc      	ldr	r4, [r3, #60]	; 0x3c
   b7648:	f04f 33ff 	mov.w	r3, #4294967295
   b764c:	46a4      	mov	ip, r4
}
   b764e:	f85d 4b04 	ldr.w	r4, [sp], #4
    return write(buffer, size, SOCKET_WAIT_FOREVER);
   b7652:	4760      	bx	ip

000b7654 <_ZN9TCPClient5writeEhm>:

size_t TCPClient::write(uint8_t b, system_tick_t timeout) {
   b7654:	b513      	push	{r0, r1, r4, lr}
   b7656:	4613      	mov	r3, r2
    return write(&b, 1, timeout);
   b7658:	6802      	ldr	r2, [r0, #0]
size_t TCPClient::write(uint8_t b, system_tick_t timeout) {
   b765a:	f88d 1007 	strb.w	r1, [sp, #7]
    return write(&b, 1, timeout);
   b765e:	6bd4      	ldr	r4, [r2, #60]	; 0x3c
   b7660:	f10d 0107 	add.w	r1, sp, #7
   b7664:	2201      	movs	r2, #1
   b7666:	47a0      	blx	r4
}
   b7668:	b002      	add	sp, #8
   b766a:	bd10      	pop	{r4, pc}

000b766c <_ZN9TCPClient4readEv>:
    } // isOpen(d_->sock)
    avail = bufferCount();
    return avail;
}

int TCPClient::read() {
   b766c:	b510      	push	{r4, lr}
      { return _M_ptr; }
   b766e:	6943      	ldr	r3, [r0, #20]
    return (bufferCount() || available()) ? d_->buffer[d_->offset++] : -1;
   b7670:	f8b3 2086 	ldrh.w	r2, [r3, #134]	; 0x86
   b7674:	f8b3 3084 	ldrh.w	r3, [r3, #132]	; 0x84
   b7678:	429a      	cmp	r2, r3
int TCPClient::read() {
   b767a:	4604      	mov	r4, r0
    return (bufferCount() || available()) ? d_->buffer[d_->offset++] : -1;
   b767c:	d008      	beq.n	b7690 <_ZN9TCPClient4readEv+0x24>
   b767e:	6963      	ldr	r3, [r4, #20]
   b7680:	f8b3 2084 	ldrh.w	r2, [r3, #132]	; 0x84
   b7684:	1c51      	adds	r1, r2, #1
   b7686:	f8a3 1084 	strh.w	r1, [r3, #132]	; 0x84
   b768a:	4413      	add	r3, r2
   b768c:	7918      	ldrb	r0, [r3, #4]
}
   b768e:	bd10      	pop	{r4, pc}
    return (bufferCount() || available()) ? d_->buffer[d_->offset++] : -1;
   b7690:	6803      	ldr	r3, [r0, #0]
   b7692:	691b      	ldr	r3, [r3, #16]
   b7694:	4798      	blx	r3
   b7696:	2800      	cmp	r0, #0
   b7698:	d1f1      	bne.n	b767e <_ZN9TCPClient4readEv+0x12>
   b769a:	f04f 30ff 	mov.w	r0, #4294967295
   b769e:	e7f6      	b.n	b768e <_ZN9TCPClient4readEv+0x22>

000b76a0 <_ZN9TCPClient5flushEv>:
    d_->offset = 0;
    d_->total = 0;
}

void TCPClient::flush() {
}
   b76a0:	4770      	bx	lr

000b76a2 <_ZN9TCPClientcvbEv>:
    }
    return rv;
}

uint8_t TCPClient::status() {
    return (isOpen(d_->sock));
   b76a2:	6943      	ldr	r3, [r0, #20]
    return socket_handle_valid(sd);
   b76a4:	6818      	ldr	r0, [r3, #0]
}

TCPClient::operator bool() {
   return (status() != 0);
}
   b76a6:	43c0      	mvns	r0, r0
   b76a8:	0fc0      	lsrs	r0, r0, #31
   b76aa:	4770      	bx	lr

000b76ac <_ZNSt23_Sp_counted_ptr_inplaceIN9TCPClient4DataESaIS1_ELN9__gnu_cxx12_Lock_policyE0EED1Ev>:
      ~_Sp_counted_ptr_inplace() noexcept { }
   b76ac:	4770      	bx	lr
	...

000b76b0 <_ZNSt23_Sp_counted_ptr_inplaceIN9TCPClient4DataESaIS1_ELN9__gnu_cxx12_Lock_policyE0EE14_M_get_deleterERKSt9type_info>:
	    ||
   b76b0:	4b06      	ldr	r3, [pc, #24]	; (b76cc <_ZNSt23_Sp_counted_ptr_inplaceIN9TCPClient4DataESaIS1_ELN9__gnu_cxx12_Lock_policyE0EE14_M_get_deleterERKSt9type_info+0x1c>)
   b76b2:	4299      	cmp	r1, r3
      _M_get_deleter(const std::type_info& __ti) noexcept override
   b76b4:	b510      	push	{r4, lr}
   b76b6:	f100 040c 	add.w	r4, r0, #12
	    ||
   b76ba:	d005      	beq.n	b76c8 <_ZNSt23_Sp_counted_ptr_inplaceIN9TCPClient4DataESaIS1_ELN9__gnu_cxx12_Lock_policyE0EE14_M_get_deleterERKSt9type_info+0x18>
	    _Sp_make_shared_tag::_S_eq(__ti)
   b76bc:	4608      	mov	r0, r1
   b76be:	f000 fe25 	bl	b830c <_ZNSt19_Sp_make_shared_tag5_S_eqERKSt9type_info>
	return nullptr;
   b76c2:	2800      	cmp	r0, #0
   b76c4:	bf08      	it	eq
   b76c6:	2400      	moveq	r4, #0
      }
   b76c8:	4620      	mov	r0, r4
   b76ca:	bd10      	pop	{r4, pc}
   b76cc:	000b8b6c 	.word	0x000b8b6c

000b76d0 <_ZNSt23_Sp_counted_ptr_inplaceIN9TCPClient4DataESaIS1_ELN9__gnu_cxx12_Lock_policyE0EED0Ev>:
      ~_Sp_counted_ptr_inplace() noexcept { }
   b76d0:	b510      	push	{r4, lr}
   b76d2:	21ac      	movs	r1, #172	; 0xac
   b76d4:	4604      	mov	r4, r0
   b76d6:	f7fc fcf4 	bl	b40c2 <_ZdlPvj>
   b76da:	4620      	mov	r0, r4
   b76dc:	bd10      	pop	{r4, pc}

000b76de <_ZNSt23_Sp_counted_ptr_inplaceIN9TCPClient4DataESaIS1_ELN9__gnu_cxx12_Lock_policyE0EE10_M_destroyEv>:
	::operator delete(__p
   b76de:	21ac      	movs	r1, #172	; 0xac
   b76e0:	f7fc bcef 	b.w	b40c2 <_ZdlPvj>

000b76e4 <_ZN9TCPClient5writeEPKhjm>:
size_t TCPClient::write(const uint8_t *buffer, size_t size, system_tick_t timeout) {
   b76e4:	e92d 41f0 	stmdb	sp!, {r4, r5, r6, r7, r8, lr}
    void setWriteError(int err = 1) { write_error = err; }
   b76e8:	f04f 0800 	mov.w	r8, #0
   b76ec:	b086      	sub	sp, #24
   b76ee:	461c      	mov	r4, r3
   b76f0:	f8c0 8004 	str.w	r8, [r0, #4]
   b76f4:	4605      	mov	r5, r0
   b76f6:	460e      	mov	r6, r1
   b76f8:	4617      	mov	r7, r2
    struct timeval tv = {};
   b76fa:	4641      	mov	r1, r8
   b76fc:	2210      	movs	r2, #16
   b76fe:	a802      	add	r0, sp, #8
   b7700:	f000 ff5c 	bl	b85bc <memset>
    if (timeout != SOCKET_WAIT_FOREVER) {
   b7704:	1c63      	adds	r3, r4, #1
   b7706:	d009      	beq.n	b771c <_ZN9TCPClient5writeEPKhjm+0x38>
        tv.tv_sec = timeout / 1000;
   b7708:	f44f 737a 	mov.w	r3, #1000	; 0x3e8
   b770c:	fbb4 f2f3 	udiv	r2, r4, r3
        tv.tv_usec = (timeout % 1000) * 1000;
   b7710:	fb03 4412 	mls	r4, r3, r2, r4
        tv.tv_sec = timeout / 1000;
   b7714:	e9cd 2802 	strd	r2, r8, [sp, #8]
        tv.tv_usec = (timeout % 1000) * 1000;
   b7718:	435c      	muls	r4, r3
   b771a:	9404      	str	r4, [sp, #16]
    int ret = sock_setsockopt(d_->sock, SOL_SOCKET, SO_SNDTIMEO, &tv, sizeof(tv));
   b771c:	6968      	ldr	r0, [r5, #20]
   b771e:	2310      	movs	r3, #16
   b7720:	9300      	str	r3, [sp, #0]
   b7722:	6800      	ldr	r0, [r0, #0]
   b7724:	ab02      	add	r3, sp, #8
   b7726:	f241 0205 	movw	r2, #4101	; 0x1005
   b772a:	f640 71ff 	movw	r1, #4095	; 0xfff
   b772e:	f7fd faf9 	bl	b4d24 <sock_setsockopt>
    if (ret < 0) {
   b7732:	2800      	cmp	r0, #0
   b7734:	da07      	bge.n	b7746 <_ZN9TCPClient5writeEPKhjm+0x62>
        setWriteError(errno);
   b7736:	f7fd fc89 	bl	b504c <__errno>
   b773a:	6803      	ldr	r3, [r0, #0]
   b773c:	606b      	str	r3, [r5, #4]
        return 0;
   b773e:	2000      	movs	r0, #0
}
   b7740:	b006      	add	sp, #24
   b7742:	e8bd 81f0 	ldmia.w	sp!, {r4, r5, r6, r7, r8, pc}
    ret = sock_send(d_->sock, buffer, size, 0);
   b7746:	6968      	ldr	r0, [r5, #20]
   b7748:	2300      	movs	r3, #0
   b774a:	6800      	ldr	r0, [r0, #0]
   b774c:	463a      	mov	r2, r7
   b774e:	4631      	mov	r1, r6
   b7750:	f7fd fb08 	bl	b4d64 <sock_send>
    if (ret < 0) {
   b7754:	1e03      	subs	r3, r0, #0
   b7756:	dbee      	blt.n	b7736 <_ZN9TCPClient5writeEPKhjm+0x52>
    return ret;
   b7758:	4618      	mov	r0, r3
   b775a:	e7f1      	b.n	b7740 <_ZN9TCPClient5writeEPKhjm+0x5c>

000b775c <_ZN9IPAddressaSIPKhEERS_T_.isra.0>:
    IPAddress& operator=(T address) {
   b775c:	b530      	push	{r4, r5, lr}
   b775e:	b087      	sub	sp, #28
   b7760:	4604      	mov	r4, r0
class IPAddress : public Printable {
   b7762:	ad01      	add	r5, sp, #4
        return *this = IPAddress(address);
   b7764:	4668      	mov	r0, sp
   b7766:	f7ff fe21 	bl	b73ac <_ZN9IPAddressC1EPKh>
class IPAddress : public Printable {
   b776a:	cd0f      	ldmia	r5!, {r0, r1, r2, r3}
   b776c:	3404      	adds	r4, #4
   b776e:	c40f      	stmia	r4!, {r0, r1, r2, r3}
   b7770:	682b      	ldr	r3, [r5, #0]
   b7772:	7023      	strb	r3, [r4, #0]
    }
   b7774:	b007      	add	sp, #28
   b7776:	bd30      	pop	{r4, r5, pc}

000b7778 <_ZN9TCPClient8remoteIPEv>:

IPAddress TCPClient::remoteIP() {
   b7778:	b570      	push	{r4, r5, r6, lr}
      { return _M_ptr; }
   b777a:	694d      	ldr	r5, [r1, #20]
class IPAddress : public Printable {
   b777c:	4b05      	ldr	r3, [pc, #20]	; (b7794 <_ZN9TCPClient8remoteIPEv+0x1c>)
   b777e:	4604      	mov	r4, r0
   b7780:	358c      	adds	r5, #140	; 0x8c
   b7782:	f844 3b04 	str.w	r3, [r4], #4
   b7786:	4606      	mov	r6, r0
   b7788:	cd0f      	ldmia	r5!, {r0, r1, r2, r3}
   b778a:	c40f      	stmia	r4!, {r0, r1, r2, r3}
   b778c:	682b      	ldr	r3, [r5, #0]
   b778e:	7023      	strb	r3, [r4, #0]
    return d_->remoteIP;
}
   b7790:	4630      	mov	r0, r6
   b7792:	bd70      	pop	{r4, r5, r6, pc}
   b7794:	000b8c84 	.word	0x000b8c84

000b7798 <_ZN9TCPClient7connectEPKctm>:
int TCPClient::connect(const char* host, uint16_t port, network_interface_t nif) {
   b7798:	e92d 43f0 	stmdb	sp!, {r4, r5, r6, r7, r8, r9, lr}
   b779c:	4698      	mov	r8, r3
    stop();
   b779e:	6803      	ldr	r3, [r0, #0]
int TCPClient::connect(const char* host, uint16_t port, network_interface_t nif) {
   b77a0:	b093      	sub	sp, #76	; 0x4c
   b77a2:	460d      	mov	r5, r1
    struct addrinfo* ais = nullptr;
   b77a4:	2400      	movs	r4, #0
    stop();
   b77a6:	6adb      	ldr	r3, [r3, #44]	; 0x2c
int TCPClient::connect(const char* host, uint16_t port, network_interface_t nif) {
   b77a8:	4606      	mov	r6, r0
   b77aa:	4617      	mov	r7, r2
    stop();
   b77ac:	4798      	blx	r3
    CHECK_TRUE(netdb_getaddrinfo(host, nullptr, nullptr, &ais) == 0, 0); // return 0
   b77ae:	4628      	mov	r0, r5
   b77b0:	466b      	mov	r3, sp
   b77b2:	4622      	mov	r2, r4
   b77b4:	4621      	mov	r1, r4
    struct addrinfo* ais = nullptr;
   b77b6:	9400      	str	r4, [sp, #0]
    CHECK_TRUE(netdb_getaddrinfo(host, nullptr, nullptr, &ais) == 0, 0); // return 0
   b77b8:	f7fd f960 	bl	b4a7c <netdb_getaddrinfo>
   b77bc:	4605      	mov	r5, r0
   b77be:	2800      	cmp	r0, #0
   b77c0:	d163      	bne.n	b788a <_ZN9TCPClient7connectEPKctm+0xf2>
    if (ais && ais->ai_addr) {
   b77c2:	9b00      	ldr	r3, [sp, #0]
   b77c4:	2b00      	cmp	r3, #0
   b77c6:	d04b      	beq.n	b7860 <_ZN9TCPClient7connectEPKctm+0xc8>
   b77c8:	695b      	ldr	r3, [r3, #20]
   b77ca:	2b00      	cmp	r3, #0
   b77cc:	d048      	beq.n	b7860 <_ZN9TCPClient7connectEPKctm+0xc8>
        IPAddress addr;
   b77ce:	a806      	add	r0, sp, #24
   b77d0:	f7ff fda8 	bl	b7324 <_ZN9IPAddressC1Ev>
        detail::sockaddrToIpAddressPort(ais->ai_addr, addr, nullptr);
   b77d4:	9b00      	ldr	r3, [sp, #0]
   b77d6:	695c      	ldr	r4, [r3, #20]
namespace spark {

namespace detail {

inline void sockaddrToIpAddressPort(const struct sockaddr* saddr, IPAddress& addr, uint16_t* port) {
    if (saddr->sa_family == AF_INET) {
   b77d8:	7863      	ldrb	r3, [r4, #1]
   b77da:	2b02      	cmp	r3, #2
   b77dc:	d104      	bne.n	b77e8 <_ZN9TCPClient7connectEPKctm+0x50>
        const struct sockaddr_in* inaddr = (const struct sockaddr_in*)saddr;
        addr = (const uint8_t*)(&inaddr->sin_addr.s_addr);
   b77de:	1d21      	adds	r1, r4, #4
            memcpy(a.ipv6, in6addr->sin6_addr.s6_addr, sizeof(a.ipv6));
            a.v = 6;
            addr = IPAddress(a);
        } else {
            auto ptr = (const uint32_t*)(in6addr->sin6_addr.s6_addr);
            addr = (const uint8_t*)(&ptr[3]);
   b77e0:	a806      	add	r0, sp, #24
   b77e2:	f7ff ffbb 	bl	b775c <_ZN9IPAddressaSIPKhEERS_T_.isra.0>
        }
        if (port) {
   b77e6:	e026      	b.n	b7836 <_ZN9TCPClient7connectEPKctm+0x9e>
    else if (saddr->sa_family == AF_INET6) {
   b77e8:	2b0a      	cmp	r3, #10
   b77ea:	d124      	bne.n	b7836 <_ZN9TCPClient7connectEPKctm+0x9e>
        HAL_IPAddress a = {};
   b77ec:	2211      	movs	r2, #17
   b77ee:	4629      	mov	r1, r5
   b77f0:	a801      	add	r0, sp, #4
   b77f2:	f000 fee3 	bl	b85bc <memset>
        if (!IN6_IS_ADDR_V4MAPPED(&in6addr->sin6_addr)) {
   b77f6:	68a3      	ldr	r3, [r4, #8]
   b77f8:	2b00      	cmp	r3, #0
   b77fa:	d038      	beq.n	b786e <_ZN9TCPClient7connectEPKctm+0xd6>
            memcpy(a.ipv6, in6addr->sin6_addr.s6_addr, sizeof(a.ipv6));
   b77fc:	f104 0308 	add.w	r3, r4, #8
   b7800:	f10d 0c04 	add.w	ip, sp, #4
   b7804:	3418      	adds	r4, #24
   b7806:	6818      	ldr	r0, [r3, #0]
   b7808:	6859      	ldr	r1, [r3, #4]
   b780a:	4662      	mov	r2, ip
   b780c:	c203      	stmia	r2!, {r0, r1}
   b780e:	3308      	adds	r3, #8
   b7810:	42a3      	cmp	r3, r4
   b7812:	4694      	mov	ip, r2
   b7814:	d1f7      	bne.n	b7806 <_ZN9TCPClient7connectEPKctm+0x6e>
            a.v = 6;
   b7816:	2306      	movs	r3, #6
            addr = IPAddress(a);
   b7818:	a901      	add	r1, sp, #4
   b781a:	a80c      	add	r0, sp, #48	; 0x30
            a.v = 6;
   b781c:	f88d 3014 	strb.w	r3, [sp, #20]
            addr = IPAddress(a);
   b7820:	f7ff fd8e 	bl	b7340 <_ZN9IPAddressC1ERK16_HAL_IPAddress_t>
   b7824:	f10d 0c34 	add.w	ip, sp, #52	; 0x34
   b7828:	e8bc 000f 	ldmia.w	ip!, {r0, r1, r2, r3}
   b782c:	ac07      	add	r4, sp, #28
   b782e:	c40f      	stmia	r4!, {r0, r1, r2, r3}
   b7830:	f8dc 3000 	ldr.w	r3, [ip]
   b7834:	7023      	strb	r3, [r4, #0]
        return static_cast<const IPAddress*>(this)->operator bool();
   b7836:	a806      	add	r0, sp, #24
   b7838:	f7ff fd94 	bl	b7364 <_ZNK9IPAddresscvbEv>
        if (addr) {
   b783c:	b180      	cbz	r0, b7860 <_ZN9TCPClient7connectEPKctm+0xc8>
            return connect(addr, port, nif);
   b783e:	6833      	ldr	r3, [r6, #0]
class IPAddress : public Printable {
   b7840:	ad07      	add	r5, sp, #28
   b7842:	f8d3 9020 	ldr.w	r9, [r3, #32]
   b7846:	4b12      	ldr	r3, [pc, #72]	; (b7890 <_ZN9TCPClient7connectEPKctm+0xf8>)
   b7848:	930c      	str	r3, [sp, #48]	; 0x30
   b784a:	cd0f      	ldmia	r5!, {r0, r1, r2, r3}
   b784c:	ac0d      	add	r4, sp, #52	; 0x34
   b784e:	c40f      	stmia	r4!, {r0, r1, r2, r3}
   b7850:	682b      	ldr	r3, [r5, #0]
   b7852:	7023      	strb	r3, [r4, #0]
   b7854:	463a      	mov	r2, r7
   b7856:	4643      	mov	r3, r8
   b7858:	a90c      	add	r1, sp, #48	; 0x30
   b785a:	4630      	mov	r0, r6
   b785c:	47c8      	blx	r9
   b785e:	4605      	mov	r5, r0
    SCOPE_GUARD({
   b7860:	9800      	ldr	r0, [sp, #0]
   b7862:	f7fd f903 	bl	b4a6c <netdb_freeaddrinfo>
}
   b7866:	4628      	mov	r0, r5
   b7868:	b013      	add	sp, #76	; 0x4c
   b786a:	e8bd 83f0 	ldmia.w	sp!, {r4, r5, r6, r7, r8, r9, pc}
        if (!IN6_IS_ADDR_V4MAPPED(&in6addr->sin6_addr)) {
   b786e:	68e3      	ldr	r3, [r4, #12]
   b7870:	2b00      	cmp	r3, #0
   b7872:	d1c3      	bne.n	b77fc <_ZN9TCPClient7connectEPKctm+0x64>
   b7874:	f64f 70ff 	movw	r0, #65535	; 0xffff
   b7878:	f8d4 9010 	ldr.w	r9, [r4, #16]
   b787c:	f7fd f9ba 	bl	b4bf4 <inet_htonl>
   b7880:	4581      	cmp	r9, r0
   b7882:	d1bb      	bne.n	b77fc <_ZN9TCPClient7connectEPKctm+0x64>
            addr = (const uint8_t*)(&ptr[3]);
   b7884:	f104 0114 	add.w	r1, r4, #20
   b7888:	e7aa      	b.n	b77e0 <_ZN9TCPClient7connectEPKctm+0x48>
    CHECK_TRUE(netdb_getaddrinfo(host, nullptr, nullptr, &ais) == 0, 0); // return 0
   b788a:	4625      	mov	r5, r4
   b788c:	e7e8      	b.n	b7860 <_ZN9TCPClient7connectEPKctm+0xc8>
   b788e:	bf00      	nop
   b7890:	000b8c84 	.word	0x000b8c84

000b7894 <_ZN9TCPClient9connectedEv>:
uint8_t TCPClient::connected() {
   b7894:	b538      	push	{r3, r4, r5, lr}
   b7896:	6943      	ldr	r3, [r0, #20]
    bool rv = (status() || bufferCount());
   b7898:	681a      	ldr	r2, [r3, #0]
   b789a:	2a00      	cmp	r2, #0
uint8_t TCPClient::connected() {
   b789c:	4605      	mov	r5, r0
    bool rv = (status() || bufferCount());
   b789e:	da10      	bge.n	b78c2 <_ZN9TCPClient9connectedEv+0x2e>
   b78a0:	f8b3 2086 	ldrh.w	r2, [r3, #134]	; 0x86
   b78a4:	f8b3 3084 	ldrh.w	r3, [r3, #132]	; 0x84
   b78a8:	429a      	cmp	r2, r3
   b78aa:	d10a      	bne.n	b78c2 <_ZN9TCPClient9connectedEv+0x2e>
        rv = available();
   b78ac:	6803      	ldr	r3, [r0, #0]
   b78ae:	691b      	ldr	r3, [r3, #16]
   b78b0:	4798      	blx	r3
        if (!rv) {
   b78b2:	4604      	mov	r4, r0
   b78b4:	b928      	cbnz	r0, b78c2 <_ZN9TCPClient9connectedEv+0x2e>
            stop();
   b78b6:	682b      	ldr	r3, [r5, #0]
   b78b8:	4628      	mov	r0, r5
   b78ba:	6adb      	ldr	r3, [r3, #44]	; 0x2c
   b78bc:	4798      	blx	r3
        rv = available();
   b78be:	4620      	mov	r0, r4
}
   b78c0:	bd38      	pop	{r3, r4, r5, pc}
        rv = available();
   b78c2:	2001      	movs	r0, #1
   b78c4:	e7fc      	b.n	b78c0 <_ZN9TCPClient9connectedEv+0x2c>

000b78c6 <_ZN9TCPClient4peekEv>:
int TCPClient::peek() {
   b78c6:	b510      	push	{r4, lr}
   b78c8:	6943      	ldr	r3, [r0, #20]
    return (bufferCount() || available()) ? d_->buffer[d_->offset] : -1;
   b78ca:	f8b3 2086 	ldrh.w	r2, [r3, #134]	; 0x86
   b78ce:	f8b3 3084 	ldrh.w	r3, [r3, #132]	; 0x84
   b78d2:	429a      	cmp	r2, r3
int TCPClient::peek() {
   b78d4:	4604      	mov	r4, r0
    return (bufferCount() || available()) ? d_->buffer[d_->offset] : -1;
   b78d6:	d005      	beq.n	b78e4 <_ZN9TCPClient4peekEv+0x1e>
   b78d8:	6963      	ldr	r3, [r4, #20]
   b78da:	f8b3 2084 	ldrh.w	r2, [r3, #132]	; 0x84
   b78de:	4413      	add	r3, r2
   b78e0:	7918      	ldrb	r0, [r3, #4]
}
   b78e2:	bd10      	pop	{r4, pc}
    return (bufferCount() || available()) ? d_->buffer[d_->offset] : -1;
   b78e4:	6803      	ldr	r3, [r0, #0]
   b78e6:	691b      	ldr	r3, [r3, #16]
   b78e8:	4798      	blx	r3
   b78ea:	2800      	cmp	r0, #0
   b78ec:	d1f4      	bne.n	b78d8 <_ZN9TCPClient4peekEv+0x12>
   b78ee:	f04f 30ff 	mov.w	r0, #4294967295
   b78f2:	e7f6      	b.n	b78e2 <_ZN9TCPClient4peekEv+0x1c>

000b78f4 <_ZN9TCPClient4readEPhj>:
int TCPClient::read(uint8_t *buffer, size_t size) {
   b78f4:	b5f8      	push	{r3, r4, r5, r6, r7, lr}
   b78f6:	6943      	ldr	r3, [r0, #20]
   b78f8:	4617      	mov	r7, r2
    if (bufferCount() || available()) {
   b78fa:	f8b3 2086 	ldrh.w	r2, [r3, #134]	; 0x86
   b78fe:	f8b3 3084 	ldrh.w	r3, [r3, #132]	; 0x84
   b7902:	429a      	cmp	r2, r3
int TCPClient::read(uint8_t *buffer, size_t size) {
   b7904:	4605      	mov	r5, r0
   b7906:	460e      	mov	r6, r1
    if (bufferCount() || available()) {
   b7908:	d016      	beq.n	b7938 <_ZN9TCPClient4readEPhj+0x44>
   b790a:	6969      	ldr	r1, [r5, #20]
    return d_->total - d_->offset;
   b790c:	f8b1 3084 	ldrh.w	r3, [r1, #132]	; 0x84
   b7910:	f8b1 4086 	ldrh.w	r4, [r1, #134]	; 0x86
   b7914:	1ae4      	subs	r4, r4, r3
        read = (size > (size_t) bufferCount()) ? bufferCount() : size;
   b7916:	42bc      	cmp	r4, r7
   b7918:	bf28      	it	cs
   b791a:	463c      	movcs	r4, r7
        memcpy(buffer, &d_->buffer[d_->offset], read);
   b791c:	3304      	adds	r3, #4
   b791e:	4622      	mov	r2, r4
   b7920:	4419      	add	r1, r3
   b7922:	4630      	mov	r0, r6
   b7924:	f000 fe22 	bl	b856c <memcpy>
   b7928:	696a      	ldr	r2, [r5, #20]
        d_->offset += read;
   b792a:	f8b2 3084 	ldrh.w	r3, [r2, #132]	; 0x84
   b792e:	4423      	add	r3, r4
   b7930:	f8a2 3084 	strh.w	r3, [r2, #132]	; 0x84
}
   b7934:	4620      	mov	r0, r4
   b7936:	bdf8      	pop	{r3, r4, r5, r6, r7, pc}
    if (bufferCount() || available()) {
   b7938:	6803      	ldr	r3, [r0, #0]
   b793a:	691b      	ldr	r3, [r3, #16]
   b793c:	4798      	blx	r3
   b793e:	2800      	cmp	r0, #0
   b7940:	d1e3      	bne.n	b790a <_ZN9TCPClient4readEPhj+0x16>
    int read = -1;
   b7942:	f04f 34ff 	mov.w	r4, #4294967295
   b7946:	e7f5      	b.n	b7934 <_ZN9TCPClient4readEPhj+0x40>

000b7948 <_ZN9TCPClient12flush_bufferEv>:
   b7948:	6942      	ldr	r2, [r0, #20]
    d_->offset = 0;
   b794a:	2300      	movs	r3, #0
   b794c:	f8a2 3084 	strh.w	r3, [r2, #132]	; 0x84
   b7950:	6942      	ldr	r2, [r0, #20]
    d_->total = 0;
   b7952:	f8a2 3086 	strh.w	r3, [r2, #134]	; 0x86
}
   b7956:	4770      	bx	lr

000b7958 <_ZN9TCPClient7connectE9IPAddresstm>:
int TCPClient::connect(IPAddress ip, uint16_t port, network_interface_t nif) {
   b7958:	e92d 41f0 	stmdb	sp!, {r4, r5, r6, r7, r8, lr}
   b795c:	461f      	mov	r7, r3
    stop();
   b795e:	6803      	ldr	r3, [r0, #0]
int TCPClient::connect(IPAddress ip, uint16_t port, network_interface_t nif) {
   b7960:	460c      	mov	r4, r1
    stop();
   b7962:	6adb      	ldr	r3, [r3, #44]	; 0x2c
int TCPClient::connect(IPAddress ip, uint16_t port, network_interface_t nif) {
   b7964:	b08a      	sub	sp, #40	; 0x28
   b7966:	4605      	mov	r5, r0
   b7968:	4616      	mov	r6, r2
    stop();
   b796a:	4798      	blx	r3
    d_->sock = sock_socket(ip.version() == 4 ? AF_INET : AF_INET6, SOCK_STREAM, IPPROTO_TCP);
   b796c:	7d23      	ldrb	r3, [r4, #20]
   b796e:	f8d5 8014 	ldr.w	r8, [r5, #20]
   b7972:	2b04      	cmp	r3, #4
   b7974:	bf0c      	ite	eq
   b7976:	2002      	moveq	r0, #2
   b7978:	200a      	movne	r0, #10
   b797a:	2206      	movs	r2, #6
   b797c:	2101      	movs	r1, #1
   b797e:	f7fd f9f9 	bl	b4d74 <sock_socket>
   b7982:	f8c8 0000 	str.w	r0, [r8]
    CHECK_TRUE(d_->sock >= 0, 0); // return 0
   b7986:	696b      	ldr	r3, [r5, #20]
   b7988:	681b      	ldr	r3, [r3, #0]
   b798a:	2b00      	cmp	r3, #0
   b798c:	da08      	bge.n	b79a0 <_ZN9TCPClient7connectE9IPAddresstm+0x48>
    NAMED_SCOPE_GUARD(done, {
   b798e:	682b      	ldr	r3, [r5, #0]
   b7990:	4628      	mov	r0, r5
   b7992:	6adb      	ldr	r3, [r3, #44]	; 0x2c
        CHECK_TRUE(if_index_to_name(nif, ifr.ifr_name) == 0, 0); // return 0
   b7994:	2400      	movs	r4, #0
    NAMED_SCOPE_GUARD(done, {
   b7996:	4798      	blx	r3
}
   b7998:	4620      	mov	r0, r4
   b799a:	b00a      	add	sp, #40	; 0x28
   b799c:	e8bd 81f0 	ldmia.w	sp!, {r4, r5, r6, r7, r8, pc}
    flush_buffer();
   b79a0:	4628      	mov	r0, r5
   b79a2:	f7ff ffd1 	bl	b7948 <_ZN9TCPClient12flush_bufferEv>
    if (nif != 0) {
   b79a6:	b1b7      	cbz	r7, b79d6 <_ZN9TCPClient7connectE9IPAddresstm+0x7e>
        struct ifreq ifr = {};
   b79a8:	2300      	movs	r3, #0
        CHECK_TRUE(if_index_to_name(nif, ifr.ifr_name) == 0, 0); // return 0
   b79aa:	a903      	add	r1, sp, #12
   b79ac:	b2f8      	uxtb	r0, r7
        struct ifreq ifr = {};
   b79ae:	9303      	str	r3, [sp, #12]
   b79b0:	f8ad 3010 	strh.w	r3, [sp, #16]
        CHECK_TRUE(if_index_to_name(nif, ifr.ifr_name) == 0, 0); // return 0
   b79b4:	f7fd f87a 	bl	b4aac <if_index_to_name>
   b79b8:	2800      	cmp	r0, #0
   b79ba:	d1e8      	bne.n	b798e <_ZN9TCPClient7connectE9IPAddresstm+0x36>
        CHECK_TRUE(sock_setsockopt(d_->sock, SOL_SOCKET, SO_BINDTODEVICE, &ifr, sizeof(ifr)) == 0, 0); // return 0
   b79bc:	6968      	ldr	r0, [r5, #20]
   b79be:	2306      	movs	r3, #6
   b79c0:	9300      	str	r3, [sp, #0]
   b79c2:	6800      	ldr	r0, [r0, #0]
   b79c4:	ab03      	add	r3, sp, #12
   b79c6:	f241 020b 	movw	r2, #4107	; 0x100b
   b79ca:	f640 71ff 	movw	r1, #4095	; 0xfff
   b79ce:	f7fd f9a9 	bl	b4d24 <sock_setsockopt>
   b79d2:	2800      	cmp	r0, #0
   b79d4:	d1db      	bne.n	b798e <_ZN9TCPClient7connectE9IPAddresstm+0x36>
    sockaddr_storage saddr = {};
   b79d6:	221c      	movs	r2, #28
   b79d8:	2100      	movs	r1, #0
   b79da:	a803      	add	r0, sp, #12
   b79dc:	f000 fdee 	bl	b85bc <memset>
    if (ip.version() == 4) {
   b79e0:	7d23      	ldrb	r3, [r4, #20]
   b79e2:	2b04      	cmp	r3, #4
   b79e4:	d11d      	bne.n	b7a22 <_ZN9TCPClient7connectE9IPAddresstm+0xca>
        s->sin_len = sizeof(saddr);
   b79e6:	f44f 7307 	mov.w	r3, #540	; 0x21c
        s->sin_port = htons(port);
   b79ea:	4630      	mov	r0, r6
        s->sin_len = sizeof(saddr);
   b79ec:	f8ad 300c 	strh.w	r3, [sp, #12]
        s->sin_port = htons(port);
   b79f0:	f7fd f908 	bl	b4c04 <inet_htons>
   b79f4:	f8ad 000e 	strh.w	r0, [sp, #14]
        s->sin_addr.s_addr = htonl(ip.raw().ipv4);
   b79f8:	6860      	ldr	r0, [r4, #4]
   b79fa:	f7fd f8fb 	bl	b4bf4 <inet_htonl>
   b79fe:	9004      	str	r0, [sp, #16]
    CHECK_TRUE(sock_connect(d_->sock, (const sockaddr*)&saddr, sizeof(saddr)) == 0, 0); // return 0
   b7a00:	696b      	ldr	r3, [r5, #20]
   b7a02:	221c      	movs	r2, #28
   b7a04:	6818      	ldr	r0, [r3, #0]
   b7a06:	a903      	add	r1, sp, #12
   b7a08:	f7fd f99c 	bl	b4d44 <sock_connect>
   b7a0c:	2800      	cmp	r0, #0
   b7a0e:	d1be      	bne.n	b798e <_ZN9TCPClient7connectE9IPAddresstm+0x36>
   b7a10:	3404      	adds	r4, #4
   b7a12:	cc0f      	ldmia	r4!, {r0, r1, r2, r3}
   b7a14:	696d      	ldr	r5, [r5, #20]
   b7a16:	358c      	adds	r5, #140	; 0x8c
   b7a18:	c50f      	stmia	r5!, {r0, r1, r2, r3}
   b7a1a:	6823      	ldr	r3, [r4, #0]
   b7a1c:	702b      	strb	r3, [r5, #0]
    return 1; // success
   b7a1e:	2401      	movs	r4, #1
   b7a20:	e7ba      	b.n	b7998 <_ZN9TCPClient7connectE9IPAddresstm+0x40>
        s->sin6_len = sizeof(saddr);
   b7a22:	f640 231c 	movw	r3, #2588	; 0xa1c
        s->sin6_port = htons(port);
   b7a26:	4630      	mov	r0, r6
        s->sin6_len = sizeof(saddr);
   b7a28:	f8ad 300c 	strh.w	r3, [sp, #12]
        s->sin6_port = htons(port);
   b7a2c:	f7fd f8ea 	bl	b4c04 <inet_htons>
        memcpy(s->sin6_addr.s6_addr, ip.raw().ipv6, sizeof(s->sin6_addr.s6_addr));
   b7a30:	ae05      	add	r6, sp, #20
        s->sin6_port = htons(port);
   b7a32:	f8ad 000e 	strh.w	r0, [sp, #14]
        memcpy(s->sin6_addr.s6_addr, ip.raw().ipv6, sizeof(s->sin6_addr.s6_addr));
   b7a36:	1d23      	adds	r3, r4, #4
   b7a38:	f104 0714 	add.w	r7, r4, #20
   b7a3c:	6818      	ldr	r0, [r3, #0]
   b7a3e:	6859      	ldr	r1, [r3, #4]
   b7a40:	4632      	mov	r2, r6
   b7a42:	c203      	stmia	r2!, {r0, r1}
   b7a44:	3308      	adds	r3, #8
   b7a46:	42bb      	cmp	r3, r7
   b7a48:	4616      	mov	r6, r2
   b7a4a:	d1f7      	bne.n	b7a3c <_ZN9TCPClient7connectE9IPAddresstm+0xe4>
   b7a4c:	e7d8      	b.n	b7a00 <_ZN9TCPClient7connectE9IPAddresstm+0xa8>
	...

000b7a50 <_ZN9TCPClient9availableEv>:
{
   b7a50:	b530      	push	{r4, r5, lr}
   b7a52:	6942      	ldr	r2, [r0, #20]
    if (d_->total && (d_->offset == d_->total)) {
   b7a54:	f8b2 3086 	ldrh.w	r3, [r2, #134]	; 0x86
{
   b7a58:	b08b      	sub	sp, #44	; 0x2c
   b7a5a:	4604      	mov	r4, r0
    if (d_->total && (d_->offset == d_->total)) {
   b7a5c:	b12b      	cbz	r3, b7a6a <_ZN9TCPClient9availableEv+0x1a>
   b7a5e:	f8b2 2084 	ldrh.w	r2, [r2, #132]	; 0x84
   b7a62:	429a      	cmp	r2, r3
   b7a64:	d101      	bne.n	b7a6a <_ZN9TCPClient9availableEv+0x1a>
        flush_buffer();
   b7a66:	f7ff ff6f 	bl	b7948 <_ZN9TCPClient12flush_bufferEv>
   b7a6a:	6961      	ldr	r1, [r4, #20]
    if (isOpen(d_->sock)) {
   b7a6c:	6808      	ldr	r0, [r1, #0]
   b7a6e:	2800      	cmp	r0, #0
   b7a70:	db18      	blt.n	b7aa4 <_ZN9TCPClient9availableEv+0x54>
        if (d_->total < arraySize(d_->buffer)) {
   b7a72:	f8b1 5086 	ldrh.w	r5, [r1, #134]	; 0x86
   b7a76:	2d7f      	cmp	r5, #127	; 0x7f
   b7a78:	d814      	bhi.n	b7aa4 <_ZN9TCPClient9availableEv+0x54>
            int ret = sock_recv(d_->sock, d_->buffer + d_->total, arraySize(d_->buffer) - d_->total, MSG_DONTWAIT);
   b7a7a:	3104      	adds	r1, #4
   b7a7c:	2308      	movs	r3, #8
   b7a7e:	f1c5 0280 	rsb	r2, r5, #128	; 0x80
   b7a82:	4429      	add	r1, r5
   b7a84:	f7fd f966 	bl	b4d54 <sock_recv>
            if (ret > 0) {
   b7a88:	2800      	cmp	r0, #0
   b7a8a:	dd13      	ble.n	b7ab4 <_ZN9TCPClient9availableEv+0x64>
   b7a8c:	6963      	ldr	r3, [r4, #20]
                if (d_->total == 0) {
   b7a8e:	f8b3 2086 	ldrh.w	r2, [r3, #134]	; 0x86
   b7a92:	b90a      	cbnz	r2, b7a98 <_ZN9TCPClient9availableEv+0x48>
                    d_->offset = 0;
   b7a94:	f8a3 2084 	strh.w	r2, [r3, #132]	; 0x84
   b7a98:	6963      	ldr	r3, [r4, #20]
                d_->total += ret;
   b7a9a:	f8b3 2086 	ldrh.w	r2, [r3, #134]	; 0x86
   b7a9e:	4410      	add	r0, r2
   b7aa0:	f8a3 0086 	strh.w	r0, [r3, #134]	; 0x86
   b7aa4:	6963      	ldr	r3, [r4, #20]
    return d_->total - d_->offset;
   b7aa6:	f8b3 0086 	ldrh.w	r0, [r3, #134]	; 0x86
   b7aaa:	f8b3 3084 	ldrh.w	r3, [r3, #132]	; 0x84
}
   b7aae:	1ac0      	subs	r0, r0, r3
   b7ab0:	b00b      	add	sp, #44	; 0x2c
   b7ab2:	bd30      	pop	{r4, r5, pc}
                if (errno != EAGAIN && errno != EWOULDBLOCK) {
   b7ab4:	f7fd faca 	bl	b504c <__errno>
   b7ab8:	6803      	ldr	r3, [r0, #0]
   b7aba:	2b0b      	cmp	r3, #11
   b7abc:	d0f2      	beq.n	b7aa4 <_ZN9TCPClient9availableEv+0x54>
   b7abe:	f7fd fac5 	bl	b504c <__errno>
   b7ac2:	6803      	ldr	r3, [r0, #0]
   b7ac4:	2b0b      	cmp	r3, #11
   b7ac6:	d0ed      	beq.n	b7aa4 <_ZN9TCPClient9availableEv+0x54>
                    LOG(ERROR, "recv error = %d", errno);
   b7ac8:	2320      	movs	r3, #32
   b7aca:	2500      	movs	r5, #0
   b7acc:	e9cd 3502 	strd	r3, r5, [sp, #8]
   b7ad0:	f7fd fabc 	bl	b504c <__errno>
   b7ad4:	6803      	ldr	r3, [r0, #0]
   b7ad6:	9301      	str	r3, [sp, #4]
   b7ad8:	4b08      	ldr	r3, [pc, #32]	; (b7afc <_ZN9TCPClient9availableEv+0xac>)
   b7ada:	4909      	ldr	r1, [pc, #36]	; (b7b00 <_ZN9TCPClient9availableEv+0xb0>)
   b7adc:	9300      	str	r3, [sp, #0]
   b7ade:	aa02      	add	r2, sp, #8
   b7ae0:	462b      	mov	r3, r5
   b7ae2:	2032      	movs	r0, #50	; 0x32
   b7ae4:	f7fd f9d6 	bl	b4e94 <log_message>
                    sock_close(d_->sock);
   b7ae8:	6963      	ldr	r3, [r4, #20]
   b7aea:	6818      	ldr	r0, [r3, #0]
   b7aec:	f7fd f922 	bl	b4d34 <sock_close>
   b7af0:	6963      	ldr	r3, [r4, #20]
                    d_->sock = -1;
   b7af2:	f04f 32ff 	mov.w	r2, #4294967295
   b7af6:	601a      	str	r2, [r3, #0]
   b7af8:	e7d4      	b.n	b7aa4 <_ZN9TCPClient9availableEv+0x54>
   b7afa:	bf00      	nop
   b7afc:	000b8d1f 	.word	0x000b8d1f
   b7b00:	000b8d18 	.word	0x000b8d18

000b7b04 <_ZN9TCPClient4stopEv>:
void TCPClient::stop() {
   b7b04:	b510      	push	{r4, lr}
    if (isOpen(d_->sock)) {
   b7b06:	6943      	ldr	r3, [r0, #20]
void TCPClient::stop() {
   b7b08:	4604      	mov	r4, r0
    if (isOpen(d_->sock)) {
   b7b0a:	6818      	ldr	r0, [r3, #0]
   b7b0c:	2800      	cmp	r0, #0
   b7b0e:	db01      	blt.n	b7b14 <_ZN9TCPClient4stopEv+0x10>
        sock_close(d_->sock);
   b7b10:	f7fd f910 	bl	b4d34 <sock_close>
   b7b14:	6963      	ldr	r3, [r4, #20]
    d_->sock = -1;
   b7b16:	f04f 32ff 	mov.w	r2, #4294967295
   b7b1a:	601a      	str	r2, [r3, #0]
    void clear() { memset(&address, 0, sizeof (address)); }
   b7b1c:	6960      	ldr	r0, [r4, #20]
   b7b1e:	2211      	movs	r2, #17
   b7b20:	2100      	movs	r1, #0
   b7b22:	308c      	adds	r0, #140	; 0x8c
   b7b24:	f000 fd4a 	bl	b85bc <memset>
    flush_buffer();
   b7b28:	4620      	mov	r0, r4
}
   b7b2a:	e8bd 4010 	ldmia.w	sp!, {r4, lr}
    flush_buffer();
   b7b2e:	f7ff bf0b 	b.w	b7948 <_ZN9TCPClient12flush_bufferEv>

000b7b32 <_ZN9TCPClient4DataC1Ei>:

TCPClient::Data::Data(sock_handle_t sock)
   b7b32:	b510      	push	{r4, lr}
        : sock(sock),
          offset(0),
          total(0) {
   b7b34:	2300      	movs	r3, #0
TCPClient::Data::Data(sock_handle_t sock)
   b7b36:	4604      	mov	r4, r0
          total(0) {
   b7b38:	6001      	str	r1, [r0, #0]
   b7b3a:	f8c0 3084 	str.w	r3, [r0, #132]	; 0x84
   b7b3e:	3088      	adds	r0, #136	; 0x88
   b7b40:	f7ff fbf0 	bl	b7324 <_ZN9IPAddressC1Ev>
}
   b7b44:	4620      	mov	r0, r4
   b7b46:	bd10      	pop	{r4, pc}

000b7b48 <_ZN9TCPClientC1Ei>:
TCPClient::TCPClient(sock_handle_t sock)
   b7b48:	b573      	push	{r0, r1, r4, r5, r6, lr}
   b7b4a:	2300      	movs	r3, #0
   b7b4c:	f44f 727a 	mov.w	r2, #1000	; 0x3e8
   b7b50:	e9c0 3201 	strd	r3, r2, [r0, #4]
        : d_(std::make_shared<Data>(sock)) {
   b7b54:	4a0e      	ldr	r2, [pc, #56]	; (b7b90 <_ZN9TCPClientC1Ei+0x48>)
#include "system_network.h"
#include "spark_wiring_print.h"
#include "spark_wiring_stream.h"
#include "spark_wiring_ipaddress.h"

class Client : public Stream {
   b7b56:	6103      	str	r3, [r0, #16]
   b7b58:	6002      	str	r2, [r0, #0]
	: _M_ptr(), _M_refcount(_M_ptr, __tag, std::forward<_Args>(__args)...)
   b7b5a:	6143      	str	r3, [r0, #20]
TCPClient::TCPClient(sock_handle_t sock)
   b7b5c:	4604      	mov	r4, r0
	return static_cast<_Tp*>(::operator new(__n * sizeof(_Tp)));
   b7b5e:	20ac      	movs	r0, #172	; 0xac
   b7b60:	9101      	str	r1, [sp, #4]
   b7b62:	f7fc faa8 	bl	b40b6 <_Znwj>
	  auto __pi = ::new (__mem)
   b7b66:	1e05      	subs	r5, r0, #0
   b7b68:	f105 060c 	add.w	r6, r5, #12
   b7b6c:	d008      	beq.n	b7b80 <_ZN9TCPClientC1Ei+0x38>
      : _M_use_count(1), _M_weak_count(1) { }
   b7b6e:	2301      	movs	r3, #1
   b7b70:	e9c5 3301 	strd	r3, r3, [r5, #4]
	: _M_impl(__a)
   b7b74:	4b07      	ldr	r3, [pc, #28]	; (b7b94 <_ZN9TCPClientC1Ei+0x4c>)
#if __cplusplus >= 201103L
      template<typename _Up, typename... _Args>
	void
	construct(_Up* __p, _Args&&... __args)
	noexcept(std::is_nothrow_constructible<_Up, _Args...>::value)
	{ ::new((void *)__p) _Up(std::forward<_Args>(__args)...); }
   b7b76:	9901      	ldr	r1, [sp, #4]
   b7b78:	602b      	str	r3, [r5, #0]
   b7b7a:	4630      	mov	r0, r6
   b7b7c:	f7ff ffd9 	bl	b7b32 <_ZN9TCPClient4DataC1Ei>
    flush_buffer();
   b7b80:	4620      	mov	r0, r4
	  __p = __pi->_M_ptr();
   b7b82:	e9c4 6505 	strd	r6, r5, [r4, #20]
   b7b86:	f7ff fedf 	bl	b7948 <_ZN9TCPClient12flush_bufferEv>
}
   b7b8a:	b002      	add	sp, #8
   b7b8c:	bd70      	pop	{r4, r5, r6, pc}
   b7b8e:	bf00      	nop
   b7b90:	000b8d54 	.word	0x000b8d54
   b7b94:	000b8d38 	.word	0x000b8d38

000b7b98 <_ZN9TCPClientC1Ev>:
TCPClient::TCPClient()
   b7b98:	b510      	push	{r4, lr}
        : TCPClient(-1) {
   b7b9a:	f04f 31ff 	mov.w	r1, #4294967295
TCPClient::TCPClient()
   b7b9e:	4604      	mov	r4, r0
        : TCPClient(-1) {
   b7ba0:	f7ff ffd2 	bl	b7b48 <_ZN9TCPClientC1Ei>
}
   b7ba4:	4620      	mov	r0, r4
   b7ba6:	bd10      	pop	{r4, pc}

000b7ba8 <_ZN9TCPClient4DataD1Ev>:

TCPClient::Data::~Data() {
   b7ba8:	b510      	push	{r4, lr}
   b7baa:	4604      	mov	r4, r0
    if (socket_handle_valid(sock)) {
   b7bac:	6800      	ldr	r0, [r0, #0]
   b7bae:	2800      	cmp	r0, #0
   b7bb0:	db01      	blt.n	b7bb6 <_ZN9TCPClient4DataD1Ev+0xe>
        sock_close(sock);
   b7bb2:	f7fd f8bf 	bl	b4d34 <sock_close>
    }
}
   b7bb6:	4620      	mov	r0, r4
   b7bb8:	bd10      	pop	{r4, pc}

000b7bba <_ZNSt23_Sp_counted_ptr_inplaceIN9TCPClient4DataESaIS1_ELN9__gnu_cxx12_Lock_policyE0EE10_M_disposeEv>:

      template<typename _Up>
	void
	destroy(_Up* __p)
	noexcept(std::is_nothrow_destructible<_Up>::value)
	{ __p->~_Up(); }
   b7bba:	300c      	adds	r0, #12
   b7bbc:	f7ff bff4 	b.w	b7ba8 <_ZN9TCPClient4DataD1Ev>

000b7bc0 <_ZN5spark9WiFiClass5readyEv>:
    bool connecting(void) {
        return network_connecting(*this, 0, NULL);
    }

    bool ready(void) {
        return network_ready(*this, 0, NULL);
   b7bc0:	2200      	movs	r2, #0
   b7bc2:	6840      	ldr	r0, [r0, #4]
   b7bc4:	4611      	mov	r1, r2
   b7bc6:	f7fd b9c9 	b.w	b4f5c <network_ready>

000b7bca <_ZN5spark9WiFiClass9listeningEv>:
    uint16_t getListenTimeout(void) {
        return network_get_listen_timeout(*this, 0, NULL);
    }

    bool listening(void) {
        return network_listening(*this, 0, NULL);
   b7bca:	2200      	movs	r2, #0
   b7bcc:	6840      	ldr	r0, [r0, #4]
   b7bce:	4611      	mov	r1, r2
   b7bd0:	f7fd b9e4 	b.w	b4f9c <network_listening>

000b7bd4 <_ZN5spark9WiFiClass16getListenTimeoutEv>:
        return network_get_listen_timeout(*this, 0, NULL);
   b7bd4:	2200      	movs	r2, #0
   b7bd6:	6840      	ldr	r0, [r0, #4]
   b7bd8:	4611      	mov	r1, r2
   b7bda:	f7fd b9ef 	b.w	b4fbc <network_get_listen_timeout>

000b7bde <_ZN5spark9WiFiClass16setListenTimeoutEt>:
        network_set_listen_timeout(*this, timeout, NULL);
   b7bde:	6840      	ldr	r0, [r0, #4]
   b7be0:	2200      	movs	r2, #0
   b7be2:	f7fd b9e3 	b.w	b4fac <network_set_listen_timeout>

000b7be6 <_ZN5spark9WiFiClass6listenEb>:
        network_listen(*this, begin ? 0 : 1, NULL);
   b7be6:	6840      	ldr	r0, [r0, #4]
   b7be8:	2200      	movs	r2, #0
   b7bea:	f081 0101 	eor.w	r1, r1, #1
   b7bee:	f7fd b9cd 	b.w	b4f8c <network_listen>

000b7bf2 <_ZN5spark9WiFiClass3offEv>:
        network_off(*this, 0, 0, NULL);
   b7bf2:	2300      	movs	r3, #0
   b7bf4:	6840      	ldr	r0, [r0, #4]
   b7bf6:	461a      	mov	r2, r3
   b7bf8:	4619      	mov	r1, r3
   b7bfa:	f7fd b9bf 	b.w	b4f7c <network_off>

000b7bfe <_ZN5spark9WiFiClass2onEv>:
        network_on(*this, 0, 0, NULL);
   b7bfe:	2300      	movs	r3, #0
   b7c00:	6840      	ldr	r0, [r0, #4]
   b7c02:	461a      	mov	r2, r3
   b7c04:	4619      	mov	r1, r3
   b7c06:	f7fd b9b1 	b.w	b4f6c <network_on>

000b7c0a <_ZN5spark9WiFiClass10connectingEv>:
        return network_connecting(*this, 0, NULL);
   b7c0a:	2200      	movs	r2, #0
   b7c0c:	6840      	ldr	r0, [r0, #4]
   b7c0e:	4611      	mov	r1, r2
   b7c10:	f7fd b994 	b.w	b4f3c <network_connecting>

000b7c14 <_ZN5spark9WiFiClass10disconnectEv>:
        network_disconnect(*this, NETWORK_DISCONNECT_REASON_USER, NULL);
   b7c14:	6840      	ldr	r0, [r0, #4]
   b7c16:	2200      	movs	r2, #0
   b7c18:	2102      	movs	r1, #2
   b7c1a:	f7fd b997 	b.w	b4f4c <network_disconnect>

000b7c1e <_ZN5spark9WiFiClass7connectEj>:
        network_connect(*this, flags, 0, NULL);
   b7c1e:	2300      	movs	r3, #0
   b7c20:	6840      	ldr	r0, [r0, #4]
   b7c22:	461a      	mov	r2, r3
   b7c24:	f7fd b982 	b.w	b4f2c <network_connect>

000b7c28 <_GLOBAL__sub_I__ZN10WiFiSignalC2ERK21wlan_connected_info_t>:
   b7c28:	4b02      	ldr	r3, [pc, #8]	; (b7c34 <_GLOBAL__sub_I__ZN10WiFiSignalC2ERK21wlan_connected_info_t+0xc>)
   b7c2a:	2204      	movs	r2, #4
   b7c2c:	605a      	str	r2, [r3, #4]
            NetworkClass(NETWORK_INTERFACE_WIFI_STA) {
   b7c2e:	4a02      	ldr	r2, [pc, #8]	; (b7c38 <_GLOBAL__sub_I__ZN10WiFiSignalC2ERK21wlan_connected_info_t+0x10>)
   b7c30:	601a      	str	r2, [r3, #0]
the same way.
*****************************************************************************/

    WiFiClass WiFi;
    // NetworkClass& Network = WiFi;
}
   b7c32:	4770      	bx	lr
   b7c34:	2003e718 	.word	0x2003e718
   b7c38:	000b8da0 	.word	0x000b8da0

000b7c3c <_ZN5spark12NetworkClass7connectEj>:
        return Network;
    }
}

void NetworkClass::connect(unsigned flags) {
    network_connect(*this, flags, 0, nullptr);
   b7c3c:	2300      	movs	r3, #0
   b7c3e:	6840      	ldr	r0, [r0, #4]
   b7c40:	461a      	mov	r2, r3
   b7c42:	f7fd b973 	b.w	b4f2c <network_connect>

000b7c46 <_ZN5spark12NetworkClass10disconnectEv>:
}

void NetworkClass::disconnect() {
    network_disconnect(*this, NETWORK_DISCONNECT_REASON_USER, nullptr);
   b7c46:	6840      	ldr	r0, [r0, #4]
   b7c48:	2200      	movs	r2, #0
   b7c4a:	2102      	movs	r1, #2
   b7c4c:	f7fd b97e 	b.w	b4f4c <network_disconnect>

000b7c50 <_ZN5spark12NetworkClass10connectingEv>:
}

bool NetworkClass::connecting() {
    return network_connecting(*this, 0, nullptr);
   b7c50:	2200      	movs	r2, #0
   b7c52:	6840      	ldr	r0, [r0, #4]
   b7c54:	4611      	mov	r1, r2
   b7c56:	f7fd b971 	b.w	b4f3c <network_connecting>

000b7c5a <_ZN5spark12NetworkClass5readyEv>:
}

bool NetworkClass::ready() {
    return network_ready(*this, 0, nullptr);
   b7c5a:	2200      	movs	r2, #0
   b7c5c:	6840      	ldr	r0, [r0, #4]
   b7c5e:	4611      	mov	r1, r2
   b7c60:	f7fd b97c 	b.w	b4f5c <network_ready>

000b7c64 <_ZN5spark12NetworkClass2onEv>:
}

void NetworkClass::on() {
    network_on(*this, 0, 0, nullptr);
   b7c64:	2300      	movs	r3, #0
   b7c66:	6840      	ldr	r0, [r0, #4]
   b7c68:	461a      	mov	r2, r3
   b7c6a:	4619      	mov	r1, r3
   b7c6c:	f7fd b97e 	b.w	b4f6c <network_on>

000b7c70 <_ZN5spark12NetworkClass3offEv>:
}

void NetworkClass::off() {
    network_off(*this, 0, 0, nullptr);
   b7c70:	2300      	movs	r3, #0
   b7c72:	6840      	ldr	r0, [r0, #4]
   b7c74:	461a      	mov	r2, r3
   b7c76:	4619      	mov	r1, r3
   b7c78:	f7fd b980 	b.w	b4f7c <network_off>

000b7c7c <_ZN5spark12NetworkClass4isOnEv>:
}

bool NetworkClass::isOn() {
    return network_is_on(*this, nullptr);
   b7c7c:	6840      	ldr	r0, [r0, #4]
   b7c7e:	2100      	movs	r1, #0
   b7c80:	f7fd b9a4 	b.w	b4fcc <network_is_on>

000b7c84 <_ZN5spark12NetworkClass5isOffEv>:
}

bool NetworkClass::isOff() {
    return network_is_off(*this, nullptr);
   b7c84:	6840      	ldr	r0, [r0, #4]
   b7c86:	2100      	movs	r1, #0
   b7c88:	f7fd b9a8 	b.w	b4fdc <network_is_off>

000b7c8c <_ZN5spark12NetworkClass6listenEb>:
}

void NetworkClass::listen(bool begin) {
    network_listen(*this, begin ? 0 : 1, nullptr);
   b7c8c:	6840      	ldr	r0, [r0, #4]
   b7c8e:	2200      	movs	r2, #0
   b7c90:	f081 0101 	eor.w	r1, r1, #1
   b7c94:	f7fd b97a 	b.w	b4f8c <network_listen>

000b7c98 <_ZN5spark12NetworkClass16setListenTimeoutEt>:
}

void NetworkClass::setListenTimeout(uint16_t timeout) {
    network_set_listen_timeout(*this, timeout, nullptr);
   b7c98:	6840      	ldr	r0, [r0, #4]
   b7c9a:	2200      	movs	r2, #0
   b7c9c:	f7fd b986 	b.w	b4fac <network_set_listen_timeout>

000b7ca0 <_ZN5spark12NetworkClass16getListenTimeoutEv>:
}

uint16_t NetworkClass::getListenTimeout() {
    return network_get_listen_timeout(*this, 0, nullptr);
   b7ca0:	2200      	movs	r2, #0
   b7ca2:	6840      	ldr	r0, [r0, #4]
   b7ca4:	4611      	mov	r1, r2
   b7ca6:	f7fd b989 	b.w	b4fbc <network_get_listen_timeout>

000b7caa <_ZN5spark12NetworkClass9listeningEv>:
}

bool NetworkClass::listening() {
    return network_listening(*this, 0, nullptr);
   b7caa:	2200      	movs	r2, #0
   b7cac:	6840      	ldr	r0, [r0, #4]
   b7cae:	4611      	mov	r1, r2
   b7cb0:	f7fd b974 	b.w	b4f9c <network_listening>

000b7cb4 <_ZN5spark12NetworkClass7resolveEPKc>:
}

IPAddress NetworkClass::resolve(const char* name) {
   b7cb4:	e92d 43f0 	stmdb	sp!, {r4, r5, r6, r7, r8, r9, lr}
   b7cb8:	b095      	sub	sp, #84	; 0x54
   b7cba:	4614      	mov	r4, r2
   b7cbc:	460d      	mov	r5, r1
   b7cbe:	4607      	mov	r7, r0
    IPAddress addr;
   b7cc0:	f7ff fb30 	bl	b7324 <_ZN9IPAddressC1Ev>
#if HAL_USE_INET_HAL_POSIX
    struct addrinfo *ai = nullptr;
   b7cc4:	2100      	movs	r1, #0
    struct addrinfo hints = {};
   b7cc6:	221c      	movs	r2, #28
   b7cc8:	a80d      	add	r0, sp, #52	; 0x34
    struct addrinfo *ai = nullptr;
   b7cca:	9100      	str	r1, [sp, #0]
    struct addrinfo hints = {};
   b7ccc:	f000 fc76 	bl	b85bc <memset>
    hints.ai_flags = AI_ADDRCONFIG;
   b7cd0:	2340      	movs	r3, #64	; 0x40
   b7cd2:	930c      	str	r3, [sp, #48]	; 0x30
    hints.ai_family = AF_UNSPEC;
    const int r = getaddrinfo(name, nullptr, &hints, &ai);
   b7cd4:	4620      	mov	r0, r4
   b7cd6:	466b      	mov	r3, sp
   b7cd8:	aa0c      	add	r2, sp, #48	; 0x30
   b7cda:	2100      	movs	r1, #0
   b7cdc:	f7fc fece 	bl	b4a7c <netdb_getaddrinfo>
    if (!r) {
   b7ce0:	4604      	mov	r4, r0
   b7ce2:	2800      	cmp	r0, #0
   b7ce4:	d14b      	bne.n	b7d7e <_ZN5spark12NetworkClass7resolveEPKc+0xca>
        bool ok = false;
        // This is not really needed if AI_ADDRCONFIG is properly supported
        bool ipv4 = network_ready(*this, NETWORK_READY_TYPE_IPV4, nullptr);
   b7ce6:	4602      	mov	r2, r0
   b7ce8:	2101      	movs	r1, #1
   b7cea:	6868      	ldr	r0, [r5, #4]
   b7cec:	f7fd f936 	bl	b4f5c <network_ready>
        bool ipv6 = network_ready(*this, NETWORK_READY_TYPE_IPV6, nullptr);
   b7cf0:	2102      	movs	r1, #2
        bool ipv4 = network_ready(*this, NETWORK_READY_TYPE_IPV4, nullptr);
   b7cf2:	4680      	mov	r8, r0
        bool ipv6 = network_ready(*this, NETWORK_READY_TYPE_IPV6, nullptr);
   b7cf4:	4622      	mov	r2, r4
   b7cf6:	6868      	ldr	r0, [r5, #4]
   b7cf8:	f7fd f930 	bl	b4f5c <network_ready>
        for (auto cur = ai; cur != nullptr && !ok; cur = cur->ai_next) {
   b7cfc:	9e00      	ldr	r6, [sp, #0]
        bool ipv6 = network_ready(*this, NETWORK_READY_TYPE_IPV6, nullptr);
   b7cfe:	4681      	mov	r9, r0
        bool ok = false;
   b7d00:	4621      	mov	r1, r4
        for (auto cur = ai; cur != nullptr && !ok; cur = cur->ai_next) {
   b7d02:	2e00      	cmp	r6, #0
   b7d04:	d03b      	beq.n	b7d7e <_ZN5spark12NetworkClass7resolveEPKc+0xca>
   b7d06:	2900      	cmp	r1, #0
   b7d08:	d139      	bne.n	b7d7e <_ZN5spark12NetworkClass7resolveEPKc+0xca>
            // NOTE: using only the first entry that matches the current state of IPv4/IPv6 connectivity
            switch (cur->ai_family) {
   b7d0a:	6873      	ldr	r3, [r6, #4]
   b7d0c:	2b02      	cmp	r3, #2
   b7d0e:	d003      	beq.n	b7d18 <_ZN5spark12NetworkClass7resolveEPKc+0x64>
   b7d10:	2b0a      	cmp	r3, #10
   b7d12:	d011      	beq.n	b7d38 <_ZN5spark12NetworkClass7resolveEPKc+0x84>
        for (auto cur = ai; cur != nullptr && !ok; cur = cur->ai_next) {
   b7d14:	69f6      	ldr	r6, [r6, #28]
   b7d16:	e7f4      	b.n	b7d02 <_ZN5spark12NetworkClass7resolveEPKc+0x4e>
                case AF_INET: {
                    if (!ipv4) {
   b7d18:	f1b8 0f00 	cmp.w	r8, #0
   b7d1c:	d0fa      	beq.n	b7d14 <_ZN5spark12NetworkClass7resolveEPKc+0x60>
                        continue;
                    }
                    // NOTE: HAL_IPAddress is little-endian
                    auto in = (struct sockaddr_in*)cur->ai_addr;
                    addr = (const uint8_t*)(&in->sin_addr.s_addr);
   b7d1e:	6971      	ldr	r1, [r6, #20]
        return *this = IPAddress(address);
   b7d20:	a806      	add	r0, sp, #24
   b7d22:	3104      	adds	r1, #4
class IPAddress : public Printable {
   b7d24:	ad07      	add	r5, sp, #28
        return *this = IPAddress(address);
   b7d26:	f7ff fb41 	bl	b73ac <_ZN9IPAddressC1EPKh>
class IPAddress : public Printable {
   b7d2a:	cd0f      	ldmia	r5!, {r0, r1, r2, r3}
   b7d2c:	1d3c      	adds	r4, r7, #4
   b7d2e:	c40f      	stmia	r4!, {r0, r1, r2, r3}
   b7d30:	682b      	ldr	r3, [r5, #0]
   b7d32:	7023      	strb	r3, [r4, #0]
                    ok = true;
   b7d34:	4641      	mov	r1, r8
        return *this = IPAddress(address);
   b7d36:	e7ed      	b.n	b7d14 <_ZN5spark12NetworkClass7resolveEPKc+0x60>
                    break;
                }
                case AF_INET6: {
                    if (!ipv6) {
   b7d38:	f1b9 0f00 	cmp.w	r9, #0
   b7d3c:	d0ea      	beq.n	b7d14 <_ZN5spark12NetworkClass7resolveEPKc+0x60>
                        continue;
                    }
                    auto in6 = (struct sockaddr_in6*)cur->ai_addr;
   b7d3e:	6974      	ldr	r4, [r6, #20]
                    HAL_IPAddress a = {};
   b7d40:	2210      	movs	r2, #16
   b7d42:	a801      	add	r0, sp, #4
   b7d44:	f000 fc3a 	bl	b85bc <memset>
                    a.v = 6;
   b7d48:	2306      	movs	r3, #6
   b7d4a:	f88d 3014 	strb.w	r3, [sp, #20]
                    memcpy(a.ipv6, in6->sin6_addr.s6_addr, sizeof(a.ipv6));
   b7d4e:	ad01      	add	r5, sp, #4
   b7d50:	f104 0308 	add.w	r3, r4, #8
   b7d54:	3418      	adds	r4, #24
   b7d56:	6818      	ldr	r0, [r3, #0]
   b7d58:	6859      	ldr	r1, [r3, #4]
   b7d5a:	462a      	mov	r2, r5
   b7d5c:	c203      	stmia	r2!, {r0, r1}
   b7d5e:	3308      	adds	r3, #8
   b7d60:	42a3      	cmp	r3, r4
   b7d62:	4615      	mov	r5, r2
   b7d64:	d1f7      	bne.n	b7d56 <_ZN5spark12NetworkClass7resolveEPKc+0xa2>
                    addr = IPAddress(a);
   b7d66:	a901      	add	r1, sp, #4
   b7d68:	a806      	add	r0, sp, #24
class IPAddress : public Printable {
   b7d6a:	ad07      	add	r5, sp, #28
   b7d6c:	f7ff fae8 	bl	b7340 <_ZN9IPAddressC1ERK16_HAL_IPAddress_t>
   b7d70:	cd0f      	ldmia	r5!, {r0, r1, r2, r3}
   b7d72:	1d3c      	adds	r4, r7, #4
   b7d74:	c40f      	stmia	r4!, {r0, r1, r2, r3}
   b7d76:	682b      	ldr	r3, [r5, #0]
   b7d78:	7023      	strb	r3, [r4, #0]
                    ok = true;
   b7d7a:	4649      	mov	r1, r9
   b7d7c:	e7ca      	b.n	b7d14 <_ZN5spark12NetworkClass7resolveEPKc+0x60>
                    break;
                }
            }
        }
    }
    freeaddrinfo(ai);
   b7d7e:	9800      	ldr	r0, [sp, #0]
   b7d80:	f7fc fe74 	bl	b4a6c <netdb_freeaddrinfo>
    return Cellular.resolve(name);
#endif // Wiring_Cellular

#endif // HAL_USE_INET_HAL_POSIX
    return addr;
}
   b7d84:	4638      	mov	r0, r7
   b7d86:	b015      	add	sp, #84	; 0x54
   b7d88:	e8bd 83f0 	ldmia.w	sp!, {r4, r5, r6, r7, r8, r9, pc}

000b7d8c <_GLOBAL__sub_I__ZN5spark7NetworkE>:
   b7d8c:	4b02      	ldr	r3, [pc, #8]	; (b7d98 <_GLOBAL__sub_I__ZN5spark7NetworkE+0xc>)
   b7d8e:	4a03      	ldr	r2, [pc, #12]	; (b7d9c <_GLOBAL__sub_I__ZN5spark7NetworkE+0x10>)
   b7d90:	601a      	str	r2, [r3, #0]
   b7d92:	2200      	movs	r2, #0
   b7d94:	605a      	str	r2, [r3, #4]
    network_free_configuration(c, count, nullptr);
    return res;
}
#endif // HAL_USE_SOCKET_HAL_POSIX

} // spark
   b7d96:	4770      	bx	lr
   b7d98:	2003e720 	.word	0x2003e720
   b7d9c:	000b8ddc 	.word	0x000b8ddc

000b7da0 <_ZN12_GLOBAL__N_19skipTokenEPK9jsmntok_t>:

namespace {

// Skips token and all its children tokens if any
const jsmntok_t* skipToken(const jsmntok_t *t) {
    size_t n = 1;
   b7da0:	f100 0310 	add.w	r3, r0, #16
   b7da4:	2201      	movs	r2, #1
    do {
        if (t->type == JSMN_OBJECT) {
   b7da6:	f813 1c10 	ldrb.w	r1, [r3, #-16]
   b7daa:	2901      	cmp	r1, #1
   b7dac:	4618      	mov	r0, r3
   b7dae:	d108      	bne.n	b7dc2 <_ZN12_GLOBAL__N_19skipTokenEPK9jsmntok_t+0x22>
            n += t->size * 2; // Number of name and value tokens
   b7db0:	f853 1c04 	ldr.w	r1, [r3, #-4]
   b7db4:	eb02 0241 	add.w	r2, r2, r1, lsl #1
        } else if (t->type == JSMN_ARRAY) {
            n += t->size; // Number of value tokens
        }
        ++t;
        --n;
    } while (n);
   b7db8:	3a01      	subs	r2, #1
   b7dba:	f103 0310 	add.w	r3, r3, #16
   b7dbe:	d1f2      	bne.n	b7da6 <_ZN12_GLOBAL__N_19skipTokenEPK9jsmntok_t+0x6>
    return t;
}
   b7dc0:	4770      	bx	lr
        } else if (t->type == JSMN_ARRAY) {
   b7dc2:	2902      	cmp	r1, #2
            n += t->size; // Number of value tokens
   b7dc4:	bf04      	itt	eq
   b7dc6:	f853 1c04 	ldreq.w	r1, [r3, #-4]
   b7dca:	1852      	addeq	r2, r2, r1
   b7dcc:	e7f4      	b.n	b7db8 <_ZN12_GLOBAL__N_19skipTokenEPK9jsmntok_t+0x18>

000b7dce <_ZN5spark10JSONWriter6printfEPKcz>:
    write("null", 4);
    state_ = NEXT;
    return *this;
}

void spark::JSONWriter::printf(const char *fmt, ...) {
   b7dce:	b40e      	push	{r1, r2, r3}
   b7dd0:	b5f0      	push	{r4, r5, r6, r7, lr}
   b7dd2:	b088      	sub	sp, #32
   b7dd4:	af00      	add	r7, sp, #0
   b7dd6:	f107 0534 	add.w	r5, r7, #52	; 0x34
    char buf[16];
    va_list args;
    va_start(args, fmt);
    int n = vsnprintf(buf, sizeof(buf), fmt, args);
   b7dda:	2110      	movs	r1, #16
void spark::JSONWriter::printf(const char *fmt, ...) {
   b7ddc:	f855 2b04 	ldr.w	r2, [r5], #4
    int n = vsnprintf(buf, sizeof(buf), fmt, args);
   b7de0:	607a      	str	r2, [r7, #4]
void spark::JSONWriter::printf(const char *fmt, ...) {
   b7de2:	4604      	mov	r4, r0
    int n = vsnprintf(buf, sizeof(buf), fmt, args);
   b7de4:	462b      	mov	r3, r5
   b7de6:	1878      	adds	r0, r7, r1
    va_start(args, fmt);
   b7de8:	60fd      	str	r5, [r7, #12]
    int n = vsnprintf(buf, sizeof(buf), fmt, args);
   b7dea:	f7fd f91f 	bl	b502c <vsnprintf>
    va_end(args);
    if ((size_t)n >= sizeof(buf)) {
   b7dee:	280f      	cmp	r0, #15
   b7df0:	687a      	ldr	r2, [r7, #4]
   b7df2:	d91a      	bls.n	b7e2a <_ZN5spark10JSONWriter6printfEPKcz+0x5c>
        char buf[n + 1]; // Use larger buffer
   b7df4:	f100 0308 	add.w	r3, r0, #8
   b7df8:	f023 0307 	bic.w	r3, r3, #7
        va_start(args, fmt);
        n = vsnprintf(buf, sizeof(buf), fmt, args);
        va_end(args);
        if (n > 0) {
            write(buf, n);
        }
   b7dfc:	466e      	mov	r6, sp
        char buf[n + 1]; // Use larger buffer
   b7dfe:	ebad 0d03 	sub.w	sp, sp, r3
        n = vsnprintf(buf, sizeof(buf), fmt, args);
   b7e02:	1c41      	adds	r1, r0, #1
   b7e04:	462b      	mov	r3, r5
   b7e06:	4668      	mov	r0, sp
        va_start(args, fmt);
   b7e08:	60fd      	str	r5, [r7, #12]
        n = vsnprintf(buf, sizeof(buf), fmt, args);
   b7e0a:	f7fd f90f 	bl	b502c <vsnprintf>
        if (n > 0) {
   b7e0e:	1e02      	subs	r2, r0, #0
   b7e10:	dd04      	ble.n	b7e1c <_ZN5spark10JSONWriter6printfEPKcz+0x4e>
            write(buf, n);
   b7e12:	6823      	ldr	r3, [r4, #0]
   b7e14:	4669      	mov	r1, sp
   b7e16:	689b      	ldr	r3, [r3, #8]
   b7e18:	4620      	mov	r0, r4
   b7e1a:	4798      	blx	r3
   b7e1c:	46b5      	mov	sp, r6
    } else if (n > 0) {
        write(buf, n);
    }
}
   b7e1e:	3720      	adds	r7, #32
   b7e20:	46bd      	mov	sp, r7
   b7e22:	e8bd 40f0 	ldmia.w	sp!, {r4, r5, r6, r7, lr}
   b7e26:	b003      	add	sp, #12
   b7e28:	4770      	bx	lr
    } else if (n > 0) {
   b7e2a:	2800      	cmp	r0, #0
   b7e2c:	d0f7      	beq.n	b7e1e <_ZN5spark10JSONWriter6printfEPKcz+0x50>
        write(buf, n);
   b7e2e:	6823      	ldr	r3, [r4, #0]
   b7e30:	4602      	mov	r2, r0
   b7e32:	689b      	ldr	r3, [r3, #8]
   b7e34:	f107 0110 	add.w	r1, r7, #16
   b7e38:	4620      	mov	r0, r4
   b7e3a:	4798      	blx	r3
}
   b7e3c:	e7ef      	b.n	b7e1e <_ZN5spark10JSONWriter6printfEPKcz+0x50>

000b7e3e <_ZNSt12__shared_ptrIN5spark6detail8JSONDataELN9__gnu_cxx12_Lock_policyE0EEaSERKS5_.isra.0>:
      __shared_ptr& operator=(const __shared_ptr&) noexcept = default;
   b7e3e:	b538      	push	{r3, r4, r5, lr}
   b7e40:	680b      	ldr	r3, [r1, #0]
   b7e42:	6003      	str	r3, [r0, #0]
   b7e44:	684d      	ldr	r5, [r1, #4]
	if (__tmp != _M_pi)
   b7e46:	6843      	ldr	r3, [r0, #4]
   b7e48:	429d      	cmp	r5, r3
      __shared_ptr& operator=(const __shared_ptr&) noexcept = default;
   b7e4a:	4604      	mov	r4, r0
	if (__tmp != _M_pi)
   b7e4c:	d008      	beq.n	b7e60 <_ZNSt12__shared_ptrIN5spark6detail8JSONDataELN9__gnu_cxx12_Lock_policyE0EEaSERKS5_.isra.0+0x22>
	    if (__tmp != 0)
   b7e4e:	b115      	cbz	r5, b7e56 <_ZNSt12__shared_ptrIN5spark6detail8JSONDataELN9__gnu_cxx12_Lock_policyE0EEaSERKS5_.isra.0+0x18>
    { ++_M_use_count; }
   b7e50:	686b      	ldr	r3, [r5, #4]
   b7e52:	3301      	adds	r3, #1
   b7e54:	606b      	str	r3, [r5, #4]
	    if (_M_pi != 0)
   b7e56:	6860      	ldr	r0, [r4, #4]
   b7e58:	b108      	cbz	r0, b7e5e <_ZNSt12__shared_ptrIN5spark6detail8JSONDataELN9__gnu_cxx12_Lock_policyE0EEaSERKS5_.isra.0+0x20>
	      _M_pi->_M_release();
   b7e5a:	f7fd fb83 	bl	b5564 <_ZNSt16_Sp_counted_baseILN9__gnu_cxx12_Lock_policyE0EE10_M_releaseEv>
	    _M_pi = __tmp;
   b7e5e:	6065      	str	r5, [r4, #4]
      __shared_ptr& operator=(const __shared_ptr&) noexcept = default;
   b7e60:	bd38      	pop	{r3, r4, r5, pc}

000b7e62 <_ZN5spark10JSONWriter5writeEc>:
inline void spark::JSONWriter::write(char c) {
   b7e62:	b507      	push	{r0, r1, r2, lr}
    write(&c, 1);
   b7e64:	6803      	ldr	r3, [r0, #0]
inline void spark::JSONWriter::write(char c) {
   b7e66:	f88d 1007 	strb.w	r1, [sp, #7]
    write(&c, 1);
   b7e6a:	689b      	ldr	r3, [r3, #8]
   b7e6c:	2201      	movs	r2, #1
   b7e6e:	f10d 0107 	add.w	r1, sp, #7
   b7e72:	4798      	blx	r3
}
   b7e74:	b003      	add	sp, #12
   b7e76:	f85d fb04 	ldr.w	pc, [sp], #4

000b7e7a <_ZN5spark9JSONValueC1EPK9jsmntok_tSt10shared_ptrINS_6detail8JSONDataEE>:
spark::JSONValue::JSONValue(const jsmntok_t *t, detail::JSONDataPtr d) :
   b7e7a:	460b      	mov	r3, r1
   b7e7c:	4611      	mov	r1, r2
      : _M_ptr(0), _M_refcount()
   b7e7e:	2200      	movs	r2, #0
   b7e80:	b510      	push	{r4, lr}
      constexpr __shared_count() noexcept : _M_pi(0)
   b7e82:	e9c0 2200 	strd	r2, r2, [r0]
   b7e86:	4604      	mov	r4, r0
        t_ = t;
   b7e88:	6083      	str	r3, [r0, #8]
    if (t) {
   b7e8a:	b90b      	cbnz	r3, b7e90 <_ZN5spark9JSONValueC1EPK9jsmntok_tSt10shared_ptrINS_6detail8JSONDataEE+0x16>
}
   b7e8c:	4620      	mov	r0, r4
   b7e8e:	bd10      	pop	{r4, pc}
       *  @brief  Construct an empty %shared_ptr.
       *  @post   use_count() == 0 && get() == nullptr
       */
      constexpr shared_ptr(nullptr_t) noexcept : shared_ptr() { }

      shared_ptr& operator=(const shared_ptr&) noexcept = default;
   b7e90:	f7ff ffd5 	bl	b7e3e <_ZNSt12__shared_ptrIN5spark6detail8JSONDataELN9__gnu_cxx12_Lock_policyE0EEaSERKS5_.isra.0>
   b7e94:	e7fa      	b.n	b7e8c <_ZN5spark9JSONValueC1EPK9jsmntok_tSt10shared_ptrINS_6detail8JSONDataEE+0x12>

000b7e96 <_ZNK5spark9JSONValue4typeEv>:
    if (!t_) {
   b7e96:	6883      	ldr	r3, [r0, #8]
   b7e98:	b1eb      	cbz	r3, b7ed6 <_ZNK5spark9JSONValue4typeEv+0x40>
    switch (t_->type) {
   b7e9a:	781a      	ldrb	r2, [r3, #0]
   b7e9c:	2a03      	cmp	r2, #3
   b7e9e:	d81a      	bhi.n	b7ed6 <_ZNK5spark9JSONValue4typeEv+0x40>
   b7ea0:	e8df f002 	tbb	[pc, r2]
   b7ea4:	1b021704 	.word	0x1b021704
   b7ea8:	2005      	movs	r0, #5
   b7eaa:	4770      	bx	lr
        const char c = d_->json[t_->start];
   b7eac:	6802      	ldr	r2, [r0, #0]
   b7eae:	685b      	ldr	r3, [r3, #4]
   b7eb0:	6852      	ldr	r2, [r2, #4]
   b7eb2:	5cd0      	ldrb	r0, [r2, r3]
        if (c == '-' || (c >= '0' && c <= '9')) {
   b7eb4:	282d      	cmp	r0, #45	; 0x2d
   b7eb6:	d012      	beq.n	b7ede <_ZNK5spark9JSONValue4typeEv+0x48>
   b7eb8:	f1a0 0330 	sub.w	r3, r0, #48	; 0x30
   b7ebc:	2b09      	cmp	r3, #9
   b7ebe:	d90e      	bls.n	b7ede <_ZNK5spark9JSONValue4typeEv+0x48>
        } else if (c == 't' || c == 'f') { // Literal names are always in lower case
   b7ec0:	2874      	cmp	r0, #116	; 0x74
   b7ec2:	d00e      	beq.n	b7ee2 <_ZNK5spark9JSONValue4typeEv+0x4c>
   b7ec4:	2866      	cmp	r0, #102	; 0x66
   b7ec6:	d00c      	beq.n	b7ee2 <_ZNK5spark9JSONValue4typeEv+0x4c>
        return JSON_TYPE_INVALID;
   b7ec8:	f1a0 036e 	sub.w	r3, r0, #110	; 0x6e
   b7ecc:	4258      	negs	r0, r3
   b7ece:	4158      	adcs	r0, r3
   b7ed0:	4770      	bx	lr
        return JSON_TYPE_OBJECT;
   b7ed2:	2006      	movs	r0, #6
   b7ed4:	4770      	bx	lr
        return JSON_TYPE_INVALID;
   b7ed6:	2000      	movs	r0, #0
   b7ed8:	4770      	bx	lr
        return JSON_TYPE_STRING;
   b7eda:	2004      	movs	r0, #4
   b7edc:	4770      	bx	lr
            return JSON_TYPE_NUMBER;
   b7ede:	2003      	movs	r0, #3
   b7ee0:	4770      	bx	lr
            return JSON_TYPE_BOOL;
   b7ee2:	2002      	movs	r0, #2
}
   b7ee4:	4770      	bx	lr

000b7ee6 <_ZNK5spark9JSONValue5toIntEv>:
int spark::JSONValue::toInt() const {
   b7ee6:	b510      	push	{r4, lr}
   b7ee8:	4604      	mov	r4, r0
    switch (type()) {
   b7eea:	f7ff ffd4 	bl	b7e96 <_ZNK5spark9JSONValue4typeEv>
   b7eee:	2802      	cmp	r0, #2
   b7ef0:	d00e      	beq.n	b7f10 <_ZNK5spark9JSONValue5toIntEv+0x2a>
   b7ef2:	1ec3      	subs	r3, r0, #3
   b7ef4:	b2db      	uxtb	r3, r3
   b7ef6:	2b01      	cmp	r3, #1
   b7ef8:	d814      	bhi.n	b7f24 <_ZNK5spark9JSONValue5toIntEv+0x3e>
        const char* const s = d_->json + t_->start;
   b7efa:	6822      	ldr	r2, [r4, #0]
   b7efc:	68a3      	ldr	r3, [r4, #8]
   b7efe:	6850      	ldr	r0, [r2, #4]
   b7f00:	685b      	ldr	r3, [r3, #4]
}
   b7f02:	e8bd 4010 	ldmia.w	sp!, {r4, lr}
        return strtol(s, nullptr, 10);
   b7f06:	220a      	movs	r2, #10
   b7f08:	2100      	movs	r1, #0
   b7f0a:	4418      	add	r0, r3
   b7f0c:	f000 bc62 	b.w	b87d4 <strtol>
        const char* const s = d_->json + t_->start;
   b7f10:	6822      	ldr	r2, [r4, #0]
   b7f12:	68a3      	ldr	r3, [r4, #8]
        return *s == 't';
   b7f14:	6852      	ldr	r2, [r2, #4]
   b7f16:	685b      	ldr	r3, [r3, #4]
   b7f18:	5cd0      	ldrb	r0, [r2, r3]
   b7f1a:	f1a0 0374 	sub.w	r3, r0, #116	; 0x74
   b7f1e:	4258      	negs	r0, r3
   b7f20:	4158      	adcs	r0, r3
}
   b7f22:	bd10      	pop	{r4, pc}
    switch (type()) {
   b7f24:	2000      	movs	r0, #0
   b7f26:	e7fc      	b.n	b7f22 <_ZNK5spark9JSONValue5toIntEv+0x3c>

000b7f28 <_ZN5spark10JSONStringC1EPK9jsmntok_tSt10shared_ptrINS_6detail8JSONDataEE>:
spark::JSONString::JSONString(const jsmntok_t *t, detail::JSONDataPtr d) :
   b7f28:	b538      	push	{r3, r4, r5, lr}
      : _M_ptr(0), _M_refcount()
   b7f2a:	2300      	movs	r3, #0
      constexpr __shared_count() noexcept : _M_pi(0)
   b7f2c:	e9c0 3300 	strd	r3, r3, [r0]
   b7f30:	4604      	mov	r4, r0
        n_(0) {
   b7f32:	480e      	ldr	r0, [pc, #56]	; (b7f6c <_ZN5spark10JSONStringC1EPK9jsmntok_tSt10shared_ptrINS_6detail8JSONDataEE+0x44>)
   b7f34:	e9c4 0302 	strd	r0, r3, [r4, #8]
    if (t && (t->type == JSMN_STRING || t->type == JSMN_PRIMITIVE)) {
   b7f38:	b1a9      	cbz	r1, b7f66 <_ZN5spark10JSONStringC1EPK9jsmntok_tSt10shared_ptrINS_6detail8JSONDataEE+0x3e>
   b7f3a:	780b      	ldrb	r3, [r1, #0]
   b7f3c:	2b03      	cmp	r3, #3
   b7f3e:	d006      	beq.n	b7f4e <_ZN5spark10JSONStringC1EPK9jsmntok_tSt10shared_ptrINS_6detail8JSONDataEE+0x26>
   b7f40:	b98b      	cbnz	r3, b7f66 <_ZN5spark10JSONStringC1EPK9jsmntok_tSt10shared_ptrINS_6detail8JSONDataEE+0x3e>
        if (t->type != JSMN_PRIMITIVE || d->json[t->start] != 'n') { // Nulls are treated as empty strings
   b7f42:	6813      	ldr	r3, [r2, #0]
   b7f44:	6858      	ldr	r0, [r3, #4]
   b7f46:	684b      	ldr	r3, [r1, #4]
   b7f48:	5cc3      	ldrb	r3, [r0, r3]
   b7f4a:	2b6e      	cmp	r3, #110	; 0x6e
   b7f4c:	d007      	beq.n	b7f5e <_ZN5spark10JSONStringC1EPK9jsmntok_tSt10shared_ptrINS_6detail8JSONDataEE+0x36>
            s_ = d->json + t->start;
   b7f4e:	6813      	ldr	r3, [r2, #0]
   b7f50:	684d      	ldr	r5, [r1, #4]
   b7f52:	6858      	ldr	r0, [r3, #4]
            n_ = t->end - t->start;
   b7f54:	688b      	ldr	r3, [r1, #8]
            s_ = d->json + t->start;
   b7f56:	4428      	add	r0, r5
            n_ = t->end - t->start;
   b7f58:	1b5b      	subs	r3, r3, r5
            s_ = d->json + t->start;
   b7f5a:	60a0      	str	r0, [r4, #8]
            n_ = t->end - t->start;
   b7f5c:	60e3      	str	r3, [r4, #12]
   b7f5e:	4611      	mov	r1, r2
   b7f60:	4620      	mov	r0, r4
   b7f62:	f7ff ff6c 	bl	b7e3e <_ZNSt12__shared_ptrIN5spark6detail8JSONDataELN9__gnu_cxx12_Lock_policyE0EEaSERKS5_.isra.0>
}
   b7f66:	4620      	mov	r0, r4
   b7f68:	bd38      	pop	{r3, r4, r5, pc}
   b7f6a:	bf00      	nop
   b7f6c:	000b8bce 	.word	0x000b8bce

000b7f70 <_ZN5spark18JSONObjectIteratorC1EPK9jsmntok_tSt10shared_ptrINS_6detail8JSONDataEE>:
spark::JSONObjectIterator::JSONObjectIterator(const jsmntok_t *t, detail::JSONDataPtr d) :
   b7f70:	b538      	push	{r3, r4, r5, lr}
      : _M_ptr(0), _M_refcount()
   b7f72:	2500      	movs	r5, #0
   b7f74:	460b      	mov	r3, r1
      constexpr __shared_count() noexcept : _M_pi(0)
   b7f76:	e9c0 5500 	strd	r5, r5, [r0]
        n_(0) {
   b7f7a:	e9c0 5502 	strd	r5, r5, [r0, #8]
   b7f7e:	e9c0 5504 	strd	r5, r5, [r0, #16]
   b7f82:	4604      	mov	r4, r0
   b7f84:	4611      	mov	r1, r2
    if (t && t->type == JSMN_OBJECT) {
   b7f86:	b14b      	cbz	r3, b7f9c <_ZN5spark18JSONObjectIteratorC1EPK9jsmntok_tSt10shared_ptrINS_6detail8JSONDataEE+0x2c>
   b7f88:	781a      	ldrb	r2, [r3, #0]
   b7f8a:	2a01      	cmp	r2, #1
   b7f8c:	d106      	bne.n	b7f9c <_ZN5spark18JSONObjectIteratorC1EPK9jsmntok_tSt10shared_ptrINS_6detail8JSONDataEE+0x2c>
        t_ = t + 1; // First property's name
   b7f8e:	f103 0210 	add.w	r2, r3, #16
        n_ = t->size; // Number of properties
   b7f92:	68db      	ldr	r3, [r3, #12]
        t_ = t + 1; // First property's name
   b7f94:	6082      	str	r2, [r0, #8]
        n_ = t->size; // Number of properties
   b7f96:	6143      	str	r3, [r0, #20]
   b7f98:	f7ff ff51 	bl	b7e3e <_ZNSt12__shared_ptrIN5spark6detail8JSONDataELN9__gnu_cxx12_Lock_policyE0EEaSERKS5_.isra.0>
}
   b7f9c:	4620      	mov	r0, r4
   b7f9e:	bd38      	pop	{r3, r4, r5, pc}

000b7fa0 <_ZN5spark18JSONObjectIterator4nextEv>:
bool spark::JSONObjectIterator::next() {
   b7fa0:	b510      	push	{r4, lr}
    if (!n_) {
   b7fa2:	6943      	ldr	r3, [r0, #20]
bool spark::JSONObjectIterator::next() {
   b7fa4:	4604      	mov	r4, r0
    if (!n_) {
   b7fa6:	b163      	cbz	r3, b7fc2 <_ZN5spark18JSONObjectIterator4nextEv+0x22>
    k_ = t_; // Name
   b7fa8:	6880      	ldr	r0, [r0, #8]
   b7faa:	60e0      	str	r0, [r4, #12]
    --n_;
   b7fac:	3b01      	subs	r3, #1
    ++t_;
   b7fae:	3010      	adds	r0, #16
   b7fb0:	60a0      	str	r0, [r4, #8]
    v_ = t_; // Value
   b7fb2:	6120      	str	r0, [r4, #16]
    --n_;
   b7fb4:	6163      	str	r3, [r4, #20]
    if (n_) {
   b7fb6:	b113      	cbz	r3, b7fbe <_ZN5spark18JSONObjectIterator4nextEv+0x1e>
        t_ = skipToken(t_);
   b7fb8:	f7ff fef2 	bl	b7da0 <_ZN12_GLOBAL__N_19skipTokenEPK9jsmntok_t>
   b7fbc:	60a0      	str	r0, [r4, #8]
    return true;
   b7fbe:	2001      	movs	r0, #1
   b7fc0:	e000      	b.n	b7fc4 <_ZN5spark18JSONObjectIterator4nextEv+0x24>
        return false;
   b7fc2:	4618      	mov	r0, r3
}
   b7fc4:	bd10      	pop	{r4, pc}

000b7fc6 <_ZN5spark10JSONWriter9endObjectEv>:
spark::JSONWriter& spark::JSONWriter::endObject() {
   b7fc6:	b510      	push	{r4, lr}
    write('}');
   b7fc8:	217d      	movs	r1, #125	; 0x7d
spark::JSONWriter& spark::JSONWriter::endObject() {
   b7fca:	4604      	mov	r4, r0
    write('}');
   b7fcc:	f7ff ff49 	bl	b7e62 <_ZN5spark10JSONWriter5writeEc>
    state_ = NEXT;
   b7fd0:	2301      	movs	r3, #1
   b7fd2:	7123      	strb	r3, [r4, #4]
}
   b7fd4:	4620      	mov	r0, r4
   b7fd6:	bd10      	pop	{r4, pc}

000b7fd8 <_ZN5spark10JSONWriter14writeSeparatorEv>:

void spark::JSONWriter::writeSeparator() {
   b7fd8:	b508      	push	{r3, lr}
    switch (state_) {
   b7fda:	7903      	ldrb	r3, [r0, #4]
   b7fdc:	2b01      	cmp	r3, #1
   b7fde:	d002      	beq.n	b7fe6 <_ZN5spark10JSONWriter14writeSeparatorEv+0xe>
   b7fe0:	2b02      	cmp	r3, #2
   b7fe2:	d004      	beq.n	b7fee <_ZN5spark10JSONWriter14writeSeparatorEv+0x16>
        write(':');
        break;
    default:
        break;
    }
}
   b7fe4:	bd08      	pop	{r3, pc}
        write(',');
   b7fe6:	212c      	movs	r1, #44	; 0x2c
        write(':');
   b7fe8:	f7ff ff3b 	bl	b7e62 <_ZN5spark10JSONWriter5writeEc>
}
   b7fec:	e7fa      	b.n	b7fe4 <_ZN5spark10JSONWriter14writeSeparatorEv+0xc>
        write(':');
   b7fee:	213a      	movs	r1, #58	; 0x3a
   b7ff0:	e7fa      	b.n	b7fe8 <_ZN5spark10JSONWriter14writeSeparatorEv+0x10>

000b7ff2 <_ZN5spark10JSONWriter11beginObjectEv>:
spark::JSONWriter& spark::JSONWriter::beginObject() {
   b7ff2:	b510      	push	{r4, lr}
   b7ff4:	4604      	mov	r4, r0
    writeSeparator();
   b7ff6:	f7ff ffef 	bl	b7fd8 <_ZN5spark10JSONWriter14writeSeparatorEv>
    write('{');
   b7ffa:	4620      	mov	r0, r4
   b7ffc:	217b      	movs	r1, #123	; 0x7b
   b7ffe:	f7ff ff30 	bl	b7e62 <_ZN5spark10JSONWriter5writeEc>
    state_ = BEGIN;
   b8002:	2300      	movs	r3, #0
   b8004:	7123      	strb	r3, [r4, #4]
}
   b8006:	4620      	mov	r0, r4
   b8008:	bd10      	pop	{r4, pc}
	...

000b800c <_ZN5spark10JSONWriter5valueEi>:
spark::JSONWriter& spark::JSONWriter::value(int val) {
   b800c:	b513      	push	{r0, r1, r4, lr}
   b800e:	4604      	mov	r4, r0
   b8010:	9101      	str	r1, [sp, #4]
    writeSeparator();
   b8012:	f7ff ffe1 	bl	b7fd8 <_ZN5spark10JSONWriter14writeSeparatorEv>
    printf("%d", val);
   b8016:	6823      	ldr	r3, [r4, #0]
   b8018:	9a01      	ldr	r2, [sp, #4]
   b801a:	68db      	ldr	r3, [r3, #12]
   b801c:	4903      	ldr	r1, [pc, #12]	; (b802c <_ZN5spark10JSONWriter5valueEi+0x20>)
   b801e:	4620      	mov	r0, r4
   b8020:	4798      	blx	r3
    state_ = NEXT;
   b8022:	2301      	movs	r3, #1
}
   b8024:	4620      	mov	r0, r4
    state_ = NEXT;
   b8026:	7123      	strb	r3, [r4, #4]
}
   b8028:	b002      	add	sp, #8
   b802a:	bd10      	pop	{r4, pc}
   b802c:	000b8d2c 	.word	0x000b8d2c

000b8030 <_ZN5spark10JSONWriter5valueEj>:
spark::JSONWriter& spark::JSONWriter::value(unsigned val) {
   b8030:	b513      	push	{r0, r1, r4, lr}
   b8032:	4604      	mov	r4, r0
   b8034:	9101      	str	r1, [sp, #4]
    writeSeparator();
   b8036:	f7ff ffcf 	bl	b7fd8 <_ZN5spark10JSONWriter14writeSeparatorEv>
    printf("%u", val);
   b803a:	6823      	ldr	r3, [r4, #0]
   b803c:	9a01      	ldr	r2, [sp, #4]
   b803e:	68db      	ldr	r3, [r3, #12]
   b8040:	4903      	ldr	r1, [pc, #12]	; (b8050 <_ZN5spark10JSONWriter5valueEj+0x20>)
   b8042:	4620      	mov	r0, r4
   b8044:	4798      	blx	r3
    state_ = NEXT;
   b8046:	2301      	movs	r3, #1
}
   b8048:	4620      	mov	r0, r4
    state_ = NEXT;
   b804a:	7123      	strb	r3, [r4, #4]
}
   b804c:	b002      	add	sp, #8
   b804e:	bd10      	pop	{r4, pc}
   b8050:	000b8e10 	.word	0x000b8e10

000b8054 <_ZN5spark10JSONWriter12writeEscapedEPKcj>:

void spark::JSONWriter::writeEscaped(const char *str, size_t size) {
   b8054:	e92d 47f0 	stmdb	sp!, {r4, r5, r6, r7, r8, r9, sl, lr}
   b8058:	460d      	mov	r5, r1
    write('"');
   b805a:	2122      	movs	r1, #34	; 0x22
void spark::JSONWriter::writeEscaped(const char *str, size_t size) {
   b805c:	4690      	mov	r8, r2
   b805e:	4604      	mov	r4, r0
    write('"');
   b8060:	f7ff feff 	bl	b7e62 <_ZN5spark10JSONWriter5writeEc>
            case 0x0d: // Carriage return
                write('r');
                break;
            default:
                // All other control characters are written in hex, e.g. "\u001f"
                printf("u%04x", (unsigned)c);
   b8064:	f8df 90a4 	ldr.w	r9, [pc, #164]	; b810c <_ZN5spark10JSONWriter12writeEscapedEPKcj+0xb8>
    const char* const end = str + size;
   b8068:	44a8      	add	r8, r5
    const char *s = str;
   b806a:	462f      	mov	r7, r5
    while (s != end) {
   b806c:	4547      	cmp	r7, r8
   b806e:	46ba      	mov	sl, r7
   b8070:	d03d      	beq.n	b80ee <_ZN5spark10JSONWriter12writeEscapedEPKcj+0x9a>
        const char c = *s;
   b8072:	f817 6b01 	ldrb.w	r6, [r7], #1
        if (c == '"' || c == '\\' || !std::isprint((unsigned char)c)) {
   b8076:	2e22      	cmp	r6, #34	; 0x22
   b8078:	d006      	beq.n	b8088 <_ZN5spark10JSONWriter12writeEscapedEPKcj+0x34>
   b807a:	2e5c      	cmp	r6, #92	; 0x5c
   b807c:	d004      	beq.n	b8088 <_ZN5spark10JSONWriter12writeEscapedEPKcj+0x34>
   b807e:	4630      	mov	r0, r6
   b8080:	f000 fa5c 	bl	b853c <isprint>
   b8084:	2800      	cmp	r0, #0
   b8086:	d1f1      	bne.n	b806c <_ZN5spark10JSONWriter12writeEscapedEPKcj+0x18>
            write(str, s - str); // Write preceeding characters
   b8088:	6823      	ldr	r3, [r4, #0]
   b808a:	ebaa 0205 	sub.w	r2, sl, r5
   b808e:	689b      	ldr	r3, [r3, #8]
   b8090:	4629      	mov	r1, r5
   b8092:	4620      	mov	r0, r4
   b8094:	4798      	blx	r3
            write('\\');
   b8096:	215c      	movs	r1, #92	; 0x5c
   b8098:	4620      	mov	r0, r4
   b809a:	f7ff fee2 	bl	b7e62 <_ZN5spark10JSONWriter5writeEc>
            switch (c) {
   b809e:	2e0d      	cmp	r6, #13
   b80a0:	d80a      	bhi.n	b80b8 <_ZN5spark10JSONWriter12writeEscapedEPKcj+0x64>
   b80a2:	2e07      	cmp	r6, #7
   b80a4:	d91c      	bls.n	b80e0 <_ZN5spark10JSONWriter12writeEscapedEPKcj+0x8c>
   b80a6:	f1a6 0308 	sub.w	r3, r6, #8
   b80aa:	2b05      	cmp	r3, #5
   b80ac:	d818      	bhi.n	b80e0 <_ZN5spark10JSONWriter12writeEscapedEPKcj+0x8c>
   b80ae:	e8df f003 	tbb	[pc, r3]
   b80b2:	0f0d      	.short	0x0f0d
   b80b4:	15131711 	.word	0x15131711
   b80b8:	2e22      	cmp	r6, #34	; 0x22
   b80ba:	d001      	beq.n	b80c0 <_ZN5spark10JSONWriter12writeEscapedEPKcj+0x6c>
   b80bc:	2e5c      	cmp	r6, #92	; 0x5c
   b80be:	d10f      	bne.n	b80e0 <_ZN5spark10JSONWriter12writeEscapedEPKcj+0x8c>
                write(c);
   b80c0:	4631      	mov	r1, r6
                write('b');
   b80c2:	4620      	mov	r0, r4
   b80c4:	f7ff fecd 	bl	b7e62 <_ZN5spark10JSONWriter5writeEc>
                break;
            }
            str = s + 1;
   b80c8:	463d      	mov	r5, r7
    while (s != end) {
   b80ca:	e7cf      	b.n	b806c <_ZN5spark10JSONWriter12writeEscapedEPKcj+0x18>
                write('b');
   b80cc:	2162      	movs	r1, #98	; 0x62
   b80ce:	e7f8      	b.n	b80c2 <_ZN5spark10JSONWriter12writeEscapedEPKcj+0x6e>
                write('t');
   b80d0:	2174      	movs	r1, #116	; 0x74
   b80d2:	e7f6      	b.n	b80c2 <_ZN5spark10JSONWriter12writeEscapedEPKcj+0x6e>
                write('n');
   b80d4:	216e      	movs	r1, #110	; 0x6e
   b80d6:	e7f4      	b.n	b80c2 <_ZN5spark10JSONWriter12writeEscapedEPKcj+0x6e>
                write('f');
   b80d8:	2166      	movs	r1, #102	; 0x66
   b80da:	e7f2      	b.n	b80c2 <_ZN5spark10JSONWriter12writeEscapedEPKcj+0x6e>
                write('r');
   b80dc:	2172      	movs	r1, #114	; 0x72
   b80de:	e7f0      	b.n	b80c2 <_ZN5spark10JSONWriter12writeEscapedEPKcj+0x6e>
                printf("u%04x", (unsigned)c);
   b80e0:	6823      	ldr	r3, [r4, #0]
   b80e2:	4632      	mov	r2, r6
   b80e4:	68db      	ldr	r3, [r3, #12]
   b80e6:	4649      	mov	r1, r9
   b80e8:	4620      	mov	r0, r4
   b80ea:	4798      	blx	r3
                break;
   b80ec:	e7ec      	b.n	b80c8 <_ZN5spark10JSONWriter12writeEscapedEPKcj+0x74>
        }
        ++s;
    }
    if (s != str) {
   b80ee:	42bd      	cmp	r5, r7
   b80f0:	d005      	beq.n	b80fe <_ZN5spark10JSONWriter12writeEscapedEPKcj+0xaa>
        write(str, s - str); // Write remaining characters
   b80f2:	6823      	ldr	r3, [r4, #0]
   b80f4:	1b7a      	subs	r2, r7, r5
   b80f6:	689b      	ldr	r3, [r3, #8]
   b80f8:	4629      	mov	r1, r5
   b80fa:	4620      	mov	r0, r4
   b80fc:	4798      	blx	r3
    }
    write('"');
   b80fe:	2122      	movs	r1, #34	; 0x22
   b8100:	4620      	mov	r0, r4
   b8102:	f7ff feae 	bl	b7e62 <_ZN5spark10JSONWriter5writeEc>
}
   b8106:	e8bd 87f0 	ldmia.w	sp!, {r4, r5, r6, r7, r8, r9, sl, pc}
   b810a:	bf00      	nop
   b810c:	000b8e13 	.word	0x000b8e13

000b8110 <_ZN5spark10JSONWriter4nameEPKcj>:
spark::JSONWriter& spark::JSONWriter::name(const char *name, size_t size) {
   b8110:	b513      	push	{r0, r1, r4, lr}
   b8112:	4604      	mov	r4, r0
   b8114:	e9cd 2100 	strd	r2, r1, [sp]
    writeSeparator();
   b8118:	f7ff ff5e 	bl	b7fd8 <_ZN5spark10JSONWriter14writeSeparatorEv>
    writeEscaped(name, size);
   b811c:	4620      	mov	r0, r4
   b811e:	e9dd 2100 	ldrd	r2, r1, [sp]
   b8122:	f7ff ff97 	bl	b8054 <_ZN5spark10JSONWriter12writeEscapedEPKcj>
    state_ = VALUE;
   b8126:	2302      	movs	r3, #2
}
   b8128:	4620      	mov	r0, r4
    state_ = VALUE;
   b812a:	7123      	strb	r3, [r4, #4]
}
   b812c:	b002      	add	sp, #8
   b812e:	bd10      	pop	{r4, pc}

000b8130 <_ZN5spark10JSONWriter5valueEPKcj>:
spark::JSONWriter& spark::JSONWriter::value(const char *val, size_t size) {
   b8130:	b513      	push	{r0, r1, r4, lr}
   b8132:	4604      	mov	r4, r0
   b8134:	e9cd 2100 	strd	r2, r1, [sp]
    writeSeparator();
   b8138:	f7ff ff4e 	bl	b7fd8 <_ZN5spark10JSONWriter14writeSeparatorEv>
    writeEscaped(val, size);
   b813c:	4620      	mov	r0, r4
   b813e:	e9dd 2100 	ldrd	r2, r1, [sp]
   b8142:	f7ff ff87 	bl	b8054 <_ZN5spark10JSONWriter12writeEscapedEPKcj>
    state_ = NEXT;
   b8146:	2301      	movs	r3, #1
}
   b8148:	4620      	mov	r0, r4
    state_ = NEXT;
   b814a:	7123      	strb	r3, [r4, #4]
}
   b814c:	b002      	add	sp, #8
   b814e:	bd10      	pop	{r4, pc}

000b8150 <pinAvailable>:
/*
 * @brief Perform safety check on desired pin to see if it's already
 * being used.  Return 0 if used, otherwise return 1 if available.
 */
bool pinAvailable(uint16_t pin) {
  if (pin >= TOTAL_PINS) {
   b8150:	2823      	cmp	r0, #35	; 0x23
bool pinAvailable(uint16_t pin) {
   b8152:	b513      	push	{r0, r1, r4, lr}
  if (pin >= TOTAL_PINS) {
   b8154:	d902      	bls.n	b815c <pinAvailable+0xc>
    return false;
   b8156:	2000      	movs	r0, #0
    return false; // 'pin' is used
  }
#endif

  return true; // 'pin' is available
}
   b8158:	b002      	add	sp, #8
   b815a:	bd10      	pop	{r4, pc}
  if((pin == SCK || pin == MOSI || pin == MISO) && hal_spi_is_enabled(SPI.interface()) == true)
   b815c:	f1a0 030b 	sub.w	r3, r0, #11
   b8160:	2b02      	cmp	r3, #2
   b8162:	d81a      	bhi.n	b819a <pinAvailable+0x4a>

template <hal_spi_interface_t Interface>
class SpiProxy {
public:
    static SPIClass& instance() {
        static SPIClass instance(Interface);
   b8164:	4c17      	ldr	r4, [pc, #92]	; (b81c4 <pinAvailable+0x74>)
   b8166:	7821      	ldrb	r1, [r4, #0]
   b8168:	f3bf 8f5b 	dmb	ish
   b816c:	f011 0101 	ands.w	r1, r1, #1
   b8170:	d10b      	bne.n	b818a <pinAvailable+0x3a>
   b8172:	4620      	mov	r0, r4
   b8174:	9101      	str	r1, [sp, #4]
   b8176:	f7fb ffb3 	bl	b40e0 <__cxa_guard_acquire>
   b817a:	9901      	ldr	r1, [sp, #4]
   b817c:	b128      	cbz	r0, b818a <pinAvailable+0x3a>
   b817e:	4812      	ldr	r0, [pc, #72]	; (b81c8 <pinAvailable+0x78>)
   b8180:	f7fc ffc0 	bl	b5104 <_ZN8SPIClassC1E19hal_spi_interface_t>
   b8184:	4620      	mov	r0, r4
   b8186:	f7fb ffb0 	bl	b40ea <__cxa_guard_release>
   b818a:	4b0f      	ldr	r3, [pc, #60]	; (b81c8 <pinAvailable+0x78>)
   b818c:	7818      	ldrb	r0, [r3, #0]
   b818e:	f7fc fe11 	bl	b4db4 <hal_spi_is_enabled>
   b8192:	2800      	cmp	r0, #0
   b8194:	d1df      	bne.n	b8156 <pinAvailable+0x6>
  return true; // 'pin' is available
   b8196:	2001      	movs	r0, #1
   b8198:	e7de      	b.n	b8158 <pinAvailable+0x8>
  if((pin == SCL || pin == SDA) && hal_i2c_is_enabled(Wire.interface(), nullptr) == true)
   b819a:	2801      	cmp	r0, #1
   b819c:	d809      	bhi.n	b81b2 <pinAvailable+0x62>
   b819e:	f000 f889 	bl	b82b4 <_Z19__fetch_global_Wirev>
   b81a2:	2100      	movs	r1, #0
   b81a4:	7c00      	ldrb	r0, [r0, #16]
   b81a6:	f7fc fdad 	bl	b4d04 <hal_i2c_is_enabled>
  if((pin == RX || pin == TX) && hal_usart_is_enabled(Serial1.interface()) == true)
   b81aa:	f080 0001 	eor.w	r0, r0, #1
   b81ae:	b2c0      	uxtb	r0, r0
   b81b0:	e7d2      	b.n	b8158 <pinAvailable+0x8>
   b81b2:	3809      	subs	r0, #9
   b81b4:	2801      	cmp	r0, #1
   b81b6:	d8ee      	bhi.n	b8196 <pinAvailable+0x46>
   b81b8:	f000 f83c 	bl	b8234 <_Z22__fetch_global_Serial1v>
   b81bc:	7c00      	ldrb	r0, [r0, #16]
   b81be:	f7fc fd59 	bl	b4c74 <hal_usart_is_enabled>
   b81c2:	e7f2      	b.n	b81aa <pinAvailable+0x5a>
   b81c4:	2003e5bc 	.word	0x2003e5bc
   b81c8:	2003e5c0 	.word	0x2003e5c0

000b81cc <digitalWrite>:

/*
 * @brief Sets a GPIO pin to HIGH or LOW.
 */
void digitalWrite(hal_pin_t pin, uint8_t value)
{
   b81cc:	b538      	push	{r3, r4, r5, lr}
   b81ce:	4604      	mov	r4, r0
   b81d0:	460d      	mov	r5, r1
    PinMode mode = hal_gpio_get_mode(pin);
   b81d2:	f7fc fc5b 	bl	b4a8c <hal_gpio_get_mode>
    if (mode==PIN_MODE_NONE || is_input_mode(mode))
   b81d6:	28ff      	cmp	r0, #255	; 0xff
   b81d8:	d010      	beq.n	b81fc <digitalWrite+0x30>
            mode == INPUT_PULLDOWN ||
   b81da:	2806      	cmp	r0, #6
   b81dc:	d804      	bhi.n	b81e8 <digitalWrite+0x1c>
   b81de:	234d      	movs	r3, #77	; 0x4d
   b81e0:	fa23 f000 	lsr.w	r0, r3, r0
   b81e4:	07c3      	lsls	r3, r0, #31
   b81e6:	d409      	bmi.n	b81fc <digitalWrite+0x30>
        return;
  // Safety check
  if( !pinAvailable(pin) ) {
   b81e8:	4620      	mov	r0, r4
   b81ea:	f7ff ffb1 	bl	b8150 <pinAvailable>
   b81ee:	b128      	cbz	r0, b81fc <digitalWrite+0x30>
    return;
  }

  hal_gpio_write(pin, value);
   b81f0:	4629      	mov	r1, r5
   b81f2:	4620      	mov	r0, r4
}
   b81f4:	e8bd 4038 	ldmia.w	sp!, {r3, r4, r5, lr}
  hal_gpio_write(pin, value);
   b81f8:	f7fc bc50 	b.w	b4a9c <hal_gpio_write>
}
   b81fc:	bd38      	pop	{r3, r4, r5, pc}

000b81fe <__tcf_0>:
}
#endif

USARTSerial& __fetch_global_Serial1()
{
    static USARTSerial serial1(HAL_USART_SERIAL1, acquireSerial1Buffer());
   b81fe:	4770      	bx	lr

000b8200 <_Z20acquireSerial1Bufferv>:
{
   b8200:	b538      	push	{r3, r4, r5, lr}
   b8202:	4604      	mov	r4, r0
    hal_usart_buffer_config_t config = {
   b8204:	2514      	movs	r5, #20
   b8206:	462a      	mov	r2, r5
   b8208:	2100      	movs	r1, #0
   b820a:	f000 f9d7 	bl	b85bc <memset>
   b820e:	8025      	strh	r5, [r4, #0]
   b8210:	2540      	movs	r5, #64	; 0x40
        .rx_buffer = new (std::nothrow) uint8_t[bufferSize],
   b8212:	4907      	ldr	r1, [pc, #28]	; (b8230 <_Z20acquireSerial1Bufferv+0x30>)
    hal_usart_buffer_config_t config = {
   b8214:	8125      	strh	r5, [r4, #8]
        .rx_buffer = new (std::nothrow) uint8_t[bufferSize],
   b8216:	4628      	mov	r0, r5
    hal_usart_buffer_config_t config = {
   b8218:	8225      	strh	r5, [r4, #16]
        .rx_buffer = new (std::nothrow) uint8_t[bufferSize],
   b821a:	f000 f871 	bl	b8300 <_ZnajRKSt9nothrow_t>
        .tx_buffer = new (std::nothrow) uint8_t[bufferSize],
   b821e:	4904      	ldr	r1, [pc, #16]	; (b8230 <_Z20acquireSerial1Bufferv+0x30>)
    };
   b8220:	6060      	str	r0, [r4, #4]
        .tx_buffer = new (std::nothrow) uint8_t[bufferSize],
   b8222:	4628      	mov	r0, r5
   b8224:	f000 f86c 	bl	b8300 <_ZnajRKSt9nothrow_t>
    };
   b8228:	60e0      	str	r0, [r4, #12]
}
   b822a:	4620      	mov	r0, r4
   b822c:	bd38      	pop	{r3, r4, r5, pc}
   b822e:	bf00      	nop
   b8230:	000b8e19 	.word	0x000b8e19

000b8234 <_Z22__fetch_global_Serial1v>:
{
   b8234:	b530      	push	{r4, r5, lr}
    static USARTSerial serial1(HAL_USART_SERIAL1, acquireSerial1Buffer());
   b8236:	4d0e      	ldr	r5, [pc, #56]	; (b8270 <_Z22__fetch_global_Serial1v+0x3c>)
   b8238:	7829      	ldrb	r1, [r5, #0]
   b823a:	f3bf 8f5b 	dmb	ish
   b823e:	f011 0401 	ands.w	r4, r1, #1
{
   b8242:	b087      	sub	sp, #28
    static USARTSerial serial1(HAL_USART_SERIAL1, acquireSerial1Buffer());
   b8244:	d111      	bne.n	b826a <_Z22__fetch_global_Serial1v+0x36>
   b8246:	4628      	mov	r0, r5
   b8248:	f7fb ff4a 	bl	b40e0 <__cxa_guard_acquire>
   b824c:	b168      	cbz	r0, b826a <_Z22__fetch_global_Serial1v+0x36>
   b824e:	a801      	add	r0, sp, #4
   b8250:	f7ff ffd6 	bl	b8200 <_Z20acquireSerial1Bufferv>
   b8254:	aa01      	add	r2, sp, #4
   b8256:	4621      	mov	r1, r4
   b8258:	4806      	ldr	r0, [pc, #24]	; (b8274 <_Z22__fetch_global_Serial1v+0x40>)
   b825a:	f7ff f97d 	bl	b7558 <_ZN11USARTSerialC1E21hal_usart_interface_tRK25hal_usart_buffer_config_t>
   b825e:	4628      	mov	r0, r5
   b8260:	f7fb ff43 	bl	b40ea <__cxa_guard_release>
   b8264:	4804      	ldr	r0, [pc, #16]	; (b8278 <_Z22__fetch_global_Serial1v+0x44>)
   b8266:	f000 f963 	bl	b8530 <atexit>
    return serial1;
}
   b826a:	4802      	ldr	r0, [pc, #8]	; (b8274 <_Z22__fetch_global_Serial1v+0x40>)
   b826c:	b007      	add	sp, #28
   b826e:	bd30      	pop	{r4, r5, pc}
   b8270:	2003e728 	.word	0x2003e728
   b8274:	2003e72c 	.word	0x2003e72c
   b8278:	000b81ff 	.word	0x000b81ff

000b827c <__tcf_0>:
}
#endif

TwoWire& __fetch_global_Wire()
{
	static TwoWire wire(HAL_I2C_INTERFACE1, acquireWireBuffer());
   b827c:	4770      	bx	lr
	...

000b8280 <_Z17acquireWireBufferv>:
{
   b8280:	b538      	push	{r3, r4, r5, lr}
	hal_i2c_config_t config = {
   b8282:	4b0a      	ldr	r3, [pc, #40]	; (b82ac <_Z17acquireWireBufferv+0x2c>)
   b8284:	6003      	str	r3, [r0, #0]
   b8286:	2301      	movs	r3, #1
{
   b8288:	4604      	mov	r4, r0
	hal_i2c_config_t config = {
   b828a:	6143      	str	r3, [r0, #20]
		.rx_buffer = new (std::nothrow) uint8_t[i2c_buffer_size],
   b828c:	4908      	ldr	r1, [pc, #32]	; (b82b0 <_Z17acquireWireBufferv+0x30>)
   b828e:	2020      	movs	r0, #32
   b8290:	f000 f836 	bl	b8300 <_ZnajRKSt9nothrow_t>
	};
   b8294:	2520      	movs	r5, #32
   b8296:	6060      	str	r0, [r4, #4]
		.tx_buffer = new (std::nothrow) uint8_t[i2c_buffer_size],
   b8298:	4905      	ldr	r1, [pc, #20]	; (b82b0 <_Z17acquireWireBufferv+0x30>)
	};
   b829a:	60a5      	str	r5, [r4, #8]
		.tx_buffer = new (std::nothrow) uint8_t[i2c_buffer_size],
   b829c:	4628      	mov	r0, r5
   b829e:	f000 f82f 	bl	b8300 <_ZnajRKSt9nothrow_t>
	};
   b82a2:	e9c4 0503 	strd	r0, r5, [r4, #12]
}
   b82a6:	4620      	mov	r0, r4
   b82a8:	bd38      	pop	{r3, r4, r5, pc}
   b82aa:	bf00      	nop
   b82ac:	00010018 	.word	0x00010018
   b82b0:	000b8e19 	.word	0x000b8e19

000b82b4 <_Z19__fetch_global_Wirev>:
{
   b82b4:	b530      	push	{r4, r5, lr}
	static TwoWire wire(HAL_I2C_INTERFACE1, acquireWireBuffer());
   b82b6:	4d0e      	ldr	r5, [pc, #56]	; (b82f0 <_Z19__fetch_global_Wirev+0x3c>)
   b82b8:	7829      	ldrb	r1, [r5, #0]
   b82ba:	f3bf 8f5b 	dmb	ish
   b82be:	f011 0401 	ands.w	r4, r1, #1
{
   b82c2:	b087      	sub	sp, #28
	static TwoWire wire(HAL_I2C_INTERFACE1, acquireWireBuffer());
   b82c4:	d111      	bne.n	b82ea <_Z19__fetch_global_Wirev+0x36>
   b82c6:	4628      	mov	r0, r5
   b82c8:	f7fb ff0a 	bl	b40e0 <__cxa_guard_acquire>
   b82cc:	b168      	cbz	r0, b82ea <_Z19__fetch_global_Wirev+0x36>
   b82ce:	4668      	mov	r0, sp
   b82d0:	f7ff ffd6 	bl	b8280 <_Z17acquireWireBufferv>
   b82d4:	466a      	mov	r2, sp
   b82d6:	4621      	mov	r1, r4
   b82d8:	4806      	ldr	r0, [pc, #24]	; (b82f4 <_Z19__fetch_global_Wirev+0x40>)
   b82da:	f7ff f987 	bl	b75ec <_ZN7TwoWireC1E19hal_i2c_interface_tRK16hal_i2c_config_t>
   b82de:	4628      	mov	r0, r5
   b82e0:	f7fb ff03 	bl	b40ea <__cxa_guard_release>
   b82e4:	4804      	ldr	r0, [pc, #16]	; (b82f8 <_Z19__fetch_global_Wirev+0x44>)
   b82e6:	f000 f923 	bl	b8530 <atexit>
	return wire;
}
   b82ea:	4802      	ldr	r0, [pc, #8]	; (b82f4 <_Z19__fetch_global_Wirev+0x40>)
   b82ec:	b007      	add	sp, #28
   b82ee:	bd30      	pop	{r4, r5, pc}
   b82f0:	2003e744 	.word	0x2003e744
   b82f4:	2003e748 	.word	0x2003e748
   b82f8:	000b827d 	.word	0x000b827d

000b82fc <_ZnwjRKSt9nothrow_t>:
   b82fc:	f7fb bedb 	b.w	b40b6 <_Znwj>

000b8300 <_ZnajRKSt9nothrow_t>:
   b8300:	f7fb bedb 	b.w	b40ba <_Znaj>

000b8304 <_ZSt25__throw_bad_function_callv>:
   b8304:	b508      	push	{r3, lr}
   b8306:	f7fc fe99 	bl	b503c <abort>
	...

000b830c <_ZNSt19_Sp_make_shared_tag5_S_eqERKSt9type_info>:
   b830c:	4901      	ldr	r1, [pc, #4]	; (b8314 <_ZNSt19_Sp_make_shared_tag5_S_eqERKSt9type_info+0x8>)
   b830e:	f000 b8f9 	b.w	b8504 <_ZNKSt9type_infoeqERKS_>
   b8312:	bf00      	nop
   b8314:	000b8e34 	.word	0x000b8e34

000b8318 <_ZNK10__cxxabiv117__class_type_info11__do_upcastEPKS0_PPv>:
   b8318:	b57f      	push	{r0, r1, r2, r3, r4, r5, r6, lr}
   b831a:	2400      	movs	r4, #0
   b831c:	2310      	movs	r3, #16
   b831e:	e9cd 3402 	strd	r3, r4, [sp, #8]
   b8322:	6803      	ldr	r3, [r0, #0]
   b8324:	4615      	mov	r5, r2
   b8326:	699e      	ldr	r6, [r3, #24]
   b8328:	6812      	ldr	r2, [r2, #0]
   b832a:	466b      	mov	r3, sp
   b832c:	e9cd 4400 	strd	r4, r4, [sp]
   b8330:	47b0      	blx	r6
   b8332:	f89d 3004 	ldrb.w	r3, [sp, #4]
   b8336:	f003 0306 	and.w	r3, r3, #6
   b833a:	2b06      	cmp	r3, #6
   b833c:	bf03      	ittte	eq
   b833e:	9b00      	ldreq	r3, [sp, #0]
   b8340:	602b      	streq	r3, [r5, #0]
   b8342:	2001      	moveq	r0, #1
   b8344:	4620      	movne	r0, r4
   b8346:	b004      	add	sp, #16
   b8348:	bd70      	pop	{r4, r5, r6, pc}

000b834a <_ZNK10__cxxabiv117__class_type_info20__do_find_public_srcEiPKvPKS0_S2_>:
   b834a:	9800      	ldr	r0, [sp, #0]
   b834c:	4290      	cmp	r0, r2
   b834e:	bf14      	ite	ne
   b8350:	2001      	movne	r0, #1
   b8352:	2006      	moveq	r0, #6
   b8354:	4770      	bx	lr
	...

000b8358 <_ZN10__cxxabiv117__class_type_infoD1Ev>:
   b8358:	b510      	push	{r4, lr}
   b835a:	4b03      	ldr	r3, [pc, #12]	; (b8368 <_ZN10__cxxabiv117__class_type_infoD1Ev+0x10>)
   b835c:	6003      	str	r3, [r0, #0]
   b835e:	4604      	mov	r4, r0
   b8360:	f000 f8cd 	bl	b84fe <_ZNSt9type_infoD1Ev>
   b8364:	4620      	mov	r0, r4
   b8366:	bd10      	pop	{r4, pc}
   b8368:	000b8e74 	.word	0x000b8e74

000b836c <_ZN10__cxxabiv117__class_type_infoD0Ev>:
   b836c:	b510      	push	{r4, lr}
   b836e:	4604      	mov	r4, r0
   b8370:	f7ff fff2 	bl	b8358 <_ZN10__cxxabiv117__class_type_infoD1Ev>
   b8374:	4620      	mov	r0, r4
   b8376:	2108      	movs	r1, #8
   b8378:	f7fb fea3 	bl	b40c2 <_ZdlPvj>
   b837c:	4620      	mov	r0, r4
   b837e:	bd10      	pop	{r4, pc}

000b8380 <_ZNK10__cxxabiv117__class_type_info12__do_dyncastEiNS0_10__sub_kindEPKS0_PKvS3_S5_RNS0_16__dyncast_resultE>:
   b8380:	e92d 41f0 	stmdb	sp!, {r4, r5, r6, r7, r8, lr}
   b8384:	461f      	mov	r7, r3
   b8386:	e9dd 3408 	ldrd	r3, r4, [sp, #32]
   b838a:	f8dd 8018 	ldr.w	r8, [sp, #24]
   b838e:	4598      	cmp	r8, r3
   b8390:	4606      	mov	r6, r0
   b8392:	4615      	mov	r5, r2
   b8394:	d107      	bne.n	b83a6 <_ZNK10__cxxabiv117__class_type_info12__do_dyncastEiNS0_10__sub_kindEPKS0_PKvS3_S5_RNS0_16__dyncast_resultE+0x26>
   b8396:	9907      	ldr	r1, [sp, #28]
   b8398:	f000 f8b4 	bl	b8504 <_ZNKSt9type_infoeqERKS_>
   b839c:	b118      	cbz	r0, b83a6 <_ZNK10__cxxabiv117__class_type_info12__do_dyncastEiNS0_10__sub_kindEPKS0_PKvS3_S5_RNS0_16__dyncast_resultE+0x26>
   b839e:	7165      	strb	r5, [r4, #5]
   b83a0:	2000      	movs	r0, #0
   b83a2:	e8bd 81f0 	ldmia.w	sp!, {r4, r5, r6, r7, r8, pc}
   b83a6:	4639      	mov	r1, r7
   b83a8:	4630      	mov	r0, r6
   b83aa:	f000 f8ab 	bl	b8504 <_ZNKSt9type_infoeqERKS_>
   b83ae:	2800      	cmp	r0, #0
   b83b0:	d0f6      	beq.n	b83a0 <_ZNK10__cxxabiv117__class_type_info12__do_dyncastEiNS0_10__sub_kindEPKS0_PKvS3_S5_RNS0_16__dyncast_resultE+0x20>
   b83b2:	2301      	movs	r3, #1
   b83b4:	f8c4 8000 	str.w	r8, [r4]
   b83b8:	7125      	strb	r5, [r4, #4]
   b83ba:	71a3      	strb	r3, [r4, #6]
   b83bc:	e7f0      	b.n	b83a0 <_ZNK10__cxxabiv117__class_type_info12__do_dyncastEiNS0_10__sub_kindEPKS0_PKvS3_S5_RNS0_16__dyncast_resultE+0x20>

000b83be <_ZNK10__cxxabiv117__class_type_info11__do_upcastEPKS0_PKvRNS0_15__upcast_resultE>:
   b83be:	b538      	push	{r3, r4, r5, lr}
   b83c0:	4615      	mov	r5, r2
   b83c2:	461c      	mov	r4, r3
   b83c4:	f000 f89e 	bl	b8504 <_ZNKSt9type_infoeqERKS_>
   b83c8:	b120      	cbz	r0, b83d4 <_ZNK10__cxxabiv117__class_type_info11__do_upcastEPKS0_PKvRNS0_15__upcast_resultE+0x16>
   b83ca:	2308      	movs	r3, #8
   b83cc:	60e3      	str	r3, [r4, #12]
   b83ce:	2306      	movs	r3, #6
   b83d0:	6025      	str	r5, [r4, #0]
   b83d2:	7123      	strb	r3, [r4, #4]
   b83d4:	bd38      	pop	{r3, r4, r5, pc}

000b83d6 <_ZNK10__cxxabiv117__class_type_info10__do_catchEPKSt9type_infoPPvj>:
   b83d6:	b573      	push	{r0, r1, r4, r5, r6, lr}
   b83d8:	4605      	mov	r5, r0
   b83da:	460c      	mov	r4, r1
   b83dc:	9201      	str	r2, [sp, #4]
   b83de:	461e      	mov	r6, r3
   b83e0:	f000 f890 	bl	b8504 <_ZNKSt9type_infoeqERKS_>
   b83e4:	b950      	cbnz	r0, b83fc <_ZNK10__cxxabiv117__class_type_info10__do_catchEPKSt9type_infoPPvj+0x26>
   b83e6:	2e03      	cmp	r6, #3
   b83e8:	d808      	bhi.n	b83fc <_ZNK10__cxxabiv117__class_type_info10__do_catchEPKSt9type_infoPPvj+0x26>
   b83ea:	6823      	ldr	r3, [r4, #0]
   b83ec:	9a01      	ldr	r2, [sp, #4]
   b83ee:	695b      	ldr	r3, [r3, #20]
   b83f0:	4629      	mov	r1, r5
   b83f2:	4620      	mov	r0, r4
   b83f4:	b002      	add	sp, #8
   b83f6:	e8bd 4070 	ldmia.w	sp!, {r4, r5, r6, lr}
   b83fa:	4718      	bx	r3
   b83fc:	b002      	add	sp, #8
   b83fe:	bd70      	pop	{r4, r5, r6, pc}

000b8400 <_ZN10__cxxabiv120__si_class_type_infoD1Ev>:
   b8400:	b510      	push	{r4, lr}
   b8402:	4b03      	ldr	r3, [pc, #12]	; (b8410 <_ZN10__cxxabiv120__si_class_type_infoD1Ev+0x10>)
   b8404:	6003      	str	r3, [r0, #0]
   b8406:	4604      	mov	r4, r0
   b8408:	f7ff ffa6 	bl	b8358 <_ZN10__cxxabiv117__class_type_infoD1Ev>
   b840c:	4620      	mov	r0, r4
   b840e:	bd10      	pop	{r4, pc}
   b8410:	000b8ed4 	.word	0x000b8ed4

000b8414 <_ZN10__cxxabiv120__si_class_type_infoD0Ev>:
   b8414:	b510      	push	{r4, lr}
   b8416:	4604      	mov	r4, r0
   b8418:	f7ff fff2 	bl	b8400 <_ZN10__cxxabiv120__si_class_type_infoD1Ev>
   b841c:	4620      	mov	r0, r4
   b841e:	210c      	movs	r1, #12
   b8420:	f7fb fe4f 	bl	b40c2 <_ZdlPvj>
   b8424:	4620      	mov	r0, r4
   b8426:	bd10      	pop	{r4, pc}

000b8428 <_ZNK10__cxxabiv120__si_class_type_info20__do_find_public_srcEiPKvPKNS_17__class_type_infoES2_>:
   b8428:	b5f7      	push	{r0, r1, r2, r4, r5, r6, r7, lr}
   b842a:	9f08      	ldr	r7, [sp, #32]
   b842c:	4297      	cmp	r7, r2
   b842e:	4605      	mov	r5, r0
   b8430:	460e      	mov	r6, r1
   b8432:	4614      	mov	r4, r2
   b8434:	d00a      	beq.n	b844c <_ZNK10__cxxabiv120__si_class_type_info20__do_find_public_srcEiPKvPKNS_17__class_type_infoES2_+0x24>
   b8436:	68a8      	ldr	r0, [r5, #8]
   b8438:	6802      	ldr	r2, [r0, #0]
   b843a:	9708      	str	r7, [sp, #32]
   b843c:	6a15      	ldr	r5, [r2, #32]
   b843e:	4631      	mov	r1, r6
   b8440:	4622      	mov	r2, r4
   b8442:	46ac      	mov	ip, r5
   b8444:	b003      	add	sp, #12
   b8446:	e8bd 40f0 	ldmia.w	sp!, {r4, r5, r6, r7, lr}
   b844a:	4760      	bx	ip
   b844c:	4619      	mov	r1, r3
   b844e:	9301      	str	r3, [sp, #4]
   b8450:	f000 f858 	bl	b8504 <_ZNKSt9type_infoeqERKS_>
   b8454:	9b01      	ldr	r3, [sp, #4]
   b8456:	2800      	cmp	r0, #0
   b8458:	d0ed      	beq.n	b8436 <_ZNK10__cxxabiv120__si_class_type_info20__do_find_public_srcEiPKvPKNS_17__class_type_infoES2_+0xe>
   b845a:	2006      	movs	r0, #6
   b845c:	b003      	add	sp, #12
   b845e:	bdf0      	pop	{r4, r5, r6, r7, pc}

000b8460 <_ZNK10__cxxabiv120__si_class_type_info12__do_dyncastEiNS_17__class_type_info10__sub_kindEPKS1_PKvS4_S6_RNS1_16__dyncast_resultE>:
   b8460:	e92d 4ff1 	stmdb	sp!, {r0, r4, r5, r6, r7, r8, r9, sl, fp, lr}
   b8464:	460d      	mov	r5, r1
   b8466:	4619      	mov	r1, r3
   b8468:	e9dd 4b0a 	ldrd	r4, fp, [sp, #40]	; 0x28
   b846c:	e9dd a60c 	ldrd	sl, r6, [sp, #48]	; 0x30
   b8470:	4681      	mov	r9, r0
   b8472:	4617      	mov	r7, r2
   b8474:	4698      	mov	r8, r3
   b8476:	f000 f845 	bl	b8504 <_ZNKSt9type_infoeqERKS_>
   b847a:	b190      	cbz	r0, b84a2 <_ZNK10__cxxabiv120__si_class_type_info12__do_dyncastEiNS_17__class_type_info10__sub_kindEPKS1_PKvS4_S6_RNS1_16__dyncast_resultE+0x42>
   b847c:	2d00      	cmp	r5, #0
   b847e:	6034      	str	r4, [r6, #0]
   b8480:	7137      	strb	r7, [r6, #4]
   b8482:	db09      	blt.n	b8498 <_ZNK10__cxxabiv120__si_class_type_info12__do_dyncastEiNS_17__class_type_info10__sub_kindEPKS1_PKvS4_S6_RNS1_16__dyncast_resultE+0x38>
   b8484:	1961      	adds	r1, r4, r5
   b8486:	458a      	cmp	sl, r1
   b8488:	bf0c      	ite	eq
   b848a:	2106      	moveq	r1, #6
   b848c:	2101      	movne	r1, #1
   b848e:	71b1      	strb	r1, [r6, #6]
   b8490:	2000      	movs	r0, #0
   b8492:	b001      	add	sp, #4
   b8494:	e8bd 8ff0 	ldmia.w	sp!, {r4, r5, r6, r7, r8, r9, sl, fp, pc}
   b8498:	3502      	adds	r5, #2
   b849a:	d1f9      	bne.n	b8490 <_ZNK10__cxxabiv120__si_class_type_info12__do_dyncastEiNS_17__class_type_info10__sub_kindEPKS1_PKvS4_S6_RNS1_16__dyncast_resultE+0x30>
   b849c:	2301      	movs	r3, #1
   b849e:	71b3      	strb	r3, [r6, #6]
   b84a0:	e7f6      	b.n	b8490 <_ZNK10__cxxabiv120__si_class_type_info12__do_dyncastEiNS_17__class_type_info10__sub_kindEPKS1_PKvS4_S6_RNS1_16__dyncast_resultE+0x30>
   b84a2:	4554      	cmp	r4, sl
   b84a4:	d106      	bne.n	b84b4 <_ZNK10__cxxabiv120__si_class_type_info12__do_dyncastEiNS_17__class_type_info10__sub_kindEPKS1_PKvS4_S6_RNS1_16__dyncast_resultE+0x54>
   b84a6:	4659      	mov	r1, fp
   b84a8:	4648      	mov	r0, r9
   b84aa:	f000 f82b 	bl	b8504 <_ZNKSt9type_infoeqERKS_>
   b84ae:	b108      	cbz	r0, b84b4 <_ZNK10__cxxabiv120__si_class_type_info12__do_dyncastEiNS_17__class_type_info10__sub_kindEPKS1_PKvS4_S6_RNS1_16__dyncast_resultE+0x54>
   b84b0:	7177      	strb	r7, [r6, #5]
   b84b2:	e7ed      	b.n	b8490 <_ZNK10__cxxabiv120__si_class_type_info12__do_dyncastEiNS_17__class_type_info10__sub_kindEPKS1_PKvS4_S6_RNS1_16__dyncast_resultE+0x30>
   b84b4:	f8d9 0008 	ldr.w	r0, [r9, #8]
   b84b8:	6803      	ldr	r3, [r0, #0]
   b84ba:	e9cd a60c 	strd	sl, r6, [sp, #48]	; 0x30
   b84be:	e9cd 4b0a 	strd	r4, fp, [sp, #40]	; 0x28
   b84c2:	69dc      	ldr	r4, [r3, #28]
   b84c4:	463a      	mov	r2, r7
   b84c6:	4643      	mov	r3, r8
   b84c8:	4629      	mov	r1, r5
   b84ca:	46a4      	mov	ip, r4
   b84cc:	b001      	add	sp, #4
   b84ce:	e8bd 4ff0 	ldmia.w	sp!, {r4, r5, r6, r7, r8, r9, sl, fp, lr}
   b84d2:	4760      	bx	ip

000b84d4 <_ZNK10__cxxabiv120__si_class_type_info11__do_upcastEPKNS_17__class_type_infoEPKvRNS1_15__upcast_resultE>:
   b84d4:	e92d 41f0 	stmdb	sp!, {r4, r5, r6, r7, r8, lr}
   b84d8:	4607      	mov	r7, r0
   b84da:	460c      	mov	r4, r1
   b84dc:	4615      	mov	r5, r2
   b84de:	461e      	mov	r6, r3
   b84e0:	f7ff ff6d 	bl	b83be <_ZNK10__cxxabiv117__class_type_info11__do_upcastEPKS0_PKvRNS0_15__upcast_resultE>
   b84e4:	b948      	cbnz	r0, b84fa <_ZNK10__cxxabiv120__si_class_type_info11__do_upcastEPKNS_17__class_type_infoEPKvRNS1_15__upcast_resultE+0x26>
   b84e6:	68b8      	ldr	r0, [r7, #8]
   b84e8:	6803      	ldr	r3, [r0, #0]
   b84ea:	699f      	ldr	r7, [r3, #24]
   b84ec:	462a      	mov	r2, r5
   b84ee:	4633      	mov	r3, r6
   b84f0:	4621      	mov	r1, r4
   b84f2:	46bc      	mov	ip, r7
   b84f4:	e8bd 41f0 	ldmia.w	sp!, {r4, r5, r6, r7, r8, lr}
   b84f8:	4760      	bx	ip
   b84fa:	e8bd 81f0 	ldmia.w	sp!, {r4, r5, r6, r7, r8, pc}

000b84fe <_ZNSt9type_infoD1Ev>:
   b84fe:	4770      	bx	lr

000b8500 <_ZNKSt9type_info14__is_pointer_pEv>:
   b8500:	2000      	movs	r0, #0
   b8502:	4770      	bx	lr

000b8504 <_ZNKSt9type_infoeqERKS_>:
   b8504:	4281      	cmp	r1, r0
   b8506:	b508      	push	{r3, lr}
   b8508:	d00e      	beq.n	b8528 <_ZNKSt9type_infoeqERKS_+0x24>
   b850a:	6840      	ldr	r0, [r0, #4]
   b850c:	7803      	ldrb	r3, [r0, #0]
   b850e:	2b2a      	cmp	r3, #42	; 0x2a
   b8510:	d00c      	beq.n	b852c <_ZNKSt9type_infoeqERKS_+0x28>
   b8512:	6849      	ldr	r1, [r1, #4]
   b8514:	780b      	ldrb	r3, [r1, #0]
   b8516:	2b2a      	cmp	r3, #42	; 0x2a
   b8518:	bf08      	it	eq
   b851a:	3101      	addeq	r1, #1
   b851c:	f7fb fd7e 	bl	b401c <strcmp>
   b8520:	fab0 f080 	clz	r0, r0
   b8524:	0940      	lsrs	r0, r0, #5
   b8526:	bd08      	pop	{r3, pc}
   b8528:	2001      	movs	r0, #1
   b852a:	e7fc      	b.n	b8526 <_ZNKSt9type_infoeqERKS_+0x22>
   b852c:	2000      	movs	r0, #0
   b852e:	e7fa      	b.n	b8526 <_ZNKSt9type_infoeqERKS_+0x22>

000b8530 <atexit>:
   b8530:	2300      	movs	r3, #0
   b8532:	4601      	mov	r1, r0
   b8534:	461a      	mov	r2, r3
   b8536:	4618      	mov	r0, r3
   b8538:	f000 b956 	b.w	b87e8 <__register_exitproc>

000b853c <isprint>:
   b853c:	4b02      	ldr	r3, [pc, #8]	; (b8548 <isprint+0xc>)
   b853e:	4418      	add	r0, r3
   b8540:	7840      	ldrb	r0, [r0, #1]
   b8542:	f000 0097 	and.w	r0, r0, #151	; 0x97
   b8546:	4770      	bx	lr
   b8548:	000b8fa1 	.word	0x000b8fa1

000b854c <memcmp>:
   b854c:	b510      	push	{r4, lr}
   b854e:	3901      	subs	r1, #1
   b8550:	4402      	add	r2, r0
   b8552:	4290      	cmp	r0, r2
   b8554:	d101      	bne.n	b855a <memcmp+0xe>
   b8556:	2000      	movs	r0, #0
   b8558:	e005      	b.n	b8566 <memcmp+0x1a>
   b855a:	7803      	ldrb	r3, [r0, #0]
   b855c:	f811 4f01 	ldrb.w	r4, [r1, #1]!
   b8560:	42a3      	cmp	r3, r4
   b8562:	d001      	beq.n	b8568 <memcmp+0x1c>
   b8564:	1b18      	subs	r0, r3, r4
   b8566:	bd10      	pop	{r4, pc}
   b8568:	3001      	adds	r0, #1
   b856a:	e7f2      	b.n	b8552 <memcmp+0x6>

000b856c <memcpy>:
   b856c:	440a      	add	r2, r1
   b856e:	4291      	cmp	r1, r2
   b8570:	f100 33ff 	add.w	r3, r0, #4294967295
   b8574:	d100      	bne.n	b8578 <memcpy+0xc>
   b8576:	4770      	bx	lr
   b8578:	b510      	push	{r4, lr}
   b857a:	f811 4b01 	ldrb.w	r4, [r1], #1
   b857e:	f803 4f01 	strb.w	r4, [r3, #1]!
   b8582:	4291      	cmp	r1, r2
   b8584:	d1f9      	bne.n	b857a <memcpy+0xe>
   b8586:	bd10      	pop	{r4, pc}

000b8588 <memmove>:
   b8588:	4288      	cmp	r0, r1
   b858a:	b510      	push	{r4, lr}
   b858c:	eb01 0402 	add.w	r4, r1, r2
   b8590:	d902      	bls.n	b8598 <memmove+0x10>
   b8592:	4284      	cmp	r4, r0
   b8594:	4623      	mov	r3, r4
   b8596:	d807      	bhi.n	b85a8 <memmove+0x20>
   b8598:	1e43      	subs	r3, r0, #1
   b859a:	42a1      	cmp	r1, r4
   b859c:	d008      	beq.n	b85b0 <memmove+0x28>
   b859e:	f811 2b01 	ldrb.w	r2, [r1], #1
   b85a2:	f803 2f01 	strb.w	r2, [r3, #1]!
   b85a6:	e7f8      	b.n	b859a <memmove+0x12>
   b85a8:	4402      	add	r2, r0
   b85aa:	4601      	mov	r1, r0
   b85ac:	428a      	cmp	r2, r1
   b85ae:	d100      	bne.n	b85b2 <memmove+0x2a>
   b85b0:	bd10      	pop	{r4, pc}
   b85b2:	f813 4d01 	ldrb.w	r4, [r3, #-1]!
   b85b6:	f802 4d01 	strb.w	r4, [r2, #-1]!
   b85ba:	e7f7      	b.n	b85ac <memmove+0x24>

000b85bc <memset>:
   b85bc:	4402      	add	r2, r0
   b85be:	4603      	mov	r3, r0
   b85c0:	4293      	cmp	r3, r2
   b85c2:	d100      	bne.n	b85c6 <memset+0xa>
   b85c4:	4770      	bx	lr
   b85c6:	f803 1b01 	strb.w	r1, [r3], #1
   b85ca:	e7f9      	b.n	b85c0 <memset+0x4>

000b85cc <srand>:
   b85cc:	b538      	push	{r3, r4, r5, lr}
   b85ce:	4b10      	ldr	r3, [pc, #64]	; (b8610 <srand+0x44>)
   b85d0:	681d      	ldr	r5, [r3, #0]
   b85d2:	6bab      	ldr	r3, [r5, #56]	; 0x38
   b85d4:	4604      	mov	r4, r0
   b85d6:	b9b3      	cbnz	r3, b8606 <srand+0x3a>
   b85d8:	2018      	movs	r0, #24
   b85da:	f7fc fd0f 	bl	b4ffc <malloc>
   b85de:	4602      	mov	r2, r0
   b85e0:	63a8      	str	r0, [r5, #56]	; 0x38
   b85e2:	b920      	cbnz	r0, b85ee <srand+0x22>
   b85e4:	4b0b      	ldr	r3, [pc, #44]	; (b8614 <srand+0x48>)
   b85e6:	480c      	ldr	r0, [pc, #48]	; (b8618 <srand+0x4c>)
   b85e8:	2142      	movs	r1, #66	; 0x42
   b85ea:	f7fc fd37 	bl	b505c <__assert_func>
   b85ee:	490b      	ldr	r1, [pc, #44]	; (b861c <srand+0x50>)
   b85f0:	4b0b      	ldr	r3, [pc, #44]	; (b8620 <srand+0x54>)
   b85f2:	e9c0 1300 	strd	r1, r3, [r0]
   b85f6:	4b0b      	ldr	r3, [pc, #44]	; (b8624 <srand+0x58>)
   b85f8:	6083      	str	r3, [r0, #8]
   b85fa:	230b      	movs	r3, #11
   b85fc:	8183      	strh	r3, [r0, #12]
   b85fe:	2100      	movs	r1, #0
   b8600:	2001      	movs	r0, #1
   b8602:	e9c2 0104 	strd	r0, r1, [r2, #16]
   b8606:	6bab      	ldr	r3, [r5, #56]	; 0x38
   b8608:	2200      	movs	r2, #0
   b860a:	611c      	str	r4, [r3, #16]
   b860c:	615a      	str	r2, [r3, #20]
   b860e:	bd38      	pop	{r3, r4, r5, pc}
   b8610:	2003e554 	.word	0x2003e554
   b8614:	000b8f0d 	.word	0x000b8f0d
   b8618:	000b8f24 	.word	0x000b8f24
   b861c:	abcd330e 	.word	0xabcd330e
   b8620:	e66d1234 	.word	0xe66d1234
   b8624:	0005deec 	.word	0x0005deec

000b8628 <strchr>:
   b8628:	b2c9      	uxtb	r1, r1
   b862a:	4603      	mov	r3, r0
   b862c:	f810 2b01 	ldrb.w	r2, [r0], #1
   b8630:	b11a      	cbz	r2, b863a <strchr+0x12>
   b8632:	428a      	cmp	r2, r1
   b8634:	d1f9      	bne.n	b862a <strchr+0x2>
   b8636:	4618      	mov	r0, r3
   b8638:	4770      	bx	lr
   b863a:	2900      	cmp	r1, #0
   b863c:	bf18      	it	ne
   b863e:	2300      	movne	r3, #0
   b8640:	e7f9      	b.n	b8636 <strchr+0xe>

000b8642 <strchrnul>:
   b8642:	b510      	push	{r4, lr}
   b8644:	4604      	mov	r4, r0
   b8646:	f7ff ffef 	bl	b8628 <strchr>
   b864a:	b918      	cbnz	r0, b8654 <strchrnul+0x12>
   b864c:	4620      	mov	r0, r4
   b864e:	f7fb fcef 	bl	b4030 <strlen>
   b8652:	4420      	add	r0, r4
   b8654:	bd10      	pop	{r4, pc}

000b8656 <strcpy>:
   b8656:	4603      	mov	r3, r0
   b8658:	f811 2b01 	ldrb.w	r2, [r1], #1
   b865c:	f803 2b01 	strb.w	r2, [r3], #1
   b8660:	2a00      	cmp	r2, #0
   b8662:	d1f9      	bne.n	b8658 <strcpy+0x2>
   b8664:	4770      	bx	lr

000b8666 <strncmp>:
   b8666:	b510      	push	{r4, lr}
   b8668:	b17a      	cbz	r2, b868a <strncmp+0x24>
   b866a:	4603      	mov	r3, r0
   b866c:	3901      	subs	r1, #1
   b866e:	1884      	adds	r4, r0, r2
   b8670:	f813 0b01 	ldrb.w	r0, [r3], #1
   b8674:	f811 2f01 	ldrb.w	r2, [r1, #1]!
   b8678:	4290      	cmp	r0, r2
   b867a:	d101      	bne.n	b8680 <strncmp+0x1a>
   b867c:	42a3      	cmp	r3, r4
   b867e:	d101      	bne.n	b8684 <strncmp+0x1e>
   b8680:	1a80      	subs	r0, r0, r2
   b8682:	bd10      	pop	{r4, pc}
   b8684:	2800      	cmp	r0, #0
   b8686:	d1f3      	bne.n	b8670 <strncmp+0xa>
   b8688:	e7fa      	b.n	b8680 <strncmp+0x1a>
   b868a:	4610      	mov	r0, r2
   b868c:	e7f9      	b.n	b8682 <strncmp+0x1c>

000b868e <strnlen>:
   b868e:	b510      	push	{r4, lr}
   b8690:	4602      	mov	r2, r0
   b8692:	4401      	add	r1, r0
   b8694:	428a      	cmp	r2, r1
   b8696:	4613      	mov	r3, r2
   b8698:	d003      	beq.n	b86a2 <strnlen+0x14>
   b869a:	781c      	ldrb	r4, [r3, #0]
   b869c:	3201      	adds	r2, #1
   b869e:	2c00      	cmp	r4, #0
   b86a0:	d1f8      	bne.n	b8694 <strnlen+0x6>
   b86a2:	1a18      	subs	r0, r3, r0
   b86a4:	bd10      	pop	{r4, pc}

000b86a6 <strrchr>:
   b86a6:	b538      	push	{r3, r4, r5, lr}
   b86a8:	4603      	mov	r3, r0
   b86aa:	460c      	mov	r4, r1
   b86ac:	b969      	cbnz	r1, b86ca <strrchr+0x24>
   b86ae:	e8bd 4038 	ldmia.w	sp!, {r3, r4, r5, lr}
   b86b2:	f7ff bfb9 	b.w	b8628 <strchr>
   b86b6:	1c43      	adds	r3, r0, #1
   b86b8:	4605      	mov	r5, r0
   b86ba:	4621      	mov	r1, r4
   b86bc:	4618      	mov	r0, r3
   b86be:	f7ff ffb3 	bl	b8628 <strchr>
   b86c2:	2800      	cmp	r0, #0
   b86c4:	d1f7      	bne.n	b86b6 <strrchr+0x10>
   b86c6:	4628      	mov	r0, r5
   b86c8:	bd38      	pop	{r3, r4, r5, pc}
   b86ca:	2500      	movs	r5, #0
   b86cc:	e7f5      	b.n	b86ba <strrchr+0x14>
	...

000b86d0 <_strtol_l.constprop.0>:
   b86d0:	2b01      	cmp	r3, #1
   b86d2:	e92d 47f0 	stmdb	sp!, {r4, r5, r6, r7, r8, r9, sl, lr}
   b86d6:	d001      	beq.n	b86dc <_strtol_l.constprop.0+0xc>
   b86d8:	2b24      	cmp	r3, #36	; 0x24
   b86da:	d906      	bls.n	b86ea <_strtol_l.constprop.0+0x1a>
   b86dc:	f7fc fcb6 	bl	b504c <__errno>
   b86e0:	2316      	movs	r3, #22
   b86e2:	6003      	str	r3, [r0, #0]
   b86e4:	2000      	movs	r0, #0
   b86e6:	e8bd 87f0 	ldmia.w	sp!, {r4, r5, r6, r7, r8, r9, sl, pc}
   b86ea:	f8df c0e4 	ldr.w	ip, [pc, #228]	; b87d0 <_strtol_l.constprop.0+0x100>
   b86ee:	460d      	mov	r5, r1
   b86f0:	462e      	mov	r6, r5
   b86f2:	f815 4b01 	ldrb.w	r4, [r5], #1
   b86f6:	f814 700c 	ldrb.w	r7, [r4, ip]
   b86fa:	f017 0708 	ands.w	r7, r7, #8
   b86fe:	d1f7      	bne.n	b86f0 <_strtol_l.constprop.0+0x20>
   b8700:	2c2d      	cmp	r4, #45	; 0x2d
   b8702:	d132      	bne.n	b876a <_strtol_l.constprop.0+0x9a>
   b8704:	782c      	ldrb	r4, [r5, #0]
   b8706:	2701      	movs	r7, #1
   b8708:	1cb5      	adds	r5, r6, #2
   b870a:	2b00      	cmp	r3, #0
   b870c:	d05b      	beq.n	b87c6 <_strtol_l.constprop.0+0xf6>
   b870e:	2b10      	cmp	r3, #16
   b8710:	d109      	bne.n	b8726 <_strtol_l.constprop.0+0x56>
   b8712:	2c30      	cmp	r4, #48	; 0x30
   b8714:	d107      	bne.n	b8726 <_strtol_l.constprop.0+0x56>
   b8716:	782c      	ldrb	r4, [r5, #0]
   b8718:	f004 04df 	and.w	r4, r4, #223	; 0xdf
   b871c:	2c58      	cmp	r4, #88	; 0x58
   b871e:	d14d      	bne.n	b87bc <_strtol_l.constprop.0+0xec>
   b8720:	786c      	ldrb	r4, [r5, #1]
   b8722:	2310      	movs	r3, #16
   b8724:	3502      	adds	r5, #2
   b8726:	f107 4800 	add.w	r8, r7, #2147483648	; 0x80000000
   b872a:	f108 38ff 	add.w	r8, r8, #4294967295
   b872e:	f04f 0c00 	mov.w	ip, #0
   b8732:	fbb8 f9f3 	udiv	r9, r8, r3
   b8736:	4666      	mov	r6, ip
   b8738:	fb03 8a19 	mls	sl, r3, r9, r8
   b873c:	f1a4 0e30 	sub.w	lr, r4, #48	; 0x30
   b8740:	f1be 0f09 	cmp.w	lr, #9
   b8744:	d816      	bhi.n	b8774 <_strtol_l.constprop.0+0xa4>
   b8746:	4674      	mov	r4, lr
   b8748:	42a3      	cmp	r3, r4
   b874a:	dd24      	ble.n	b8796 <_strtol_l.constprop.0+0xc6>
   b874c:	f1bc 0f00 	cmp.w	ip, #0
   b8750:	db1e      	blt.n	b8790 <_strtol_l.constprop.0+0xc0>
   b8752:	45b1      	cmp	r9, r6
   b8754:	d31c      	bcc.n	b8790 <_strtol_l.constprop.0+0xc0>
   b8756:	d101      	bne.n	b875c <_strtol_l.constprop.0+0x8c>
   b8758:	45a2      	cmp	sl, r4
   b875a:	db19      	blt.n	b8790 <_strtol_l.constprop.0+0xc0>
   b875c:	fb06 4603 	mla	r6, r6, r3, r4
   b8760:	f04f 0c01 	mov.w	ip, #1
   b8764:	f815 4b01 	ldrb.w	r4, [r5], #1
   b8768:	e7e8      	b.n	b873c <_strtol_l.constprop.0+0x6c>
   b876a:	2c2b      	cmp	r4, #43	; 0x2b
   b876c:	bf04      	itt	eq
   b876e:	782c      	ldrbeq	r4, [r5, #0]
   b8770:	1cb5      	addeq	r5, r6, #2
   b8772:	e7ca      	b.n	b870a <_strtol_l.constprop.0+0x3a>
   b8774:	f1a4 0e41 	sub.w	lr, r4, #65	; 0x41
   b8778:	f1be 0f19 	cmp.w	lr, #25
   b877c:	d801      	bhi.n	b8782 <_strtol_l.constprop.0+0xb2>
   b877e:	3c37      	subs	r4, #55	; 0x37
   b8780:	e7e2      	b.n	b8748 <_strtol_l.constprop.0+0x78>
   b8782:	f1a4 0e61 	sub.w	lr, r4, #97	; 0x61
   b8786:	f1be 0f19 	cmp.w	lr, #25
   b878a:	d804      	bhi.n	b8796 <_strtol_l.constprop.0+0xc6>
   b878c:	3c57      	subs	r4, #87	; 0x57
   b878e:	e7db      	b.n	b8748 <_strtol_l.constprop.0+0x78>
   b8790:	f04f 3cff 	mov.w	ip, #4294967295
   b8794:	e7e6      	b.n	b8764 <_strtol_l.constprop.0+0x94>
   b8796:	f1bc 0f00 	cmp.w	ip, #0
   b879a:	da05      	bge.n	b87a8 <_strtol_l.constprop.0+0xd8>
   b879c:	2322      	movs	r3, #34	; 0x22
   b879e:	6003      	str	r3, [r0, #0]
   b87a0:	4646      	mov	r6, r8
   b87a2:	b942      	cbnz	r2, b87b6 <_strtol_l.constprop.0+0xe6>
   b87a4:	4630      	mov	r0, r6
   b87a6:	e79e      	b.n	b86e6 <_strtol_l.constprop.0+0x16>
   b87a8:	b107      	cbz	r7, b87ac <_strtol_l.constprop.0+0xdc>
   b87aa:	4276      	negs	r6, r6
   b87ac:	2a00      	cmp	r2, #0
   b87ae:	d0f9      	beq.n	b87a4 <_strtol_l.constprop.0+0xd4>
   b87b0:	f1bc 0f00 	cmp.w	ip, #0
   b87b4:	d000      	beq.n	b87b8 <_strtol_l.constprop.0+0xe8>
   b87b6:	1e69      	subs	r1, r5, #1
   b87b8:	6011      	str	r1, [r2, #0]
   b87ba:	e7f3      	b.n	b87a4 <_strtol_l.constprop.0+0xd4>
   b87bc:	2430      	movs	r4, #48	; 0x30
   b87be:	2b00      	cmp	r3, #0
   b87c0:	d1b1      	bne.n	b8726 <_strtol_l.constprop.0+0x56>
   b87c2:	2308      	movs	r3, #8
   b87c4:	e7af      	b.n	b8726 <_strtol_l.constprop.0+0x56>
   b87c6:	2c30      	cmp	r4, #48	; 0x30
   b87c8:	d0a5      	beq.n	b8716 <_strtol_l.constprop.0+0x46>
   b87ca:	230a      	movs	r3, #10
   b87cc:	e7ab      	b.n	b8726 <_strtol_l.constprop.0+0x56>
   b87ce:	bf00      	nop
   b87d0:	000b8fa2 	.word	0x000b8fa2

000b87d4 <strtol>:
   b87d4:	4613      	mov	r3, r2
   b87d6:	460a      	mov	r2, r1
   b87d8:	4601      	mov	r1, r0
   b87da:	4802      	ldr	r0, [pc, #8]	; (b87e4 <strtol+0x10>)
   b87dc:	6800      	ldr	r0, [r0, #0]
   b87de:	f7ff bf77 	b.w	b86d0 <_strtol_l.constprop.0>
   b87e2:	bf00      	nop
   b87e4:	2003e554 	.word	0x2003e554

000b87e8 <__register_exitproc>:
   b87e8:	e92d 43f8 	stmdb	sp!, {r3, r4, r5, r6, r7, r8, r9, lr}
   b87ec:	f8df 80b8 	ldr.w	r8, [pc, #184]	; b88a8 <__register_exitproc+0xc0>
   b87f0:	4606      	mov	r6, r0
   b87f2:	f8d8 0000 	ldr.w	r0, [r8]
   b87f6:	461f      	mov	r7, r3
   b87f8:	460d      	mov	r5, r1
   b87fa:	4691      	mov	r9, r2
   b87fc:	f000 f856 	bl	b88ac <__retarget_lock_acquire_recursive>
   b8800:	4b25      	ldr	r3, [pc, #148]	; (b8898 <__register_exitproc+0xb0>)
   b8802:	681c      	ldr	r4, [r3, #0]
   b8804:	b934      	cbnz	r4, b8814 <__register_exitproc+0x2c>
   b8806:	4c25      	ldr	r4, [pc, #148]	; (b889c <__register_exitproc+0xb4>)
   b8808:	601c      	str	r4, [r3, #0]
   b880a:	4b25      	ldr	r3, [pc, #148]	; (b88a0 <__register_exitproc+0xb8>)
   b880c:	b113      	cbz	r3, b8814 <__register_exitproc+0x2c>
   b880e:	681b      	ldr	r3, [r3, #0]
   b8810:	f8c4 3088 	str.w	r3, [r4, #136]	; 0x88
   b8814:	6863      	ldr	r3, [r4, #4]
   b8816:	2b1f      	cmp	r3, #31
   b8818:	dd07      	ble.n	b882a <__register_exitproc+0x42>
   b881a:	f8d8 0000 	ldr.w	r0, [r8]
   b881e:	f000 f847 	bl	b88b0 <__retarget_lock_release_recursive>
   b8822:	f04f 30ff 	mov.w	r0, #4294967295
   b8826:	e8bd 83f8 	ldmia.w	sp!, {r3, r4, r5, r6, r7, r8, r9, pc}
   b882a:	b34e      	cbz	r6, b8880 <__register_exitproc+0x98>
   b882c:	f8d4 0088 	ldr.w	r0, [r4, #136]	; 0x88
   b8830:	b988      	cbnz	r0, b8856 <__register_exitproc+0x6e>
   b8832:	4b1c      	ldr	r3, [pc, #112]	; (b88a4 <__register_exitproc+0xbc>)
   b8834:	b923      	cbnz	r3, b8840 <__register_exitproc+0x58>
   b8836:	f8d8 0000 	ldr.w	r0, [r8]
   b883a:	f000 f838 	bl	b88ae <__retarget_lock_release>
   b883e:	e7f0      	b.n	b8822 <__register_exitproc+0x3a>
   b8840:	f44f 7084 	mov.w	r0, #264	; 0x108
   b8844:	f7fc fbda 	bl	b4ffc <malloc>
   b8848:	2800      	cmp	r0, #0
   b884a:	d0f4      	beq.n	b8836 <__register_exitproc+0x4e>
   b884c:	2300      	movs	r3, #0
   b884e:	e9c0 3340 	strd	r3, r3, [r0, #256]	; 0x100
   b8852:	f8c4 0088 	str.w	r0, [r4, #136]	; 0x88
   b8856:	6863      	ldr	r3, [r4, #4]
   b8858:	f840 9023 	str.w	r9, [r0, r3, lsl #2]
   b885c:	2201      	movs	r2, #1
   b885e:	409a      	lsls	r2, r3
   b8860:	eb00 0183 	add.w	r1, r0, r3, lsl #2
   b8864:	f8d0 3100 	ldr.w	r3, [r0, #256]	; 0x100
   b8868:	4313      	orrs	r3, r2
   b886a:	f8c0 3100 	str.w	r3, [r0, #256]	; 0x100
   b886e:	2e02      	cmp	r6, #2
   b8870:	f8c1 7080 	str.w	r7, [r1, #128]	; 0x80
   b8874:	bf02      	ittt	eq
   b8876:	f8d0 3104 	ldreq.w	r3, [r0, #260]	; 0x104
   b887a:	4313      	orreq	r3, r2
   b887c:	f8c0 3104 	streq.w	r3, [r0, #260]	; 0x104
   b8880:	6863      	ldr	r3, [r4, #4]
   b8882:	f8d8 0000 	ldr.w	r0, [r8]
   b8886:	1c5a      	adds	r2, r3, #1
   b8888:	3302      	adds	r3, #2
   b888a:	6062      	str	r2, [r4, #4]
   b888c:	f844 5023 	str.w	r5, [r4, r3, lsl #2]
   b8890:	f000 f80e 	bl	b88b0 <__retarget_lock_release_recursive>
   b8894:	2000      	movs	r0, #0
   b8896:	e7c6      	b.n	b8826 <__register_exitproc+0x3e>
   b8898:	2003e7e8 	.word	0x2003e7e8
   b889c:	2003e75c 	.word	0x2003e75c
   b88a0:	00000000 	.word	0x00000000
   b88a4:	000b4ffd 	.word	0x000b4ffd
   b88a8:	2003e5b8 	.word	0x2003e5b8

000b88ac <__retarget_lock_acquire_recursive>:
   b88ac:	4770      	bx	lr

000b88ae <__retarget_lock_release>:
   b88ae:	4770      	bx	lr

000b88b0 <__retarget_lock_release_recursive>:
   b88b0:	4770      	bx	lr

000b88b2 <link_code_end>:
	...

000b88b4 <link_const_data_start>:
   b88b4:	00000000 	.word	0x00000000
   b88b8:	34fb0000 	.word	0x34fb0000
   b88bc:	00805f9b 	.word	0x00805f9b
   b88c0:	10008000 	.word	0x10008000
	...

000b88cc <dynalib_user>:
   b88cc:	000b4041 000b407d 000b40a5 000b40a9     A@..}@...@...@..
   b88dc:	00000000 6c6c6143 206e6f20 65727570     ....Call on pure
   b88ec:	72697620 6c617574 66656400 746c7561      virtual.default
   b88fc:	534d0020 534c0042 533c0042 65534950      .MSB.LSB.<SPISe
   b890c:	6e697474 64207367 75616665 003e746c     ttings default>.
   b891c:	4950533c 74746553 73676e69 25732520     <SPISettings %s%
   b892c:	73252075 444f4d20 3e752545 73696400     u %s MODE%u>.dis
   b893c:	6e6e6f63 65746365 41420064 72612f52     connected.BAR/ar
   b894c:	546e6f67 6363612f 782f6c65 52414200     gonT/accel/x.BAR
   b895c:	6772612f 2f546e6f 65636361 00792f6c     /argonT/accel/y.
   b896c:	2f524142 6f677261 612f546e 6c656363     BAR/argonT/accel
   b897c:	6c007a2f 742e6261 63776568 6f632e6c     /z.lab.thewcl.co
   b898c:	6661006d 63613765 332d3563 2d396133     m.afe7acc5-33a9-
   b899c:	66383734 6562622d 39382d31 61613434     478f-bbe1-8944aa
   b89ac:	38653830 00003438                       08e884..

000b89b4 <_ZTVN8particle11SPISettingsE>:
	...
   b89bc:	000b4169 000b40f1 000b40f7              iA...@...@..

000b89c8 <_ZTVN5spark10LogHandlerE>:
	...
   b89d8:	000b40c9 000b40f3                       .@...@..

000b89e0 <_ZTVN5spark16SerialLogHandlerE>:
	...
   b89e8:	000b4105 000b4139 000b6dd5 000b6f79     .A..9A...m..yo..
   b89f8:	69766564 6e206563 6620746f 646e756f     device not found
   b8a08:	00000000                                ....

000b8a0c <_ZTV6LIS3DH>:
	...
   b8a1c:	000b4929 000b40c9 000b40c9              )I...@...@..

000b8a28 <_ZTV9LIS3DHSPI>:
	...
   b8a30:	000b4817 000b4819 000b494b 000b4857     .H...H..KI..WH..
   b8a40:	000b4899 000b4827 000b4841              .H..'H..AH..

000b8a4c <_ZTVN5spark13EthernetClassE>:
	...
   b8a54:	000b50db 000b50d1 000b50c7 000b50bd     .P...P...P...P..
   b8a64:	000b50b1 000b50a5 000b7c7d 000b7c85     .P...P..}|...|..
   b8a74:	000b5099 000b5091 000b5087 000b507d     .P...P...P..}P..
   b8a84:	000b7cb5                                .|..

000b8a88 <_ZN12_GLOBAL__N_1L14clock_divisorsE>:
   b8a88:	18100800 38302820 65737341 6f697472     .... (08Assertio
   b8a98:	6961466e 6572756c 6c616620 77006573     nFailure false.w
   b8aa8:	6e697269 6c622e67 74530065 20747261     iring.ble.Start 
   b8ab8:	63736964 7265766f 20676e69 76726573     discovering serv
   b8ac8:	73656369 7341002e 74726573 466e6f69     ices..AssertionF
   b8ad8:	756c6961 68206572 625f6c61 735f656c     ailure hal_ble_s
   b8ae8:	6b636174 696e695f 756e2874 74706c6c     tack_init(nullpt
   b8af8:	3d202972 5953203d 4d455453 5252455f     r) == SYSTEM_ERR
   b8b08:	4e5f524f 00454e4f 6c696146 74206465     OR_NONE.Failed t
   b8b18:	7061206f 646e6570 65657020 65432072     o append peer Ce
   b8b28:	6172746e 6564206c 65636976 6f43002e     ntral device..Co
   b8b38:	63656e6e 00646574 63736944 656e6e6f     nnected.Disconne
   b8b48:	64657463 00000000                       cted....

000b8b50 <_ZTVSt23_Sp_counted_ptr_inplaceIN8particle17BlePeerDeviceImplESaIS1_ELN9__gnu_cxx12_Lock_policyE0EE>:
	...
   b8b58:	000b54a5 000b54c9 000b5a9b 000b54d7     .T...T...Z...T..
   b8b68:	000b54a9                                .T..

000b8b6c <_ZZNSt19_Sp_make_shared_tag5_S_tiEvE5__tag>:
	...
   b8b74:	64756162 72655300 006c6169 69726553     baud.Serial.Seri
   b8b84:	00316c61 4e4f534a 65727453 6f4c6d61     al1.JSONStreamLo
   b8b94:	6e614867 72656c64 70706100 31302500     gHandler.app.%01
   b8ba4:	00207530 2c00205d 29280020 2000203a     0u .] ., .(): . 
   b8bb4:	6f63005b 3d206564 69250020 74656400     [.code = .%i.det
   b8bc4:	736c6961 00203d20 66000a0d 006e6c00     ails = ....f.ln.
   b8bd4:	74006e66 646f6300 65640065 6c696174     fn.t.code.detail
   b8be4:	00000000                                ....

000b8be8 <_ZTVN5spark16JSONStreamWriterE>:
	...
   b8bf0:	000b61cd 000b61f3 000b61b1 000b7dcf     .a...a...a...}..

000b8c00 <_ZTVN5spark16StreamLogHandlerE>:
	...
   b8c08:	000b667d 000b6695 000b6dd5 000b6f79     }f...f...m..yo..

000b8c18 <_ZTVN5spark20JSONStreamLogHandlerE>:
	...
   b8c20:	000b66a9 000b66bd 000b6fb1 000b61b9     .f...f...o...a..

000b8c30 <_ZTVN5spark24DefaultLogHandlerFactoryE>:
	...
   b8c38:	000b61cb 000b6201 000b6d39 000b61bb     .a...b..9m...a..

000b8c48 <_ZTVN5spark26DefaultOutputStreamFactoryE>:
	...
   b8c50:	000b61c9 000b620f 000b65e5 000b6231     .a...b...e..1b..
   b8c60:	252d5925 64252d6d 3a482554 253a4d25     %Y-%m-%dT%H:%M:%
   b8c70:	007a2553 74637361 00656d69              S%z.asctime.

000b8c7c <_ZTV9IPAddress>:
	...
   b8c84:	000b72c1 000b72b1 000b72b3              .r...r...r..

000b8c90 <_ZTV9USBSerial>:
	...
   b8c98:	000b73d3 000b743b 000b7411 000b6089     .s..;t...t...`..
   b8ca8:	000b7403 000b73d5 000b73e5 000b7435     .t...s...s..5t..
   b8cb8:	000b73f5 000b73cd                       .s...s..

000b8cc0 <_ZTV11USARTSerial>:
	...
   b8cc8:	000b74dd 000b7549 000b7521 000b6089     .t..Iu..!u...`..
   b8cd8:	000b74f1 000b750d 000b74ff 000b751b     .t...u...t...u..
   b8ce8:	000b74df 000b74e3                       .t...t..

000b8cf0 <_ZTV7TwoWire>:
	...
   b8cf8:	000b7595 000b75df 000b75b7 000b7597     .u...u...u...u..
   b8d08:	000b75bf 000b75c7 000b75cf 000b75d7     .u...u...u...u..
   b8d18:	69726977 7200676e 20766365 6f727265     wiring.recv erro
   b8d28:	203d2072 00006425                       r = %d..

000b8d30 <_ZTVSt23_Sp_counted_ptr_inplaceIN9TCPClient4DataESaIS1_ELN9__gnu_cxx12_Lock_policyE0EE>:
	...
   b8d38:	000b76ad 000b76d1 000b7bbb 000b76df     .v...v...{...v..
   b8d48:	000b76b1                                .v..

000b8d4c <_ZTV9TCPClient>:
	...
   b8d54:	000b7141 000b7159 000b7629 000b7643     Aq..Yq..)v..Cv..
   b8d64:	000b7a51 000b766d 000b78c7 000b76a1     Qz..mv...x...v..
   b8d74:	000b7959 000b7799 000b78f5 000b7b05     Yy...w...x...{..
   b8d84:	000b7895 000b76a3 000b7655 000b76e5     .x...v..Uv...v..
   b8d94:	000b7779                                yw..

000b8d98 <_ZTVN5spark9WiFiClassE>:
	...
   b8da0:	000b7c1f 000b7c15 000b7c0b 000b7bc1     .|...|...|...{..
   b8db0:	000b7bff 000b7bf3 000b7c7d 000b7c85     .{...{..}|...|..
   b8dc0:	000b7be7 000b7bdf 000b7bd5 000b7bcb     .{...{...{...{..
   b8dd0:	000b7cb5                                .|..

000b8dd4 <_ZTVN5spark12NetworkClassE>:
	...
   b8ddc:	000b7c3d 000b7c47 000b7c51 000b7c5b     =|..G|..Q|..[|..
   b8dec:	000b7c65 000b7c71 000b7c7d 000b7c85     e|..q|..}|...|..
   b8dfc:	000b7c8d 000b7c99 000b7ca1 000b7cab     .|...|...|...|..
   b8e0c:	000b7cb5 75007525 78343025               .|..%u.u%04x.

000b8e19 <_ZSt7nothrow>:
	...

000b8e1a <_ZTSSt19_Sp_make_shared_tag>:
   b8e1a:	39317453 5f70535f 656b616d 6168735f     St19_Sp_make_sha
   b8e2a:	5f646572 00676174                        red_tag...

000b8e34 <_ZTISt19_Sp_make_shared_tag>:
   b8e34:	000b8e74 000b8e1a                       t.......

000b8e3c <_ZTIN10__cxxabiv117__class_type_infoE>:
   b8e3c:	000b8ed4 000b8e48 000b8ef8              ....H.......

000b8e48 <_ZTSN10__cxxabiv117__class_type_infoE>:
   b8e48:	5f30314e 7878635f 76696261 5f373131     N10__cxxabiv117_
   b8e58:	616c635f 745f7373 5f657079 6f666e69     _class_type_info
   b8e68:	00000045                                E...

000b8e6c <_ZTVN10__cxxabiv117__class_type_infoE>:
   b8e6c:	00000000 000b8e3c 000b8359 000b836d     ....<...Y...m...
   b8e7c:	000b8501 000b8501 000b83d7 000b8319     ................
   b8e8c:	000b83bf 000b8381 000b834b              ........K...

000b8e98 <_ZTIN10__cxxabiv120__si_class_type_infoE>:
   b8e98:	000b8ed4 000b8ea4 000b8e3c              ........<...

000b8ea4 <_ZTSN10__cxxabiv120__si_class_type_infoE>:
   b8ea4:	5f30314e 7878635f 76696261 5f303231     N10__cxxabiv120_
   b8eb4:	5f69735f 73616c63 79745f73 695f6570     _si_class_type_i
   b8ec4:	456f666e 00000000                       nfoE....

000b8ecc <_ZTVN10__cxxabiv120__si_class_type_infoE>:
   b8ecc:	00000000 000b8e98 000b8401 000b8415     ................
   b8edc:	000b8501 000b8501 000b83d7 000b8319     ................
   b8eec:	000b84d5 000b8461 000b8429              ....a...)...

000b8ef8 <_ZTISt9type_info>:
   b8ef8:	000b8e74 000b8f00                       t.......

000b8f00 <_ZTSSt9type_info>:
   b8f00:	74397453 5f657079 6f666e69 45455200     St9type_info.REE
   b8f10:	6d20544e 6f6c6c61 75732063 65656363     NT malloc succee
   b8f20:	00646564 746e6d2f 726f772f 6170736b     ded./mnt/workspa
   b8f30:	772f6563 736b726f 65636170 4343472f     ce/workspace/GCC
   b8f40:	2d30312d 65706970 656e696c 6e656a2f     -10-pipeline/jen
   b8f50:	736e696b 4343472d 2d30312d 65706970     kins-GCC-10-pipe
   b8f60:	656e696c 5f38342d 30323032 34323131     line-48_20201124
   b8f70:	3036315f 30383136 2f313436 2f637273     _1606180641/src/
   b8f80:	6c77656e 6e2f6269 696c7765 696c2f62     newlib/newlib/li
   b8f90:	732f6362 696c6474 61722f62 632e646e     bc/stdlib/rand.c
	...

000b8fa1 <_ctype_>:
   b8fa1:	20202000 20202020 28282020 20282828     .         ((((( 
   b8fb1:	20202020 20202020 20202020 20202020                     
   b8fc1:	10108820 10101010 10101010 10101010      ...............
   b8fd1:	04040410 04040404 10040404 10101010     ................
   b8fe1:	41411010 41414141 01010101 01010101     ..AAAAAA........
   b8ff1:	01010101 01010101 01010101 10101010     ................
   b9001:	42421010 42424242 02020202 02020202     ..BBBBBB........
   b9011:	02020202 02020202 02020202 10101010     ................
   b9021:	00000020 00000000 00000000 00000000      ...............
	...

000b90a2 <link_const_data_end>:
	...

000b90a4 <link_constructors_location>:
   b90a4:	000b4435 	.word	0x000b4435
   b90a8:	000b50e5 	.word	0x000b50e5
   b90ac:	000b525d 	.word	0x000b525d
   b90b0:	000b6079 	.word	0x000b6079
   b90b4:	000b6dc5 	.word	0x000b6dc5
   b90b8:	000b7125 	.word	0x000b7125
   b90bc:	000b716d 	.word	0x000b716d
   b90c0:	000b7c29 	.word	0x000b7c29
   b90c4:	000b7d8d 	.word	0x000b7d8d
